(dp0
S'building_parameters'
p1
(dp2
I0
(dp3
S'elite_parameters'
p4
(dp5
S'ticks'
p6
(dp7
I0
(lp8
ssS'damage'
p9
(dp10
I0
(lp11
sssS'basic_parameters'
p12
(dp13
S'shop_units'
p14
(lp15
I1
aI10
asS'life'
p16
I2000
sS'shop_transporter'
p17
(lp18
sS'capacity'
p19
I25
sS'name'
p20
VHauptquartier
p21
sS'shield_factor'
p22
F0.4
sS'attack_min'
p23
I0
sS'delay_shoot'
p24
I15
sS'delay_in'
p25
I20
sS'price'
p26
I2000
sS'max_life'
p27
I2000
sS'delay_out'
p28
I10
sS'attack_max'
p29
I0
sS'enter'
p30
Vsoldier
p31
sS'shoot_dist'
p32
I6
sS'actions'
p33
(dp34
VKommandant
p35
(dp36
S'delay'
p37
I0
sS'category'
p38
Vupgrade
p39
sS'price'
p40
I500
sS'actions'
p41
(lp42
(dp43
S'target'
p44
S'self'
p45
sS'level'
p46
S'id'
p47
sS'type'
p48
S'change'
p49
sS'random'
p50
I0
sS'num_units'
p51
I0
sS'changes'
p52
(dp53
Vshop_units
p54
(lp55
I8
assa(dp56
S'type'
p57
Vnew
p58
sS'target'
p59
Vown
p60
sS'parameters'
p61
(lp62
I8
asS'level'
p63
Vgroups
p64
sasS'num_uses'
p65
I1
ssVHelikopter-Plattform
p66
(dp67
S'delay'
p68
I0
sS'category'
p69
Vupgrade
p70
sS'price'
p71
I400
sS'actions'
p72
(lp73
(dp74
S'target'
p75
S'self'
p76
sS'level'
p77
S'id'
p78
sS'type'
p79
S'change'
p80
sS'random'
p81
I0
sS'num_units'
p82
I0
sS'changes'
p83
(dp84
Vshop_transporter
p85
(lp86
I1
assa(dp87
g79
Vnew
p88
sg75
Vown
p89
sS'parameters'
p90
I1
sg77
Vtransporter
p91
sasS'num_uses'
p92
I1
sssS'elite'
p93
I0
sS'id'
p94
I0
sS'num_enemies'
p95
I4
sS'shield'
p96
I0
sssI1
(dp97
S'elite_parameters'
p98
(dp99
S'ticks'
p100
(dp101
I500
(lp102
(dp103
S'target'
p104
S'self'
p105
sS'level'
p106
S'id'
p107
sS'type'
p108
S'change'
p109
sS'random'
p110
I0
sS'num_units'
p111
I0
sS'changes'
p112
(dp113
V
p114
F1.0
ssassS'damage'
p115
(dp116
I0
(lp117
sssS'basic_parameters'
p118
(dp119
S'life'
p120
I800
sS'shop_transporter'
p121
(lp122
sS'capacity'
p123
I15
sS'name'
p124
VKaserne
p125
sS'shop_units'
p126
(lp127
I0
asS'attack_min'
p128
I0
sS'shield'
p129
I100
sS'delay_shoot'
p130
I15
sS'id'
p131
I1
sS'price'
p132
I600
sS'num_enemies'
p133
I4
sS'max_life'
p134
I800
sS'delay_in'
p135
I20
sS'delay_out'
p136
I10
sS'enter'
p137
Vsoldier
p138
sS'shoot_dist'
p139
I6
sS'elite'
p140
I0
sS'shield_factor'
p141
F0.4
sS'actions'
p142
(dp143
VVerteidigung
p144
(dp145
S'delay'
p146
F20.0
sS'category'
p147
Vupgrade
p148
sS'price'
p149
F100.0
sS'actions'
p150
(lp151
(dp152
g104
g105
sg106
g107
sg108
g109
sg110
I0
sg111
I0
sg112
(dp153
Vattack_min
p154
F20.0
sVattack_max
p155
F40.0
ssasS'num_uses'
p156
F1.0
ssVMG-Soldat
p157
(dp158
S'delay'
p159
I0
sS'category'
p160
Vupgrade
p161
sS'price'
p162
I500
sS'actions'
p163
(lp164
(dp165
g104
g105
sg106
g107
sg108
g109
sg110
I0
sg111
I0
sg112
(dp166
Vshop_units
p167
(lp168
I2
asVelite
p169
F1.0
sS'actions'
p170
(dp171
VCyborg
p172
(dp173
S'delay'
p174
I0
sS'category'
p175
Vupgrade
p176
sS'price'
p177
I400
sg170
(lp178
(dp179
S'target'
p180
S'self'
p181
sS'level'
p182
S'id'
p183
sS'type'
p184
S'change'
p185
sS'random'
p186
I0
sS'num_units'
p187
I0
sS'changes'
p188
(dp189
Vshop_units
p190
(lp191
I7
asVelite
p192
I1
ssasS'num_uses'
p193
I1
ssssasS'num_uses'
p194
I1
ssVSniper
p195
(dp196
S'delay'
p197
I0
sS'category'
p198
Vupgrade
p199
sS'price'
p200
I200
sS'actions'
p201
(lp202
(dp203
S'target'
p204
S'self'
p205
sS'level'
p206
S'id'
p207
sS'type'
p208
S'change'
p209
sS'random'
p210
I0
sS'num_units'
p211
I0
sS'changes'
p212
(dp213
Vshop_units
p214
(lp215
I3
assasS'num_uses'
p216
I1
sssS'attack_max'
p217
I0
sssI2
(dp218
S'elite_parameters'
p219
(dp220
S'ticks'
p221
(dp222
I0
(lp223
ssS'damage'
p224
(dp225
I0
(lp226
sssS'basic_parameters'
p227
(dp228
S'life'
p229
I500
sS'shop_transporter'
p230
(lp231
sS'capacity'
p232
I10
sS'name'
p233
VLazarett
p234
sS'shield_factor'
p235
F0.4
sS'attack_min'
p236
I0
sS'shield'
p237
I75
sS'delay_shoot'
p238
I15
sS'id'
p239
I2
sS'price'
p240
I800
sS'max_life'
p241
I500
sS'delay_in'
p242
I20
sS'delay_out'
p243
I10
sS'enter'
p244
Vsoldier
p245
sS'shoot_dist'
p246
I6
sS'actions'
p247
(dp248
V10x heilen
p249
(dp250
S'delay'
p251
I50
sS'category'
p252
Vstandard
p253
sg240
I400
sg247
(lp254
(dp255
S'target'
p256
Vown
p257
sS'level'
p258
Vid
p259
sS'type'
p260
Vchange
p261
sS'random'
p262
F0.0
sS'num_units'
p263
I0
sS'changes'
p264
(dp265
Vlife
p266
I50
ssasS'num_uses'
p267
I-1
ssV1x heilen
p268
(dp269
g251
I40
sg252
Vstandard
p270
sg240
I70
sg247
(lp271
(dp272
g256
Vown
p273
sg258
Vid
p274
sg260
Vchange
p275
sg262
F0.0
sg263
I1
sg264
(dp276
Vlife
p277
I50
ssasg267
I-1
ssVArztneistudium
p278
(dp279
S'delay'
p280
I0
sS'category'
p281
Vupgrade
p282
sS'price'
p283
I200
sS'actions'
p284
(lp285
(dp286
S'target'
p287
S'self'
p288
sS'level'
p289
S'id'
p290
sS'type'
p291
S'change'
p292
sS'random'
p293
I0
sS'num_units'
p294
I0
sS'changes'
p295
(dp296
Vshop_units
p297
(lp298
I6
assasS'num_uses'
p299
I1
ssV5x heilen
p300
(dp301
g251
I50
sg252
Vstandard
p302
sg240
I200
sg247
(lp303
(dp304
g256
Vown
p305
sg258
Vid
p306
sg260
Vchange
p307
sg262
F0.0
sg263
I5
sg264
(dp308
Vlife
p309
I50
ssasg267
I-1
sssS'elite'
p310
I0
sS'shop_units'
p311
(lp312
sS'num_enemies'
p313
I4
sS'attack_max'
p314
I0
sssI3
(dp315
g219
(dp316
g221
(dp317
I0
(lp318
ssg224
(dp319
I0
(lp320
sssg227
(dp321
g229
I500
sg230
(lp322
I0
asg232
I10
sg233
VWerkstatt
p323
sg235
F0.4
sg236
I0
sg237
I50
sg238
I15
sg239
I3
sg240
I700
sg241
I500
sg242
I20
sg243
I10
sg244
Vvehicle
p324
sg246
I6
sg247
(dp325
VFahrzeug Transporter
p326
(dp327
S'delay'
p328
I0
sS'category'
p329
Vupgrade
p330
sS'price'
p331
I150
sS'actions'
p332
(lp333
(dp334
S'target'
p335
S'self'
p336
sS'level'
p337
S'id'
p338
sS'type'
p339
S'change'
p340
sS'random'
p341
I0
sS'num_units'
p342
I0
sS'changes'
p343
(dp344
Vshop_transporter
p345
(lp346
I2
asVelite
p347
I1
ssasS'num_uses'
p348
I1
ssVArtillerie
p349
(dp350
S'delay'
p351
I0
sS'category'
p352
Vupgrade
p353
sS'price'
p354
I300
sS'actions'
p355
(lp356
(dp357
S'target'
p358
S'self'
p359
sS'level'
p360
S'id'
p361
sS'type'
p362
S'change'
p363
sS'random'
p364
I0
sS'num_units'
p365
I0
sS'changes'
p366
(dp367
Vshop_units
p368
(lp369
I5
asVelite
p370
I1
ssasS'num_uses'
p371
I1
ssVVerteidigung
p372
(dp373
S'delay'
p374
I0
sS'category'
p375
Vupgrade
p376
sS'price'
p377
I50
sS'actions'
p378
(lp379
(dp380
g287
g288
sg289
g290
sg291
g292
sg293
I0
sg294
I0
sg295
(dp381
Vattack_min
p382
I30
sVattack_max
p383
I50
ssasS'num_uses'
p384
I1
sssg310
I0
sg311
(lp385
I4
asg313
I4
sg314
I0
sssI4
(dp386
g219
(dp387
g221
(dp388
I0
(lp389
ssg224
(dp390
I0
(lp391
sssg227
(dp392
g229
I800
sg230
(lp393
sg232
I15
sg233
VFlughafen
p394
sg235
F0.4
sg236
I0
sg237
I100
sg238
I15
sg239
I4
sg240
I1000
sg241
I800
sg242
I20
sg243
I10
sg244
Vvehicle
p395
sg246
I6
sg247
(dp396
VFlak & Verteidigung
p397
(dp398
g328
I0
sg329
Vupgrade
p399
sg331
I100
sg332
(lp400
(dp401
g335
g336
sg337
g338
sg339
g340
sg341
I0
sg342
I0
sg343
(dp402
Vshop_units
p403
(lp404
I9
asVattack_min
p405
I30
sVelite
p406
I1
sVattack_max
p407
I50
ssasg348
I1
ssVHelikopter Landeplattform
p408
(dp409
g251
I0
sg252
Vupgrade
p410
sg240
I400
sg247
(lp411
(dp412
g256
S'self'
p413
sg258
g239
sg260
S'change'
p414
sg262
I0
sg263
I0
sg264
(dp415
Vshop_transporter
p416
(lp417
I1
asVelite
p418
I1
sS'actions'
p419
(dp420
VFallschirmspringer
p421
(dp422
S'delay'
p423
I0
sS'category'
p424
S'upgrade'
p425
sS'price'
p426
I0
sS'actions'
p427
(lp428
sS'num_uses'
p429
I-1
ssssasg267
I1
sssg310
I0
sg311
(lp430
sg313
I4
sg314
I0
sssI5
(dp431
S'elite_parameters'
p432
(dp433
S'ticks'
p434
(dp435
I0
(lp436
ssS'damage'
p437
(dp438
I0
(lp439
sssS'basic_parameters'
p440
(dp441
S'delay_out'
p442
I0
sS'life'
p443
I100
sS'shop_transporter'
p444
(lp445
sS'capacity'
p446
I0
sS'name'
p447
Vnix
p448
sS'shield_factor'
p449
F0.6
sS'shop_units'
p450
(lp451
sS'attack_min'
p452
I60
sS'delay_shoot'
p453
I15
sS'delay_in'
p454
I0
sS'price'
p455
I200
sS'num_enemies'
p456
I3
sS'max_life'
p457
I100
sS'attack_max'
p458
I80
sS'enter'
p459
Vsoldier
p460
sS'shoot_dist'
p461
I5
sS'elite'
p462
I0
sS'id'
p463
I5
sS'actions'
p464
(dp465
Vnix
p466
(dp467
S'delay'
p468
I0
sS'category'
p469
S'upgrade'
p470
sg455
I0
sg464
(lp471
sS'num_uses'
p472
I-1
sssS'shield'
p473
I0
sssI6
(dp474
g432
(dp475
g434
(dp476
I0
(lp477
ssg437
(dp478
I0
(lp479
sssg440
(dp480
g442
I10
sg443
I80
sg444
(lp481
sg446
I5
sg447
VMG-Nest
p482
sg449
F0.5
sg450
(lp483
sg452
I20
sg453
I15
sg454
I15
sg455
I100
sg456
I4
sg457
I80
sg458
I35
sg459
Vsoldier
p484
sg461
I6
sg462
I0
sg463
I6
sg464
(dp485
Vnix
p486
(dp487
g423
I0
sg424
g425
sg426
I0
sg427
(lp488
sg429
I-1
sssg473
I10
ssssS'unit_parameters'
p489
(dp490
I0
(dp491
S'elite_parameters'
p492
(dp493
S'ticks'
p494
(dp495
I1000
(lp496
(dp497
S'target'
p498
S'self'
p499
sS'level'
p500
S'id'
p501
sS'type'
p502
S'change'
p503
sS'random'
p504
I0
sS'num_units'
p505
I0
sS'changes'
p506
(dp507
Vlife
p508
I10
sVelite
p509
I1
ssasI500
(lp510
(dp511
g498
g499
sg500
g501
sg502
g503
sg504
I0
sg505
I0
sg506
(dp512
Vlife
p513
I10
sVelite
p514
I1
ssassS'damage'
p515
(dp516
I1000
(lp517
(dp518
S'target'
p519
S'self'
p520
sS'level'
p521
S'id'
p522
sS'type'
p523
S'change'
p524
sS'random'
p525
I0
sS'num_units'
p526
I0
sS'changes'
p527
(dp528
Vshoot_dist
p529
I2
sVmax_life
p530
I8
sVelite
p531
I1
sVattack_max
p532
I11
ssasI500
(lp533
(dp534
g498
g499
sg500
g501
sg502
g503
sg504
I0
sg505
I0
sg506
(dp535
Velite
p536
I1
sVattack_max
p537
I8
ssasI750
(lp538
(dp539
g519
g520
sg521
g522
sg523
g524
sg525
I0
sg526
I0
sg527
(dp540
Vattack_min
p541
I8
sVelite
p542
I1
sVattack_max
p543
I10
ssasssS'basic_parameters'
p544
(dp545
S'delay_walk'
p546
I15
sS'life'
p547
I50
sS'walk_dist'
p548
I5
sS'name'
p549
VSoldat
p550
sS'num_enemies'
p551
I4
sS'attack_min'
p552
I10
sS'delay_shoot'
p553
I15
sS'id'
p554
I0
sS'unit_type'
p555
Vsoldier
p556
sS'max_life'
p557
I50
sS'attack_max'
p558
I20
sS'shoot_dist'
p559
I6
sS'price'
p560
I70
sS'elite'
p561
I0
sS'shield_factor'
p562
F0.5
sS'actions'
p563
(dp564
V3 HG
p565
(dp566
S'delay'
p567
I0
sS'category'
p568
Vequipment
p569
sg132
I70
sg142
(lp570
(dp571
S'target'
p572
S'self'
p573
sS'level'
p574
S'id'
p575
sS'type'
p576
S'change'
p577
sS'random'
p578
I0
sS'num_units'
p579
I0
sS'changes'
p580
(dp581
S'actions'
p582
(dp583
VHG
p584
(dp585
S'delay'
p586
I15
sS'category'
p587
Vstandard
p588
sS'price'
p589
I0
sg582
(lp590
(dp591
g572
Venemy
p592
sg574
Vid
p593
sg576
Vchange
p594
sg578
F0.3
sg579
I3
sg580
(dp595
Vlife
p596
I-10
ssasS'num_uses'
p597
I3
ssssasS'num_uses'
p598
I-1
ssVSchutzweste
p599
(dp600
g251
I0
sg252
Vupgrade
p601
sg240
I30
sg247
(lp602
(dp603
g256
g413
sg258
g239
sg260
g414
sg262
I0
sg263
I0
sg264
(dp604
Vshield
p605
I10
sg247
(dp606
VSchild & wenig heilen
p607
(dp608
g251
I0
sg252
Vupgrade
p609
sg240
I50
sg247
(lp610
(dp611
g256
g413
sg258
g239
sg260
g414
sg262
I0
sg263
I0
sg264
(dp612
Vlife
p613
I15
sVmax_life
p614
I6
sVelite
p615
I1
sVshield
p616
I15
ssasg267
I1
ssssasg267
I1
ssVneue Schuhe
p617
(dp618
g567
I0
sg568
Vupgrade
p619
sg132
I20
sg142
(lp620
(dp621
S'target'
p622
Vself
p623
sS'level'
p624
Vid
p625
sS'type'
p626
Vchange
p627
sS'random'
p628
F0.0
sS'num_units'
p629
F1.0
sS'changes'
p630
(dp631
Vdelay_walk
p632
I-2
sVwalk_dist
p633
I1
sVelite
p634
I1
sg142
(dp635
ssasg598
I1
ssVneue Munition
p636
(dp637
g567
I0
sg568
Vupgrade
p638
sg132
I20
sg142
(lp639
(dp640
g622
S'self'
p641
sg624
g131
sg626
S'change'
p642
sg628
I0
sg629
I0
sg630
(dp643
Vattack_min
p644
I5
sVattack_max
p645
I5
sg142
(dp646
VPanzerbrecher
p647
(dp648
g567
I0
sg568
Vupgrade
p649
sg132
I40
sg142
(lp650
(dp651
g622
g641
sg624
g131
sg626
g642
sg628
I0
sg629
I0
sg630
(dp652
Vshield_factor
p653
F0.15
sVelite
p654
I1
sVattack_max
p655
I10
sg142
(dp656
ssasg598
I1
ssVFlammenwerfer
p657
(dp658
g567
I0
sg568
Vupgrade
p659
sg132
I40
sg142
(lp660
(dp661
g622
g641
sg624
g131
sg626
g642
sg628
I0
sg629
I0
sg630
(dp662
Vnum_enemies
p663
I4
sVattack_min
p664
I10
sVattack_max
p665
I10
ssasg598
I1
ssssasg598
I1
sssS'shield'
p666
I0
sssI1
(dp667
g492
(dp668
g494
(dp669
I1000
(lp670
(dp671
g622
g641
sg624
g131
sg626
g642
sg628
I0
sg629
I0
sg630
(dp672
Vwalk_dist
p673
I1
sVshield
p674
I10
ssassg515
(dp675
I0
(lp676
sssg544
(dp677
g546
I15
sg547
I40
sg548
I5
sg549
VIngenieur
p678
sg551
I1
sg552
I3
sg553
I15
sg554
I1
sg555
Vsoldier
p679
sg557
I40
sg558
I5
sg559
I2
sg560
I100
sg561
I0
sg562
F0.4
sg563
(dp680
VBruecke bauen
p681
(dp682
S'delay'
p683
I50
sS'category'
p684
Vshop
p685
sS'price'
p686
I100
sS'actions'
p687
(lp688
(dp689
S'target'
p690
S'self'
p691
sS'level'
p692
S'id'
p693
sS'type'
p694
S'change'
p695
sS'random'
p696
I0
sS'num_units'
p697
I0
sS'changes'
p698
(dp699
Vlife
p700
I0
ssasS'num_uses'
p701
I-1
ssVMG-Nest
p702
(dp703
S'delay'
p704
I40
sS'category'
p705
Vshop
p706
sS'price'
p707
I70
sS'actions'
p708
(lp709
(dp710
g48
Vnew
p711
sg44
Vown
p712
sS'parameters'
p713
I6
sg46
Vbuildings
p714
sasS'num_uses'
p715
I-1
ssVWerkstatt
p716
(dp717
g280
I60
sg281
Vshop
p718
sg283
I700
sg284
(lp719
(dp720
g291
Vnew
p721
sg287
Vown
p722
sS'parameters'
p723
I3
sg289
Vbuildings
p724
sasg299
I-1
ssVFlugplatz
p725
(dp726
g374
I80
sg375
Vshop
p727
sg377
I1000
sg378
(lp728
(dp729
S'type'
p730
Vnew
p731
sS'target'
p732
Vown
p733
sS'parameters'
p734
I4
sS'level'
p735
Vbuildings
p736
sasg384
I-1
ssVLazarett
p737
(dp738
g374
I50
sg375
Vshop
p739
sg377
I800
sg378
(lp740
(dp741
g730
Vnew
p742
sg732
Vown
p743
sg734
I2
sg735
Vbuildings
p744
sasg384
I-1
ssVKaserne
p745
(dp746
g567
I60
sg568
Vshop
p747
sg132
I600
sg142
(lp748
(dp749
g626
Vnew
p750
sg622
Vown
p751
sS'parameters'
p752
I1
sg624
Vbuildings
p753
sasg598
I-1
ssVKampfingenieur
p754
(dp755
g159
I0
sg160
Vupgrade
p756
sg162
I70
sg163
(lp757
(dp758
g104
g105
sg106
g107
sg108
g109
sg110
I0
sg111
I0
sg112
(dp759
Vattack_min
p760
I10
sVelite
p761
I1
sVattack_max
p762
I15
sg163
(dp763
V4 Granaten
p764
(dp765
g159
I0
sg160
Vequipment
p766
sg162
I70
sg163
(lp767
(dp768
g104
Vself
p769
sg106
Vid
p770
sg108
Vchange
p771
sg110
F0.4
sg111
I3
sg112
(dp772
g163
(dp773
VGranate
p774
(dp775
g159
I10
sg160
Vstandard
p776
sg162
I0
sg163
(lp777
(dp778
g104
Venemy
p779
sg106
Vid
p780
sg108
Vchange
p781
sg110
F0.4
sg111
I3
sg112
(dp782
Vlife
p783
I-20
ssasg194
I4
ssssasg194
I-1
sssVshield
p784
I8
ssasg194
I1
sssg666
I0
sssI2
(dp785
g492
(dp786
g494
(dp787
I0
(lp788
ssg515
(dp789
I500
(lp790
(dp791
S'target'
p792
S'self'
p793
sS'level'
p794
S'id'
p795
sS'type'
p796
S'change'
p797
sS'random'
p798
I0
sS'num_units'
p799
I0
sS'changes'
p800
(dp801
Vattack_min
p802
I10
sVelite
p803
I1
sS'actions'
p804
(dp805
VSchusstraining
p806
(dp807
S'delay'
p808
I0
sS'category'
p809
S'upgrade'
p810
sS'price'
p811
I0
sg804
(lp812
sS'num_uses'
p813
I-1
ssssasssg544
(dp814
g546
I18
sg547
I80
sg548
I5
sg549
VMG-Soldat
p815
sg551
I10
sg552
I20
sg553
I20
sg554
I2
sg555
Vsoldier
p816
sg557
I80
sg558
I60
sg559
I7
sg560
I175
sg561
I0
sg562
F0.55
sg563
(dp817
Vbessere Munition
p818
(dp819
g159
I0
sg160
Vupgrade
p820
sg162
I40
sg163
(lp821
(dp822
g104
g105
sg106
g107
sg108
g109
sg110
I0
sg111
I0
sg112
(dp823
Vattack_min
p824
I10
sVattack_max
p825
I5
sg163
(dp826
VPanzerbrecher
p827
(dp828
g159
V0.0
p829
sg160
Vupgrade
p830
sg162
V60.0
p831
sg163
(lp832
(dp833
g104
g105
sg106
g107
sg108
g109
sg110
I0
sg111
I0
sg112
(dp834
Vshield_factor
p835
F0.1
sVelite
p836
I1
sVattack_max
p837
I15
sg163
(dp838
VBazooka
p839
(dp840
g159
I0
sg160
Vupgrade
p841
sg162
I80
sg163
(lp842
(dp843
g104
g105
sg106
g107
sg108
g109
sg110
I0
sg111
I0
sg112
(dp844
Vshield_factor
p845
F0.15
sVattack_min
p846
I15
sVelite
p847
I1
sVnum_enemies
p848
I2
sVattack_max
p849
I10
ssasg194
I1
ssssasg194
V1.0
p850
ssssasg194
I1
ssVKampfausbildung
p851
(dp852
S'delay'
p853
I0
sS'category'
p854
Vupgrade
p855
sS'price'
p856
I40
sS'actions'
p857
(lp858
(dp859
S'target'
p860
S'self'
p861
sS'level'
p862
S'id'
p863
sS'type'
p864
S'change'
p865
sS'random'
p866
I0
sS'num_units'
p867
I0
sS'changes'
p868
(dp869
Vshoot_dist
p870
I1
sVelite
p871
I1
sVdelay_shoot
p872
I-5
ssasS'num_uses'
p873
I1
ssVSpeed I
p874
(dp875
g374
I0
sg375
Vupgrade
p876
sg377
I40
sg378
(lp877
(dp878
g104
g105
sg106
g107
sg108
g109
sg110
I0
sg111
I0
sg112
(dp879
Vdelay_walk
p880
I-5
sVelite
p881
I1
sg163
(dp882
VSpeed II
p883
(dp884
g159
I0
sg160
Vupgrade
p885
sg162
I50
sg163
(lp886
(dp887
g104
g105
sg106
g107
sg108
g109
sg110
I0
sg111
I0
sg112
(dp888
Vdelay_walk
p889
I-5
sVwalk_dist
p890
I1
sVelite
p891
I1
sVdelay_shoot
p892
I-3
ssasg194
I1
ssssasg384
I1
sssg666
I20
sssI3
(dp893
g492
(dp894
g494
(dp895
I200
(lp896
(dp897
g204
g205
sg206
g207
sg208
g209
sg210
I0
sg211
I0
sg212
(dp898
Vattack_min
p899
I10
sVelite
p900
I1
sVshield
p901
I8
ssasI500
(lp902
(dp903
g204
g205
sg206
g207
sg208
g209
sg210
I0
sg211
I0
sg212
(dp904
Vshield_factor
p905
F0.07
sVattack_min
p906
I8
sVelite
p907
I1
sVattack_max
p908
I14
ssassg515
(dp909
I0
(lp910
sI250
(lp911
(dp912
g287
g288
sg289
g290
sg291
g292
sg293
I0
sg294
I0
sg295
(dp913
Vattack_min
p914
I10
sVelite
p915
I1
sVattack_max
p916
I5
sg284
(dp917
Vschneller laden
p918
(dp919
g280
I0
sg281
Vupgrade
p920
sg283
I50
sg284
(lp921
(dp922
g287
g288
sg289
g290
sg291
g292
sg293
I0
sg294
I0
sg295
(dp923
Vdelay_shoot
p924
I-4
ssasg299
I1
ssssasssg544
(dp925
g546
I15
sg547
I50
sg548
I5
sg549
VSniper
p926
sg551
I1
sg552
I40
sg553
I20
sg554
I3
sg555
Vsoldier
p927
sg557
I50
sg558
I60
sg559
I10
sg560
I200
sg561
I0
sg562
F0.6
sg563
(dp928
VSchutzweste
p929
(dp930
g197
I0
sg198
Vupgrade
p931
sg200
I40
sg201
(lp932
(dp933
g204
g205
sg206
g207
sg208
g209
sg210
I0
sg211
I0
sg212
(dp934
Vlife
p935
I15
sVmax_life
p936
I10
sVshield
p937
I10
ssasg216
I1
ssVSpeed I (ziehen und laden)
p938
(dp939
g197
I0
sg198
Vupgrade
p940
sg200
I30
sg201
(lp941
(dp942
g204
g205
sg206
g207
sg208
g209
sg210
I0
sg211
I0
sg212
(dp943
Vwalk_dist
p944
I1
sVelite
p945
I1
sVdelay_shoot
p946
I-2
ssasg216
I1
ssVhoehere Schussweite
p947
(dp948
S'delay'
p949
I0
sS'category'
p950
Vupgrade
p951
sS'price'
p952
I40
sS'actions'
p953
(lp954
(dp955
S'target'
p956
S'self'
p957
sS'level'
p958
S'id'
p959
sS'type'
p960
S'change'
p961
sS'random'
p962
I0
sS'num_units'
p963
I0
sS'changes'
p964
(dp965
Vshoot_dist
p966
I1
sVelite
p967
I1
sg953
(dp968
VDistanzexperte
p969
(dp970
g949
I0
sg950
Vupgrade
p971
sg952
I50
sg953
(lp972
(dp973
g956
g957
sg958
g959
sg960
g961
sg962
I0
sg963
I0
sg964
(dp974
Vshoot_dist
p975
I1
sVattack_min
p976
I8
sVelite
p977
I1
sg953
(dp978
ssasS'num_uses'
p979
I1
ssssasg979
I1
ssVPraezision
p980
(dp981
S'delay'
p982
I0
sS'category'
p983
Vupgrade
p984
sS'price'
p985
I30
sg419
(lp986
(dp987
S'target'
p988
S'self'
p989
sS'level'
p990
S'id'
p991
sS'type'
p992
S'change'
p993
sS'random'
p994
I0
sS'num_units'
p995
I0
sS'changes'
p996
(dp997
Vattack_min
p998
I15
sVelite
p999
I1
sVattack_max
p1000
I8
sg284
(dp1001
Vbessere Munition
p1002
(dp1003
g280
I0
sg281
Vupgrade
p1004
sg283
I40
sg284
(lp1005
(dp1006
g287
g288
sg289
g290
sg291
g292
sg293
I0
sg294
I0
sg295
(dp1007
Vshield_factor
p1008
F0.05
sVattack_min
p1009
I15
sVelite
p1010
I1
sVattack_max
p1011
I10
sg284
(dp1012
VSchildzerstoerer
p1013
(dp1014
g280
I0
sg281
Vupgrade
p1015
sg283
I30
sg284
(lp1016
(dp1017
g287
g288
sg289
g290
sg291
g292
sg293
I0
sg294
I0
sg295
(dp1018
Vshield_factor
p1019
F0.2
sVelite
p1020
I1
sVattack_max
p1021
I8
ssasg299
I1
ssssasg299
I1
ssVDoppelschuss
p1022
(dp1023
g949
I0
sg950
Vupgrade
p1024
sg952
I60
sg953
(lp1025
(dp1026
g956
g957
sg958
g959
sg960
g961
sg962
I0
sg963
I0
sg964
(dp1027
Vnum_enemies
p1028
I1
sVattack_min
p1029
I8
sVelite
p1030
I1
sVattack_max
p1031
I15
ssasg979
I1
ssssasS'num_uses'
p1032
I1
sssg666
I0
sssI4
(dp1033
g492
(dp1034
g494
(dp1035
I0
(lp1036
sI200
(lp1037
(dp1038
g204
g205
sg206
g207
sg208
g209
sg210
I0
sg211
I0
sg212
(dp1039
Vdelay_walk
p1040
I-4
sVelite
p1041
I1
sVdelay_shoot
p1042
I-3
ssasI450
(lp1043
(dp1044
g204
g205
sg206
g207
sg208
g209
sg210
I0
sg211
I0
sg212
(dp1045
Vdelay_walk
p1046
I-4
sVelite
p1047
I1
sVshield
p1048
I50
ssassg515
(dp1049
I500
(lp1050
(dp1051
g204
g205
sg206
g207
sg208
g209
sg210
I0
sg211
I0
sg212
(dp1052
Vshield_factor
p1053
F0.07
sVattack_min
p1054
I10
sVelite
p1055
I1
sVattack_max
p1056
I5
ssasssg544
(dp1057
g546
I20
sg547
I100
sg548
I5
sg549
VPanzer
p1058
sg551
I8
sg552
I50
sg553
I18
sg554
I4
sg555
Vvehicle
p1059
sg557
I100
sg558
I90
sg559
I8
sg560
I400
sg561
I0
sg562
F0.6
sg563
(dp1060
VHartkernmunition
p1061
(dp1062
S'delay'
p1063
I0
sS'category'
p1064
Vupgrade
p1065
sS'price'
p1066
I30
sS'actions'
p1067
(lp1068
(dp1069
S'target'
p1070
Vself
p1071
sS'level'
p1072
Vid
p1073
sS'type'
p1074
Vchange
p1075
sS'random'
p1076
F0.0
sS'num_units'
p1077
I0
sS'changes'
p1078
(dp1079
Vshield_factor
p1080
F0.15
sVelite
p1081
I1
sVattack_max
p1082
I8
sS'actions'
p1083
(dp1084
VUrangeschoss
p1085
(dp1086
S'delay'
p1087
I0
sS'category'
p1088
Vupgrade
p1089
sS'price'
p1090
I80
sg1083
(lp1091
(dp1092
S'target'
p1093
Vself
p1094
sS'level'
p1095
Vid
p1096
sS'type'
p1097
Vchange
p1098
sS'random'
p1099
F0.0
sS'num_units'
p1100
I0
sS'changes'
p1101
(dp1102
Vshield_factor
p1103
F0.2
sVattack_min
p1104
I15
sVelite
p1105
I1
sVattack_max
p1106
I15
ssasS'num_uses'
p1107
I1
ssssasS'num_uses'
p1108
I1
ssVSpeed I
p1109
(dp1110
g374
I0
sg375
Vupgrade
p1111
sg377
I20
sg378
(lp1112
(dp1113
g1070
S'self'
p1114
sg1072
S'id'
p1115
sg1074
S'change'
p1116
sg1076
I0
sg1077
I0
sg1078
(dp1117
Vdelay_walk
p1118
I-3
sg1067
(dp1119
VSpeed II
p1120
(dp1121
g1063
I0
sg1064
Vupgrade
p1122
sg1066
I50
sg1067
(lp1123
(dp1124
g1070
g1114
sg1072
g1115
sg1074
g1116
sg1076
I0
sg1077
I0
sg1078
(dp1125
Vdelay_walk
p1126
I-5
sVwalk_dist
p1127
I1
sVelite
p1128
I1
ssasg1108
I1
ssssasg384
I1
sssg666
I150
sssI5
(dp1129
g492
(dp1130
g494
(dp1131
I0
(lp1132
sI500
(lp1133
(dp1134
S'target'
p1135
S'self'
p1136
sS'level'
p1137
S'id'
p1138
sS'type'
p1139
S'change'
p1140
sS'random'
p1141
I0
sS'num_units'
p1142
I0
sS'changes'
p1143
(dp1144
Vmax_life
p1145
F10.0
ssassg515
(dp1146
I0
(lp1147
sssg544
(dp1148
g546
I15
sg547
I100
sg548
I5
sg549
VArtillerie
p1149
sg551
I10
sg552
I0
sg553
I40
sg554
I5
sg555
Vvehicle
p1150
sg557
I100
sg558
I0
sg559
I10
sg560
I800
sg561
I0
sg562
F0.5
sg563
(dp1151
Vgroessere Schussweite I
p1152
(dp1153
g1063
I0
sg1064
Vupgrade
p1154
sg1066
I30
sg1067
(lp1155
(dp1156
g1070
g1114
sg1072
g1115
sg1074
g1116
sg1076
I0
sg1077
I0
sg1078
(dp1157
Vshoot_dist
p1158
I1
sVelite
p1159
I1
sg355
(dp1160
Vgroessere Schussweite II
p1161
(dp1162
g351
I0
sg352
Vupgrade
p1163
sg354
I30
sg355
(lp1164
(dp1165
g358
g359
sg360
g361
sg362
g363
sg364
I0
sg365
I0
sg366
(dp1166
Vshoot_dist
p1167
I1
sVelite
p1168
I1
ssasg371
I1
ssVStreuung erhoehen
p1169
(dp1170
g351
I0
sg352
Vupgrade
p1171
sg354
I40
sg355
(lp1172
(dp1173
g358
g359
sg360
g361
sg362
g363
sg364
I0
sg365
I0
sg366
(dp1174
Vnum_enemies
p1175
I5
sVattack_min
p1176
I15
sVelite
p1177
I1
ssasg371
I1
ssssasg1108
I1
ssVAufbauen
p1178
(dp1179
S'delay'
p1180
I25
sS'category'
p1181
Vstandard
p1182
sS'price'
p1183
I0
sS'actions'
p1184
(lp1185
(dp1186
S'target'
p1187
S'self'
p1188
sS'level'
p1189
S'id'
p1190
sS'type'
p1191
S'change'
p1192
sS'random'
p1193
I0
sS'num_units'
p1194
I0
sS'changes'
p1195
(dp1196
Vattack_min
p1197
I100
sVwalk_dist
p1198
I-5
sVattack_max
p1199
I200
sg1184
(dp1200
VTransport
p1201
(dp1202
S'delay'
p1203
I30
sS'category'
p1204
Vequipment
p1205
sS'price'
p1206
I0
sS'actions'
p1207
(lp1208
(dp1209
S'target'
p1210
S'self'
p1211
sS'level'
p1212
S'id'
p1213
sS'type'
p1214
S'change'
p1215
sS'random'
p1216
I0
sS'num_units'
p1217
I0
sS'changes'
p1218
(dp1219
Vattack_min
p1220
I-100
sVwalk_dist
p1221
I5
sVattack_max
p1222
I-200
sg1207
(dp1223
VAufbau
p1224
(dp1225
g1203
I25
sg1204
Vstandard
p1226
sg1206
I0
sg1207
(lp1227
(dp1228
g1210
g1211
sg1212
g1213
sg1214
g1215
sg1216
I0
sg1217
I0
sg1218
(dp1229
Vattack_min
p1230
I100
sVattack_max
p1231
I200
sVwalk_dist
p1232
I-5
ssasS'num_uses'
p1233
I1
ssssasg1233
I-1
ssssasS'num_uses'
p1234
I1
ssVSpeed I
p1235
(dp1236
g374
I0
sg375
Vupgrade
p1237
sg377
I80
sg378
(lp1238
(dp1239
g358
g359
sg360
g361
sg362
g363
sg364
I0
sg365
I0
sg366
(dp1240
Vdelay_walk
p1241
I-8
sVelite
p1242
I1
sVdelay_shoot
p1243
I-10
sg355
(dp1244
VSpeed II
p1245
(dp1246
g351
I0
sg352
Vupgrade
p1247
sg354
I50
sg355
(lp1248
(dp1249
g358
g359
sg360
g361
sg362
g363
sg364
I0
sg365
I0
sg366
(dp1250
Vdelay_walk
p1251
I-8
sVelite
p1252
I1
sVdelay_shoot
p1253
I-10
ssasg371
I1
ssssasg384
I1
sssg666
I70
sssI6
(dp1254
S'elite_parameters'
p1255
(dp1256
S'ticks'
p1257
(dp1258
I200
(lp1259
(dp1260
g204
g205
sg206
g207
sg208
g209
sg210
I0
sg211
I0
sg212
(dp1261
Vlife
p1262
I100
sVmax_life
p1263
I8
sVelite
p1264
I1
ssasI500
(lp1265
(dp1266
g204
g205
sg206
g207
sg208
g209
sg210
I0
sg211
I0
sg212
(dp1267
Vlife
p1268
I100
sVmax_life
p1269
I10
sVelite
p1270
I1
sVshield
p1271
I10
ssassS'damage'
p1272
(dp1273
I0
(lp1274
sssS'basic_parameters'
p1275
(dp1276
S'delay_walk'
p1277
I15
sS'life'
p1278
I50
sS'walk_dist'
p1279
I5
sS'name'
p1280
VArzt
p1281
sS'num_enemies'
p1282
I3
sS'attack_min'
p1283
I0
sS'delay_shoot'
p1284
I15
sg795
I6
sS'unit_type'
p1285
Vsoldier
p1286
sS'max_life'
p1287
I50
sS'attack_max'
p1288
I0
sS'shoot_dist'
p1289
I5
sg811
I120
sS'elite'
p1290
I0
sS'shield_factor'
p1291
F0.4
sg804
(dp1292
VMedipack
p1293
(dp1294
g280
I0
sg281
Vshop
p1295
sg283
I60
sg284
(lp1296
(dp1297
g287
g288
sg289
g290
sg291
g292
sg293
I0
sg294
I0
sg295
(dp1298
g284
(dp1299
VSchmerzmittel
p1300
(dp1301
g280
I0
sg281
Vstandard
p1302
sg283
I0
sg284
(lp1303
(dp1304
g287
Vself
p1305
sg289
Vid
p1306
sg291
Vchange
p1307
sg293
F0.3
sg294
I0
sg295
(dp1308
Vlife
p1309
I30
ssasg299
I4
ssssasg299
I-1
ssVSchild-Mech
p1310
(dp1311
g280
I0
sg281
Vupgrade
p1312
sg283
I80
sg284
(lp1313
(dp1314
S'target'
p1315
S'self'
p1316
sS'level'
p1317
S'id'
p1318
sS'type'
p1319
S'change'
p1320
sS'random'
p1321
I0
sS'num_units'
p1322
I0
sS'changes'
p1323
(dp1324
S'actions'
p1325
(dp1326
VSchild reparieren
p1327
(dp1328
S'delay'
p1329
I20
sS'category'
p1330
Vstandard
p1331
sS'price'
p1332
I50
sg1325
(lp1333
(dp1334
g1315
Vown
p1335
sg1317
Vid
p1336
sg1319
Vchange
p1337
sg1321
F0.3
sg1322
I2
sg1323
(dp1338
Vshield
p1339
I15
ssasS'num_uses'
p1340
I-1
ssssasg299
I1
ssVFeldapotheke (andere)
p1341
(dp1342
g280
I0
sg281
Vshop
p1343
sg283
I60
sg284
(lp1344
(dp1345
g287
Vself
p1346
sg289
Vid
p1347
sg291
Vchange
p1348
sg293
F0.0
sg294
I0
sg295
(dp1349
g284
(dp1350
VPflaster
p1351
(dp1352
g280
I0
sg281
Vstandard
p1353
sg283
I0
sg284
(lp1354
(dp1355
g287
Vown
p1356
sg289
Vid
p1357
sg291
Vchange
p1358
sg293
F0.3
sg294
I3
sg295
(dp1359
Vlife
p1360
I10
ssasg299
I3
ssssasg299
I-1
ssVSpeed I
p1361
(dp1362
g280
I0
sg281
Vupgrade
p1363
sg283
I30
sg284
(lp1364
(dp1365
g287
g288
sg289
g290
sg291
g292
sg293
I0
sg294
I0
sg295
(dp1366
Vwalk_dist
p1367
I1
sVelite
p1368
I1
sg284
(dp1369
VSpeed II
p1370
(dp1371
g280
I0
sg281
Vupgrade
p1372
sg283
I50
sg284
(lp1373
(dp1374
g287
g288
sg289
g290
sg291
g292
sg293
I0
sg294
I0
sg295
(dp1375
Vdelay_walk
p1376
I-4
sVwalk_dist
p1377
I2
sVelite
p1378
I1
ssasg299
I1
ssssasg299
I1
sssS'shield'
p1379
I10
sssI7
(dp1380
S'elite_parameters'
p1381
(dp1382
S'ticks'
p1383
(dp1384
I0
(lp1385
ssS'damage'
p1386
(dp1387
I0
(lp1388
sssS'basic_parameters'
p1389
(dp1390
S'delay_walk'
p1391
I15
sS'life'
p1392
I60
sS'walk_dist'
p1393
I5
sS'name'
p1394
VCyborg
p1395
sS'num_enemies'
p1396
I5
sS'attack_min'
p1397
I20
sS'delay_shoot'
p1398
I15
sg207
I7
sS'unit_type'
p1399
Vsoldier
p1400
sS'max_life'
p1401
I60
sS'attack_max'
p1402
I35
sS'shoot_dist'
p1403
I7
sg200
I120
sS'elite'
p1404
I0
sS'shield_factor'
p1405
F0.6
sg201
(dp1406
VSpeed I
p1407
(dp1408
S'delay'
p1409
I0
sS'category'
p1410
S'upgrade'
p1411
sS'price'
p1412
I0
sS'actions'
p1413
(lp1414
sS'num_uses'
p1415
I-1
sssS'shield'
p1416
I40
sssI8
(dp1417
S'elite_parameters'
p1418
(dp1419
S'ticks'
p1420
(dp1421
I0
(lp1422
sI250
(lp1423
(dp1424
S'target'
p1425
S'self'
p1426
sS'level'
p1427
S'id'
p1428
sS'type'
p1429
S'change'
p1430
sS'random'
p1431
I0
sS'num_units'
p1432
I0
sS'changes'
p1433
(dp1434
Vlife
p1435
I20
sVelite
p1436
I1
sVshield
p1437
I5
ssasI500
(lp1438
(dp1439
g1425
g1426
sg1427
g1428
sg1429
g1430
sg1431
I0
sg1432
I0
sg1433
(dp1440
Vlife
p1441
I100
sVmax_life
p1442
I10
sVelite
p1443
I1
sVshield
p1444
I5
ssassS'damage'
p1445
(dp1446
I0
(lp1447
sI500
(lp1448
sssS'basic_parameters'
p1449
(dp1450
S'delay_walk'
p1451
I15
sS'life'
p1452
I70
sS'walk_dist'
p1453
I5
sS'name'
p1454
VKommandant
p1455
sS'num_enemies'
p1456
I4
sS'attack_min'
p1457
I20
sS'delay_shoot'
p1458
I15
sg47
I8
sS'unit_type'
p1459
Vsoldier
p1460
sS'max_life'
p1461
I70
sS'attack_max'
p1462
I30
sS'shoot_dist'
p1463
I6
sg707
I250
sS'elite'
p1464
I4
sS'shield_factor'
p1465
F0.6
sg708
(dp1466
VLuftunterstuetzung
p1467
(dp1468
g704
I100
sg705
Vstandard
p1469
sg707
I150
sg708
(lp1470
(dp1471
g44
Venemy
p1472
sg46
Vid
p1473
sg48
Vchange
p1474
sg50
F0.6
sg51
I8
sg52
(dp1475
Vlife
p1476
I-10
sVshield
p1477
I-15
ssasg715
I-1
ssVDrill Sergent
p1478
(dp1479
S'delay'
p1480
I0
sS'category'
p1481
Vupgrade
p1482
sS'price'
p1483
I60
sS'actions'
p1484
(lp1485
(dp1486
S'target'
p1487
Vown
p1488
sS'level'
p1489
Vid
p1490
sS'type'
p1491
Vchange
p1492
sS'random'
p1493
F0.0
sS'num_units'
p1494
I0
sS'changes'
p1495
(dp1496
Vattack_min
p1497
I10
sVattack_max
p1498
I8
sVdelay_shoot
p1499
I-3
ssasS'num_uses'
p1500
I-1
ssVSpionageausbildung
p1501
(dp1502
S'delay'
p1503
I0
sS'category'
p1504
Vupgrade
p1505
sS'price'
p1506
I170
sS'actions'
p1507
(lp1508
(dp1509
S'target'
p1510
S'self'
p1511
sS'level'
p1512
S'id'
p1513
sS'type'
p1514
S'change'
p1515
sS'random'
p1516
I0
sS'num_units'
p1517
I0
sS'changes'
p1518
(dp1519
Velite
p1520
I1
sg1507
(dp1521
VWirtschafts-Spionage
p1522
(dp1523
g1503
I40
sg1504
Vupgrade
p1524
sg1506
I80
sg1507
(lp1525
(dp1526
g1510
g1511
sg1512
g1513
sg1514
g1515
sg1516
I0
sg1517
I0
sg1518
(dp1527
g1507
(dp1528
VDieb
p1529
(dp1530
g1503
I60
sg1504
Vequipment
p1531
sg1506
I200
sg1507
(lp1532
(dp1533
g1514
Vchange
p1534
sg1516
F0.5
sg1518
(dp1535
Vaccount
p1536
I-150
ssg1510
Venemy
p1537
sg1512
Vplayer
p1538
sa(dp1539
g1514
Vchange
p1540
sg1516
F0.7
sg1518
(dp1541
Vaccount
p1542
I80
ssg1510
Vown
p1543
sg1512
Vplayer
p1544
sasS'num_uses'
p1545
I-1
ssssasg1545
I-1
ssVID-Spionage
p1546
(dp1547
g1503
I40
sg1504
Vequipment
p1548
sg1506
I100
sg1507
(lp1549
sg1545
I-1
ssssasg1545
I1
sssS'shield'
p1550
I10
sssI9
(dp1551
S'elite_parameters'
p1552
(dp1553
S'ticks'
p1554
(dp1555
I0
(lp1556
ssS'damage'
p1557
(dp1558
I0
(lp1559
sssS'basic_parameters'
p1560
(dp1561
S'delay_walk'
p1562
I0
sS'life'
p1563
I100
sS'walk_dist'
p1564
I0
sS'name'
p1565
VFlak
p1566
sS'num_enemies'
p1567
I3
sS'attack_min'
p1568
I60
sS'delay_shoot'
p1569
I15
sS'id'
p1570
I9
sS'unit_type'
p1571
Vvehicle
p1572
sS'max_life'
p1573
I100
sS'attack_max'
p1574
I80
sS'shoot_dist'
p1575
I5
sS'price'
p1576
I200
sS'elite'
p1577
I0
sS'shield_factor'
p1578
F0.6
sS'actions'
p1579
(dp1580
Vnix
p1581
(dp1582
S'delay'
p1583
I0
sS'category'
p1584
S'upgrade'
p1585
sg1576
I0
sg1579
(lp1586
sS'num_uses'
p1587
I-1
sssS'shield'
p1588
I0
sssI10
(dp1589
S'elite_parameters'
p1590
(dp1591
S'ticks'
p1592
(dp1593
I0
(lp1594
ssS'damage'
p1595
(dp1596
I0
(lp1597
sssS'basic_parameters'
p1598
(dp1599
S'delay_walk'
p1600
I11
sS'life'
p1601
I40
sS'walk_dist'
p1602
I6
sS'name'
p1603
VMotorrad
p1604
sS'num_enemies'
p1605
I4
sS'attack_min'
p1606
I5
sS'delay_shoot'
p1607
I15
sS'id'
p1608
I10
sS'unit_type'
p1609
Vvehicle
p1610
sS'max_life'
p1611
I40
sS'attack_max'
p1612
I10
sS'shoot_dist'
p1613
I5
sg1483
I40
sS'elite'
p1614
I0
sS'shield_factor'
p1615
F0.45
sg1484
(dp1616
VSchutzweste
p1617
(dp1618
g1480
I0
sg1481
Vupgrade
p1619
sg1483
I30
sg1484
(lp1620
(dp1621
g1487
S'self'
p1622
sg1489
g1608
sg1491
S'change'
p1623
sg1493
I0
sg1494
I0
sg1495
(dp1624
Vshield
p1625
I8
ssasg1500
I1
ssVneue Reifen
p1626
(dp1627
g1480
I0
sg1481
Vupgrade
p1628
sg1483
I20
sg1484
(lp1629
(dp1630
g1487
g1622
sg1489
g1608
sg1491
g1623
sg1493
I0
sg1494
I0
sg1495
(dp1631
Vwalk_dist
p1632
I1
sVelite
p1633
I1
sg1484
(dp1634
Vleichteres Motorrad
p1635
(dp1636
g1480
I0
sg1481
Vupgrade
p1637
sg1483
I20
sg1484
(lp1638
(dp1639
g1487
g1622
sg1489
g1608
sg1491
g1623
sg1493
I0
sg1494
I0
sg1495
(dp1640
Vdelay_walk
p1641
I-1
sVwalk_dist
p1642
I1
sVelite
p1643
I1
ssasg1500
I1
ssssasg1500
I1
ssVDrive by lernen
p1644
(dp1645
g1480
I0
sg1481
Vupgrade
p1646
sg1483
I30
sg1484
(lp1647
(dp1648
g1487
g1622
sg1489
g1608
sg1491
g1623
sg1493
I0
sg1494
I0
sg1495
(dp1649
Vattack_min
p1650
I7
sVelite
p1651
I1
sVattack_max
p1652
I5
ssasg1500
I1
sssS'shield'
p1653
I0
ssssS'engine_parameters'
p1654
(dp1655
S'max_victory_diff'
p1656
F100.0
sS'start_account'
p1657
F100000.0
sS'all_sectors'
p1658
(dp1659
I1
(dp1660
S'victory'
p1661
I0
sS'weight'
p1662
F1.0
ssI2
(dp1663
g1661
I1
sg1662
F1.0
ssI3
(dp1664
g1661
I0
sg1662
F1.0
ssI4
(dp1665
g1661
I0
sg1662
F1.0
ssI5
(dp1666
g1661
I5
sg1662
F1.0
ssI6
(dp1667
g1661
I0
sg1662
F1.0
ssI7
(dp1668
g1661
I0
sg1662
F1.0
ssI8
(dp1669
g1661
I0
sg1662
F1.0
ssI9
(dp1670
g1661
I0
sg1662
F1.0
ssI10
(dp1671
g1661
I0
sg1662
F1.0
ssI11
(dp1672
g1661
I0
sg1662
F1.0
ssI12
(dp1673
g1661
I0
sg1662
F1.0
ssI13
(dp1674
g1661
I0
sg1662
F1.0
ssI14
(dp1675
g1661
I0
sg1662
F1.0
ssI15
(dp1676
g1661
I0
sg1662
F1.0
ssI16
(dp1677
g1661
I0
sg1662
F1.0
ssI17
(dp1678
g1661
I0
sg1662
F1.0
ssI18
(dp1679
g1661
I0
sg1662
F1.0
ssI19
(dp1680
g1661
I0
sg1662
F1.0
ssI20
(dp1681
g1661
I0
sg1662
F1.0
ssI21
(dp1682
g1661
I0
sg1662
F1.0
ssI22
(dp1683
g1661
I0
sg1662
F1.0
sssS'delay_damage'
p1684
F0.5
sS'extra_shoot_dist'
p1685
F2.0
sS'per_sector_per_tick'
p1686
F1.0
sS'take_over_factor'
p1687
F1.3
sS'tick_duration'
p1688
F11.0
sS'protection_effect'
p1689
F0.4
sS'protection_in'
p1690
F18.0
sS'sector_takeover'
p1691
F200.0
sS'protection_out'
p1692
F10.0
sS'constant_per_tick'
p1693
F4.0
ssS'transport_parameters'
p1694
(dp1695
I0
(dp1696
g98
(dp1697
g100
(dp1698
I0
(lp1699
ssg115
(dp1700
I0
(lp1701
sssg118
(dp1702
S'delay_walk'
p1703
I15
sg120
I100
sS'walk_dist'
p1704
I10
sg123
I10
sg124
VTransporter
p1705
sS'transports'
p1706
Vsoldier
p1707
sg141
F0.4
sg128
I0
sg129
I25
sg130
I20
sg135
I20
sg132
I200
sg133
I4
sg136
I7
sg217
I0
sg139
I5
sg140
I0
sg131
I0
sg142
(dp1708
VPanzerung
p1709
(dp1710
S'delay'
p1711
I30
sS'category'
p1712
Vupgrade
p1713
sS'price'
p1714
I60
sS'actions'
p1715
(lp1716
(dp1717
g498
g499
sg500
g501
sg502
g503
sg504
I0
sg505
I0
sg506
(dp1718
Vdelay_walk
p1719
I3
sVelite
p1720
I1
sVshield
p1721
I50
sg1715
(dp1722
VCasspir
p1723
(dp1724
g1711
I0
sg1712
Vupgrade
p1725
sg1714
I90
sg1715
(lp1726
(dp1727
g498
g499
sg500
g501
sg502
g503
sg504
I0
sg505
I0
sg506
(dp1728
Vdelay_walk
p1729
I-5
sVelite
p1730
I1
sVshield
p1731
I75
ssasS'num_uses'
p1732
I1
ssssasg1732
I1
ssVMG
p1733
(dp1734
g1711
I0
sg1712
Vupgrade
p1735
sg1714
I40
sg1715
(lp1736
(dp1737
g498
Vself
p1738
sg500
Vid
p1739
sg502
Vchange
p1740
sg504
F0.0
sg505
I0
sg506
(dp1741
Vattack_min
p1742
I25
sVelite
p1743
I1
sVattack_max
p1744
I50
sg1715
(dp1745
VKampfmaschine
p1746
(dp1747
g1711
I0
sg1712
Vupgrade
p1748
sg1714
I80
sg1715
(lp1749
(dp1750
g498
g499
sg500
g501
sg502
g503
sg504
I0
sg505
I0
sg506
(dp1751
Vshield_factor
p1752
F0.2
sVattack_min
p1753
I30
sVelite
p1754
I1
sVattack_max
p1755
I30
ssasg1732
I1
ssssasg1732
I1
ssVmehr Platz I
p1756
(dp1757
g1711
I0
sg1712
Vupgrade
p1758
sg1714
I70
sg1715
(lp1759
(dp1760
g498
g499
sg500
g501
sg502
g503
sg504
I0
sg505
I0
sg506
(dp1761
Velite
p1762
I1
sVcapacity
p1763
I5
sg1715
(dp1764
Vmehr Platz II
p1765
(dp1766
g1711
I0
sg1712
Vupgrade
p1767
sg1714
I50
sg1715
(lp1768
(dp1769
g498
g499
sg500
g501
sg502
g503
sg504
I0
sg505
I0
sg506
(dp1770
Velite
p1771
I1
sVcapacity
p1772
I5
ssasg1732
I1
ssssasg1732
I1
sssg134
I100
sssI1
(dp1773
g219
(dp1774
g221
(dp1775
I0
(lp1776
ssg224
(dp1777
I0
(lp1778
sssg227
(dp1779
S'delay_walk'
p1780
I15
sg229
I100
sS'walk_dist'
p1781
I10
sg232
I10
sg233
VHelikopter
p1782
sS'transports'
p1783
Vsoldier
p1784
sg235
F0.4
sg236
I0
sg237
I50
sg238
I20
sg242
I30
sg240
I200
sg313
I4
sg243
I10
sg314
I0
sg246
I6
sg310
I0
sg239
I1
sg247
(dp1785
VBombe abwerfen
p1786
(dp1787
g251
I0
sg252
Vstandard
p1788
sg240
I80
sg247
(lp1789
(dp1790
g256
Venemy
p1791
sg258
Vid
p1792
sg260
Vchange
p1793
sg262
F0.3
sg263
I7
sg264
(dp1794
Vlife
p1795
I6
sg247
(dp1796
ssasg267
I-1
sssg241
I100
sssI2
(dp1797
S'elite_parameters'
p1798
(dp1799
S'ticks'
p1800
(dp1801
I0
(lp1802
ssS'damage'
p1803
(dp1804
I0
(lp1805
sssS'basic_parameters'
p1806
(dp1807
S'delay_walk'
p1808
I18
sS'life'
p1809
I150
sS'walk_dist'
p1810
I9
sS'capacity'
p1811
I3
sS'name'
p1812
VFahrzeug Transporter
p1813
sS'delay_out'
p1814
I15
sS'elite'
p1815
I0
sS'shield_factor'
p1816
F0.4
sS'attack_min'
p1817
I0
sS'delay_shoot'
p1818
I15
sg338
I2
sg331
I300
sS'num_enemies'
p1819
I4
sS'max_life'
p1820
I150
sS'attack_max'
p1821
I0
sS'shoot_dist'
p1822
I5
sS'transports'
p1823
Vvehicle
p1824
sS'delay_in'
p1825
I25
sg332
(dp1826
Vmehr Platz
p1827
(dp1828
g328
I0
sg329
Vupgrade
p1829
sg331
I50
sg332
(lp1830
(dp1831
g335
g336
sg337
g338
sg339
g340
sg341
I0
sg342
I0
sg343
(dp1832
Vcapacity
p1833
I2
ssasg348
I1
sssS'shield'
p1834
I20
ssssS'card_parameters'
p1835
(dp1836
I200
(lp1837
(dp1838
S'description'
p1839
VEine Gruppe kann in einen Helikopter verladen werden und deshalb 10 pro Runde ziehen.
p1840
sS'num_cards'
p1841
I10
sg1715
(lp1842
sS'title'
p1843
VHelitransport
p1844
sa(dp1845
S'title'
p1846
VGiftgas
p1847
sS'description'
p1848
VAlle Einheiten werden verwundet. Gegnerische staerker als eigene
p1849
sg953
(lp1850
(dp1851
S'target'
p1852
S'enemy'
p1853
sS'level'
p1854
S'id'
p1855
sS'type'
p1856
S'change'
p1857
sS'random'
p1858
F0.3
sS'num_units'
p1859
S'all'
p1860
sS'changes'
p1861
(dp1862
Vlife
p1863
I-8
ssa(dp1864
g1852
Vown
p1865
sg1854
Vid
p1866
sg1856
Vchange
p1867
sg1858
F0.3
sg1859
Vall
p1868
sg1861
(dp1869
Vlife
p1870
I-2
ssasS'num_cards'
p1871
I7
sa(dp1872
S'num_cards'
p1873
I12
sS'description'
p1874
VDescription
p1875
sS'actions'
p1876
(lp1877
(dp1878
g1852
Vown
p1879
sg1854
Vid
p1880
sg1856
Vchange
p1881
sg1858
F0.2
sg1859
I6
sg1861
(dp1882
Vlife
p1883
I20
ssasS'title'
p1884
VFeldapotheke
p1885
sass.