(dp0
S'building_parameters'
p1
(dp2
I0
(dp3
S'elite_parameters'
p4
(dp5
S'ticks'
p6
(dp7
I0
(lp8
ssS'damage'
p9
(dp10
I0
(lp11
sssS'basic_parameters'
p12
(dp13
S'delay_out'
p14
I10
sS'life'
p15
I2000
sS'shop_transporter'
p16
(lp17
sS'capacity'
p18
I25
sS'name'
p19
VHauptquartier
p20
sS'shield_factor'
p21
F0.4
sS'shop_units'
p22
(lp23
I1
aI10
asS'attack_min'
p24
I0
sS'delay_shoot'
p25
I15
sS'delay_in'
p26
I20
sS'price'
p27
I2000
sS'max_life'
p28
I2000
sS'actions'
p29
(dp30
VArzneistudium
p31
(dp32
S'delay'
p33
I0
sS'category'
p34
Vupgrade
p35
sS'price'
p36
I400
sS'actions'
p37
(lp38
(dp39
S'target'
p40
S'self'
p41
sS'level'
p42
S'id'
p43
sS'type'
p44
S'change'
p45
sS'random'
p46
I0
sS'num_units'
p47
I0
sS'changes'
p48
(dp49
Vshop_units
p50
(lp51
I6
assa(dp52
g44
Vnew
p53
sg40
Vown
p54
sS'parameters'
p55
(lp56
I6
asg42
Vgroups
p57
sasS'num_uses'
p58
I1
ssVKommandant
p59
(dp60
S'delay'
p61
I0
sS'category'
p62
Vupgrade
p63
sS'price'
p64
I500
sS'actions'
p65
(lp66
(dp67
S'target'
p68
S'self'
p69
sS'level'
p70
S'id'
p71
sS'type'
p72
S'change'
p73
sS'random'
p74
I0
sS'num_units'
p75
I0
sS'changes'
p76
(dp77
Vshop_units
p78
(lp79
I8
assa(dp80
S'type'
p81
Vnew
p82
sS'target'
p83
Vown
p84
sS'parameters'
p85
(lp86
I8
asS'level'
p87
Vgroups
p88
sasS'num_uses'
p89
I1
ssVHelikopter-Plattform
p90
(dp91
S'delay'
p92
I0
sS'category'
p93
Vupgrade
p94
sS'price'
p95
I400
sS'actions'
p96
(lp97
(dp98
S'target'
p99
S'self'
p100
sS'level'
p101
S'id'
p102
sS'type'
p103
S'change'
p104
sS'random'
p105
I0
sS'num_units'
p106
I0
sS'changes'
p107
(dp108
Vshop_transporter
p109
(lp110
I1
assa(dp111
g103
Vnew
p112
sg99
Vown
p113
sS'parameters'
p114
I1
sg101
Vtransporter
p115
sasS'num_uses'
p116
I1
sssS'attack_max'
p117
I0
sS'enter'
p118
Vsoldier
p119
sS'shoot_dist'
p120
I6
sS'elite'
p121
I0
sS'id'
p122
I0
sS'num_enemies'
p123
I4
sS'shield'
p124
I0
sssI1
(dp125
S'elite_parameters'
p126
(dp127
S'ticks'
p128
(dp129
I500
(lp130
(dp131
S'target'
p132
S'self'
p133
sS'level'
p134
S'id'
p135
sS'type'
p136
S'change'
p137
sS'random'
p138
I0
sS'num_units'
p139
I0
sS'changes'
p140
(dp141
V
p142
F1.0
ssassS'damage'
p143
(dp144
I0
(lp145
sssS'basic_parameters'
p146
(dp147
S'life'
p148
I800
sS'shop_transporter'
p149
(lp150
sS'capacity'
p151
I15
sS'name'
p152
VKaserne
p153
sS'shop_units'
p154
(lp155
I0
asS'attack_min'
p156
I0
sS'shield'
p157
I100
sS'delay_shoot'
p158
I15
sS'id'
p159
I1
sS'price'
p160
I600
sS'max_life'
p161
I800
sS'delay_in'
p162
I20
sS'attack_max'
p163
I0
sS'enter'
p164
Vsoldier
p165
sS'shoot_dist'
p166
I6
sS'actions'
p167
(dp168
VVerteidigung
p169
(dp170
S'delay'
p171
F20.0
sS'category'
p172
Vupgrade
p173
sS'price'
p174
F100.0
sS'actions'
p175
(lp176
(dp177
g132
g133
sg134
g135
sg136
g137
sg138
I0
sg139
I0
sg140
(dp178
Vattack_min
p179
F20.0
sVattack_max
p180
F40.0
ssasS'num_uses'
p181
F1.0
ssVMG-Soldat
p182
(dp183
S'delay'
p184
I0
sS'category'
p185
Vupgrade
p186
sS'price'
p187
I500
sS'actions'
p188
(lp189
(dp190
g132
g133
sg134
g135
sg136
g137
sg138
I0
sg139
I0
sg140
(dp191
Vshop_units
p192
(lp193
I2
asVelite
p194
F1.0
sS'actions'
p195
(dp196
VCyborg
p197
(dp198
S'delay'
p199
I0
sS'category'
p200
Vupgrade
p201
sS'price'
p202
I400
sg195
(lp203
(dp204
S'target'
p205
S'self'
p206
sS'level'
p207
S'id'
p208
sS'type'
p209
S'change'
p210
sS'random'
p211
I0
sS'num_units'
p212
I0
sS'changes'
p213
(dp214
Vshop_units
p215
(lp216
I7
asVelite
p217
I1
ssasS'num_uses'
p218
I1
ssssasS'num_uses'
p219
I1
ssVSniper
p220
(dp221
S'delay'
p222
I0
sS'category'
p223
Vupgrade
p224
sS'price'
p225
I200
sS'actions'
p226
(lp227
(dp228
S'target'
p229
S'self'
p230
sS'level'
p231
S'id'
p232
sS'type'
p233
S'change'
p234
sS'random'
p235
I0
sS'num_units'
p236
I0
sS'changes'
p237
(dp238
Vshop_units
p239
(lp240
I3
assasS'num_uses'
p241
I1
sssS'elite'
p242
I0
sS'shield_factor'
p243
F0.4
sS'num_enemies'
p244
I4
sS'delay_out'
p245
I10
sssI2
(dp246
S'elite_parameters'
p247
(dp248
S'ticks'
p249
(dp250
I0
(lp251
ssS'damage'
p252
(dp253
I0
(lp254
sssS'basic_parameters'
p255
(dp256
S'life'
p257
I500
sS'shop_transporter'
p258
(lp259
sS'capacity'
p260
I10
sS'name'
p261
VLazarett
p262
sS'delay_out'
p263
I10
sS'shield_factor'
p264
F0.4
sS'attack_min'
p265
I0
sS'shield'
p266
I75
sS'delay_shoot'
p267
I15
sS'id'
p268
I2
sS'price'
p269
I600
sS'max_life'
p270
I500
sS'delay_in'
p271
I20
sS'actions'
p272
(dp273
V10x heilen
p274
(dp275
S'delay'
p276
I50
sS'category'
p277
Vstandard
p278
sg269
I400
sg272
(lp279
(dp280
S'target'
p281
Vown
p282
sS'level'
p283
Vid
p284
sS'type'
p285
Vchange
p286
sS'random'
p287
F0.0
sS'num_units'
p288
I0
sS'changes'
p289
(dp290
Vlife
p291
I50
ssasS'num_uses'
p292
I-1
ssV1x heilen
p293
(dp294
g276
I40
sg277
Vstandard
p295
sg269
I70
sg272
(lp296
(dp297
g281
Vown
p298
sg283
Vid
p299
sg285
Vchange
p300
sg287
F0.0
sg288
I1
sg289
(dp301
Vlife
p302
I50
ssasg292
I-1
ssVArztneistudium
p303
(dp304
S'delay'
p305
I0
sS'category'
p306
Vupgrade
p307
sS'price'
p308
I200
sS'actions'
p309
(lp310
(dp311
S'target'
p312
S'self'
p313
sS'level'
p314
S'id'
p315
sS'type'
p316
S'change'
p317
sS'random'
p318
I0
sS'num_units'
p319
I0
sS'changes'
p320
(dp321
Vshop_units
p322
(lp323
I6
assasS'num_uses'
p324
I1
ssV5x heilen
p325
(dp326
g276
I50
sg277
Vstandard
p327
sg269
I200
sg272
(lp328
(dp329
g281
Vown
p330
sg283
Vid
p331
sg285
Vchange
p332
sg287
F0.0
sg288
I5
sg289
(dp333
Vlife
p334
I50
ssasg292
I-1
sssS'enter'
p335
Vsoldier
p336
sS'shoot_dist'
p337
I6
sS'elite'
p338
I0
sS'shop_units'
p339
(lp340
sS'num_enemies'
p341
I4
sS'attack_max'
p342
I0
sssI3
(dp343
g247
(dp344
g249
(dp345
I0
(lp346
ssg252
(dp347
I0
(lp348
sssg255
(dp349
g257
I500
sg258
(lp350
I0
asg260
I10
sg261
VWerkstatt
p351
sg263
I10
sg264
F0.4
sg265
I0
sg266
I50
sg267
I15
sg268
I3
sg269
I700
sg270
I500
sg271
I20
sg272
(dp352
VFahrzeug Transporter
p353
(dp354
S'delay'
p355
I0
sS'category'
p356
Vupgrade
p357
sS'price'
p358
I150
sS'actions'
p359
(lp360
(dp361
S'target'
p362
S'self'
p363
sS'level'
p364
S'id'
p365
sS'type'
p366
S'change'
p367
sS'random'
p368
I0
sS'num_units'
p369
I0
sS'changes'
p370
(dp371
Vshop_transporter
p372
(lp373
I2
asVelite
p374
I1
ssasS'num_uses'
p375
I1
ssVArtillerie
p376
(dp377
S'delay'
p378
I0
sS'category'
p379
Vupgrade
p380
sS'price'
p381
I300
sS'actions'
p382
(lp383
(dp384
S'target'
p385
S'self'
p386
sS'level'
p387
S'id'
p388
sS'type'
p389
S'change'
p390
sS'random'
p391
I0
sS'num_units'
p392
I0
sS'changes'
p393
(dp394
Vshop_units
p395
(lp396
I5
asVelite
p397
I1
ssasS'num_uses'
p398
I1
ssVVerteidigung
p399
(dp400
S'delay'
p401
I0
sS'category'
p402
Vupgrade
p403
sS'price'
p404
I50
sS'actions'
p405
(lp406
(dp407
g312
g313
sg314
g315
sg316
g317
sg318
I0
sg319
I0
sg320
(dp408
Vattack_min
p409
I30
sVattack_max
p410
I50
ssasS'num_uses'
p411
I1
sssg335
Vvehicle
p412
sg337
I6
sg338
I0
sg339
(lp413
I4
asg341
I4
sg342
I0
sssI4
(dp414
g247
(dp415
g249
(dp416
I0
(lp417
ssg252
(dp418
I0
(lp419
sssg255
(dp420
g257
I800
sg258
(lp421
sg260
I15
sg261
VFlughafen
p422
sg263
I10
sg264
F0.4
sg265
I0
sg266
I100
sg267
I15
sg268
I4
sg269
I1000
sg270
I800
sg271
I20
sg272
(dp423
VFlak & Verteidigung
p424
(dp425
g355
I0
sg356
Vupgrade
p426
sg358
I100
sg359
(lp427
(dp428
g362
g363
sg364
g365
sg366
g367
sg368
I0
sg369
I0
sg370
(dp429
Vshop_units
p430
(lp431
I9
asVattack_min
p432
I30
sVelite
p433
I1
sVattack_max
p434
I50
ssasg375
I1
ssVHelikopter Landeplattform
p435
(dp436
g276
I0
sg277
Vupgrade
p437
sg269
I400
sg272
(lp438
(dp439
g281
S'self'
p440
sg283
g268
sg285
S'change'
p441
sg287
I0
sg288
I0
sg289
(dp442
Vshop_transporter
p443
(lp444
I1
asVelite
p445
I1
sS'actions'
p446
(dp447
VFallschirmspringer
p448
(dp449
S'delay'
p450
I0
sS'category'
p451
S'upgrade'
p452
sS'price'
p453
I0
sS'actions'
p454
(lp455
sS'num_uses'
p456
I-1
ssssasg292
I1
sssg335
Vvehicle
p457
sg337
I6
sg338
I0
sg339
(lp458
sg341
I4
sg342
I0
sssI5
(dp459
S'elite_parameters'
p460
(dp461
S'ticks'
p462
(dp463
I0
(lp464
ssS'damage'
p465
(dp466
I0
(lp467
sssS'basic_parameters'
p468
(dp469
S'life'
p470
I100
sS'shop_transporter'
p471
(lp472
sS'capacity'
p473
I0
sS'name'
p474
Vnix
p475
sS'shield_factor'
p476
F0.6
sS'elite'
p477
I0
sS'shop_units'
p478
(lp479
sS'attack_min'
p480
I60
sS'delay_shoot'
p481
I15
sS'delay_in'
p482
I0
sS'price'
p483
I200
sS'num_enemies'
p484
I3
sS'max_life'
p485
I100
sS'attack_max'
p486
I80
sS'enter'
p487
Vsoldier
p488
sS'shoot_dist'
p489
I5
sS'delay_out'
p490
I0
sS'id'
p491
I5
sS'actions'
p492
(dp493
Vnix
p494
(dp495
S'delay'
p496
I0
sS'category'
p497
S'upgrade'
p498
sg483
I0
sg492
(lp499
sS'num_uses'
p500
I-1
sssS'shield'
p501
I0
sssI6
(dp502
g460
(dp503
g462
(dp504
I0
(lp505
ssg465
(dp506
I0
(lp507
sssg468
(dp508
g470
I80
sg471
(lp509
sg473
I5
sg474
VMG-Nest
p510
sg476
F0.5
sg477
I0
sg478
(lp511
sg480
I20
sg481
I15
sg482
I15
sg483
I100
sg484
I4
sg485
I80
sg486
I35
sg487
Vsoldier
p512
sg489
I6
sg490
I10
sg491
I6
sg492
(dp513
Vnix
p514
(dp515
g450
I0
sg451
g452
sg453
I0
sg454
(lp516
sg456
I-1
sssg501
I10
ssssS'unit_parameters'
p517
(dp518
I0
(dp519
S'elite_parameters'
p520
(dp521
S'ticks'
p522
(dp523
I1000
(lp524
(dp525
S'target'
p526
S'self'
p527
sS'level'
p528
S'id'
p529
sS'type'
p530
S'change'
p531
sS'random'
p532
I0
sS'num_units'
p533
I0
sS'changes'
p534
(dp535
Vlife
p536
I10
sVelite
p537
I1
ssasI500
(lp538
(dp539
g526
g527
sg528
g529
sg530
g531
sg532
I0
sg533
I0
sg534
(dp540
Vlife
p541
I10
sVelite
p542
I1
ssassS'damage'
p543
(dp544
I1000
(lp545
(dp546
S'target'
p547
S'self'
p548
sS'level'
p549
S'id'
p550
sS'type'
p551
S'change'
p552
sS'random'
p553
I0
sS'num_units'
p554
I0
sS'changes'
p555
(dp556
Vshoot_dist
p557
I2
sVmax_life
p558
I8
sVelite
p559
I1
sVattack_max
p560
I11
ssasI500
(lp561
(dp562
g526
g527
sg528
g529
sg530
g531
sg532
I0
sg533
I0
sg534
(dp563
Velite
p564
I1
sVattack_max
p565
I8
ssasI750
(lp566
(dp567
g547
g548
sg549
g550
sg551
g552
sg553
I0
sg554
I0
sg555
(dp568
Vattack_min
p569
I8
sVelite
p570
I1
sVattack_max
p571
I10
ssasssS'basic_parameters'
p572
(dp573
S'delay_walk'
p574
I15
sS'life'
p575
I50
sS'walk_dist'
p576
I5
sS'name'
p577
VSoldat
p578
sS'num_enemies'
p579
I4
sS'attack_min'
p580
I10
sS'delay_shoot'
p581
I15
sS'id'
p582
I0
sS'unit_type'
p583
Vsoldier
p584
sS'max_life'
p585
I50
sS'attack_max'
p586
I20
sS'shoot_dist'
p587
I6
sS'price'
p588
I70
sS'elite'
p589
I0
sS'shield_factor'
p590
F0.5
sS'actions'
p591
(dp592
Vneue Munition
p593
(dp594
S'delay'
p595
I0
sS'category'
p596
Vupgrade
p597
sg160
I20
sg167
(lp598
(dp599
S'target'
p600
S'self'
p601
sS'level'
p602
g159
sS'type'
p603
S'change'
p604
sS'random'
p605
I0
sS'num_units'
p606
I0
sS'changes'
p607
(dp608
Vattack_min
p609
I5
sVattack_max
p610
I5
sg167
(dp611
VPanzerbrecher
p612
(dp613
g595
I0
sg596
Vupgrade
p614
sg160
I40
sg167
(lp615
(dp616
g600
g601
sg602
g159
sg603
g604
sg605
I0
sg606
I0
sg607
(dp617
Vshield_factor
p618
F0.15
sVelite
p619
I1
sVattack_max
p620
I10
sg167
(dp621
ssasS'num_uses'
p622
I1
ssVFlammenwerfer
p623
(dp624
g595
I0
sg596
Vupgrade
p625
sg160
I40
sg167
(lp626
(dp627
g600
g601
sg602
g159
sg603
g604
sg605
I0
sg606
I0
sg607
(dp628
Vnum_enemies
p629
I4
sVattack_min
p630
I10
sVattack_max
p631
I10
sS'actions'
p632
(dp633
VPanzerbrecher
p634
(dp635
S'delay'
p636
I0
sS'category'
p637
Vupgrade
p638
sS'price'
p639
I0
sg632
(lp640
sS'num_uses'
p641
I0
ssssasg622
I1
ssssasg622
I1
ssV3 HG
p642
(dp643
g595
I0
sg596
Vequipment
p644
sg160
I70
sg167
(lp645
(dp646
S'target'
p647
S'self'
p648
sS'level'
p649
S'id'
p650
sS'type'
p651
S'change'
p652
sS'random'
p653
I0
sS'num_units'
p654
I0
sS'changes'
p655
(dp656
S'actions'
p657
(dp658
VHG
p659
(dp660
S'delay'
p661
I15
sS'category'
p662
Vstandard
p663
sS'price'
p664
I0
sg657
(lp665
(dp666
g647
Venemy
p667
sg649
Vid
p668
sg651
Vchange
p669
sg653
F0.3
sg654
I3
sg655
(dp670
Vlife
p671
I-10
ssasS'num_uses'
p672
I3
ssssasg622
I-1
ssVSchutzweste
p673
(dp674
g276
I0
sg277
Vupgrade
p675
sg269
I30
sg272
(lp676
(dp677
g281
g440
sg283
g268
sg285
g441
sg287
I0
sg288
I0
sg289
(dp678
Vshield
p679
I10
sg272
(dp680
VSchild & wenig heilen
p681
(dp682
g276
I0
sg277
Vupgrade
p683
sg269
I50
sg272
(lp684
(dp685
g281
g440
sg283
g268
sg285
g441
sg287
I0
sg288
I0
sg289
(dp686
Vlife
p687
I15
sVmax_life
p688
I6
sVelite
p689
I1
sVshield
p690
I15
ssasg292
I1
ssssasg292
I1
ssVneue Schuhe
p691
(dp692
g595
I0
sg596
Vupgrade
p693
sg160
I20
sg167
(lp694
(dp695
g600
Vself
p696
sg602
Vid
p697
sg603
Vchange
p698
sg605
F0.0
sg606
F1.0
sg607
(dp699
Vdelay_walk
p700
I-2
sVwalk_dist
p701
I1
sVelite
p702
I1
sg167
(dp703
ssasg622
I1
sssS'shield'
p704
I0
sssI1
(dp705
g520
(dp706
g522
(dp707
I1000
(lp708
(dp709
g600
g601
sg602
g159
sg603
g604
sg605
I0
sg606
I0
sg607
(dp710
Vwalk_dist
p711
I1
sVshield
p712
I10
ssassg543
(dp713
I0
(lp714
sssg572
(dp715
g574
I15
sg575
I40
sg576
I5
sg577
VIngenieur
p716
sg579
I1
sg580
I3
sg581
I15
sg582
I1
sg583
Vsoldier
p717
sg585
I40
sg586
I5
sg587
I2
sg588
I100
sg589
I0
sg590
F0.4
sg591
(dp718
VBruecke bauen
p719
(dp720
S'delay'
p721
I50
sS'category'
p722
Vshop
p723
sS'price'
p724
I100
sS'actions'
p725
(lp726
(dp727
S'target'
p728
S'self'
p729
sS'level'
p730
S'id'
p731
sS'type'
p732
S'change'
p733
sS'random'
p734
I0
sS'num_units'
p735
I0
sS'changes'
p736
(dp737
Vlife
p738
I0
ssasS'num_uses'
p739
I-1
ssVMG-Nest
p740
(dp741
S'delay'
p742
I40
sS'category'
p743
Vshop
p744
sS'price'
p745
I70
sS'actions'
p746
(lp747
(dp748
g72
Vnew
p749
sg68
Vown
p750
sS'parameters'
p751
I6
sg70
Vbuildings
p752
sasS'num_uses'
p753
I-1
ssVWerkstatt
p754
(dp755
g305
I60
sg306
Vshop
p756
sg308
I700
sg309
(lp757
(dp758
g316
Vnew
p759
sg312
Vown
p760
sS'parameters'
p761
I3
sg314
Vbuildings
p762
sasg324
I-1
ssVFlugplatz
p763
(dp764
g401
I80
sg402
Vshop
p765
sg404
I1000
sg405
(lp766
(dp767
S'type'
p768
Vnew
p769
sS'target'
p770
Vown
p771
sS'parameters'
p772
I4
sS'level'
p773
Vbuildings
p774
sasg411
I-1
ssVLazarett
p775
(dp776
g401
I50
sg402
Vshop
p777
sg404
I800
sg405
(lp778
(dp779
g768
Vnew
p780
sg770
Vown
p781
sg772
I2
sg773
Vbuildings
p782
sasg411
I-1
ssVKaserne
p783
(dp784
g595
I60
sg596
Vshop
p785
sg160
I600
sg167
(lp786
(dp787
g603
Vnew
p788
sg600
Vown
p789
sS'parameters'
p790
I1
sg602
Vbuildings
p791
sasg622
I-1
ssVKampfingenieur
p792
(dp793
g184
I0
sg185
Vupgrade
p794
sg187
I70
sg188
(lp795
(dp796
g132
g133
sg134
g135
sg136
g137
sg138
I0
sg139
I0
sg140
(dp797
Vattack_min
p798
I10
sVelite
p799
I1
sVattack_max
p800
I15
sg188
(dp801
V4 Granaten
p802
(dp803
g184
I0
sg185
Vequipment
p804
sg187
I70
sg188
(lp805
(dp806
g132
Vself
p807
sg134
Vid
p808
sg136
Vchange
p809
sg138
F0.4
sg139
I3
sg140
(dp810
g188
(dp811
VGranate
p812
(dp813
g184
I10
sg185
Vstandard
p814
sg187
I0
sg188
(lp815
(dp816
g132
Venemy
p817
sg134
Vid
p818
sg136
Vchange
p819
sg138
F0.4
sg139
I3
sg140
(dp820
Vlife
p821
I-20
ssasg219
I4
ssssasg219
I-1
sssVshield
p822
I8
ssasg219
I1
sssg704
I0
sssI2
(dp823
g520
(dp824
g522
(dp825
I0
(lp826
ssg543
(dp827
I500
(lp828
(dp829
S'target'
p830
S'self'
p831
sS'level'
p832
S'id'
p833
sS'type'
p834
S'change'
p835
sS'random'
p836
I0
sS'num_units'
p837
I0
sS'changes'
p838
(dp839
Vattack_min
p840
I10
sVelite
p841
I1
sS'actions'
p842
(dp843
VSchusstraining
p844
(dp845
S'delay'
p846
I0
sS'category'
p847
S'upgrade'
p848
sS'price'
p849
I0
sg842
(lp850
sS'num_uses'
p851
I-1
ssssasssg572
(dp852
g574
I18
sg575
I80
sg576
I5
sg577
VMG-Soldat
p853
sg579
I10
sg580
I20
sg581
I20
sg582
I2
sg583
Vsoldier
p854
sg585
I80
sg586
I60
sg587
I7
sg588
I175
sg589
I0
sg590
F0.55
sg591
(dp855
Vbessere Munition
p856
(dp857
g184
I0
sg185
Vupgrade
p858
sg187
I40
sg188
(lp859
(dp860
g132
g133
sg134
g135
sg136
g137
sg138
I0
sg139
I0
sg140
(dp861
Vattack_min
p862
I10
sVattack_max
p863
I5
sg188
(dp864
VPanzerbrecher
p865
(dp866
g184
V0.0
p867
sg185
Vupgrade
p868
sg187
V60.0
p869
sg188
(lp870
(dp871
g132
g133
sg134
g135
sg136
g137
sg138
I0
sg139
I0
sg140
(dp872
Vshield_factor
p873
F0.1
sVelite
p874
I1
sVattack_max
p875
I15
sg188
(dp876
VBazooka
p877
(dp878
g184
I0
sg185
Vupgrade
p879
sg187
I80
sg188
(lp880
(dp881
g132
g133
sg134
g135
sg136
g137
sg138
I0
sg139
I0
sg140
(dp882
Vshield_factor
p883
F0.15
sVattack_min
p884
I15
sVelite
p885
I1
sVnum_enemies
p886
I2
sVattack_max
p887
I10
ssasg219
I1
ssssasg219
V1.0
p888
ssssasg219
I1
ssVKampfausbildung
p889
(dp890
S'delay'
p891
I0
sS'category'
p892
Vupgrade
p893
sS'price'
p894
I40
sS'actions'
p895
(lp896
(dp897
S'target'
p898
S'self'
p899
sS'level'
p900
S'id'
p901
sS'type'
p902
S'change'
p903
sS'random'
p904
I0
sS'num_units'
p905
I0
sS'changes'
p906
(dp907
Vshoot_dist
p908
I1
sVelite
p909
I1
sVdelay_shoot
p910
I-5
ssasS'num_uses'
p911
I1
ssVSpeed I
p912
(dp913
g401
I0
sg402
Vupgrade
p914
sg404
I40
sg405
(lp915
(dp916
g132
g133
sg134
g135
sg136
g137
sg138
I0
sg139
I0
sg140
(dp917
Vdelay_walk
p918
I-5
sVelite
p919
I1
sg188
(dp920
VSpeed II
p921
(dp922
g184
I0
sg185
Vupgrade
p923
sg187
I50
sg188
(lp924
(dp925
g132
g133
sg134
g135
sg136
g137
sg138
I0
sg139
I0
sg140
(dp926
Vdelay_walk
p927
I-5
sVwalk_dist
p928
I1
sVelite
p929
I1
sVdelay_shoot
p930
I-3
ssasg219
I1
ssssasg411
I1
sssg704
I20
sssI3
(dp931
g520
(dp932
g522
(dp933
I200
(lp934
(dp935
g229
g230
sg231
g232
sg233
g234
sg235
I0
sg236
I0
sg237
(dp936
Vattack_min
p937
I10
sVelite
p938
I1
sVshield
p939
I8
ssasI500
(lp940
(dp941
g229
g230
sg231
g232
sg233
g234
sg235
I0
sg236
I0
sg237
(dp942
Vshield_factor
p943
F0.07
sVattack_min
p944
I8
sVelite
p945
I1
sVattack_max
p946
I14
ssassg543
(dp947
I0
(lp948
sI250
(lp949
(dp950
g312
g313
sg314
g315
sg316
g317
sg318
I0
sg319
I0
sg320
(dp951
Vattack_min
p952
I10
sVelite
p953
I1
sVattack_max
p954
I5
sg309
(dp955
Vschneller laden
p956
(dp957
g305
I0
sg306
Vupgrade
p958
sg308
I50
sg309
(lp959
(dp960
g312
g313
sg314
g315
sg316
g317
sg318
I0
sg319
I0
sg320
(dp961
Vdelay_shoot
p962
I-4
ssasg324
I1
ssssasssg572
(dp963
g574
I15
sg575
I50
sg576
I5
sg577
VSniper
p964
sg579
I1
sg580
I40
sg581
I20
sg582
I3
sg583
Vsoldier
p965
sg585
I50
sg586
I60
sg587
I10
sg588
I200
sg589
I0
sg590
F0.6
sg591
(dp966
VSchutzweste
p967
(dp968
g222
I0
sg223
Vupgrade
p969
sg225
I40
sg226
(lp970
(dp971
g229
g230
sg231
g232
sg233
g234
sg235
I0
sg236
I0
sg237
(dp972
Vlife
p973
I15
sVmax_life
p974
I10
sVshield
p975
I10
ssasg241
I1
ssVSpeed I (ziehen und laden)
p976
(dp977
g222
I0
sg223
Vupgrade
p978
sg225
I30
sg226
(lp979
(dp980
g229
g230
sg231
g232
sg233
g234
sg235
I0
sg236
I0
sg237
(dp981
Vwalk_dist
p982
I1
sVelite
p983
I1
sVdelay_shoot
p984
I-2
ssasg241
I1
ssVhoehere Schussweite
p985
(dp986
S'delay'
p987
I0
sS'category'
p988
Vupgrade
p989
sS'price'
p990
I40
sS'actions'
p991
(lp992
(dp993
S'target'
p994
S'self'
p995
sS'level'
p996
S'id'
p997
sS'type'
p998
S'change'
p999
sS'random'
p1000
I0
sS'num_units'
p1001
I0
sS'changes'
p1002
(dp1003
Vshoot_dist
p1004
I1
sVelite
p1005
I1
sg991
(dp1006
VDistanzexperte
p1007
(dp1008
g987
I0
sg988
Vupgrade
p1009
sg990
I50
sg991
(lp1010
(dp1011
g994
g995
sg996
g997
sg998
g999
sg1000
I0
sg1001
I0
sg1002
(dp1012
Vshoot_dist
p1013
I1
sVattack_min
p1014
I8
sVelite
p1015
I1
sg991
(dp1016
ssasS'num_uses'
p1017
I1
ssssasg1017
I1
ssVPraezision
p1018
(dp1019
S'delay'
p1020
I0
sS'category'
p1021
Vupgrade
p1022
sS'price'
p1023
I30
sg446
(lp1024
(dp1025
S'target'
p1026
S'self'
p1027
sS'level'
p1028
S'id'
p1029
sS'type'
p1030
S'change'
p1031
sS'random'
p1032
I0
sS'num_units'
p1033
I0
sS'changes'
p1034
(dp1035
Vattack_min
p1036
I15
sVelite
p1037
I1
sVattack_max
p1038
I8
sg309
(dp1039
Vbessere Munition
p1040
(dp1041
g305
I0
sg306
Vupgrade
p1042
sg308
I40
sg309
(lp1043
(dp1044
g312
g313
sg314
g315
sg316
g317
sg318
I0
sg319
I0
sg320
(dp1045
Vshield_factor
p1046
F0.05
sVattack_min
p1047
I15
sVelite
p1048
I1
sVattack_max
p1049
I10
sg309
(dp1050
VSchildzerstoerer
p1051
(dp1052
g305
I0
sg306
Vupgrade
p1053
sg308
I30
sg309
(lp1054
(dp1055
g312
g313
sg314
g315
sg316
g317
sg318
I0
sg319
I0
sg320
(dp1056
Vshield_factor
p1057
F0.2
sVelite
p1058
I1
sVattack_max
p1059
I8
ssasg324
I1
ssssasg324
I1
ssVDoppelschuss
p1060
(dp1061
g987
I0
sg988
Vupgrade
p1062
sg990
I60
sg991
(lp1063
(dp1064
g994
g995
sg996
g997
sg998
g999
sg1000
I0
sg1001
I0
sg1002
(dp1065
Vnum_enemies
p1066
I1
sVattack_min
p1067
I8
sVelite
p1068
I1
sVattack_max
p1069
I15
ssasg1017
I1
ssssasS'num_uses'
p1070
I1
sssg704
I0
sssI4
(dp1071
g520
(dp1072
g522
(dp1073
I0
(lp1074
sI200
(lp1075
(dp1076
g229
g230
sg231
g232
sg233
g234
sg235
I0
sg236
I0
sg237
(dp1077
Vdelay_walk
p1078
I-4
sVelite
p1079
I1
sVdelay_shoot
p1080
I-3
ssasI450
(lp1081
(dp1082
g229
g230
sg231
g232
sg233
g234
sg235
I0
sg236
I0
sg237
(dp1083
Vdelay_walk
p1084
I-4
sVelite
p1085
I1
sVshield
p1086
I50
ssassg543
(dp1087
I500
(lp1088
(dp1089
g229
g230
sg231
g232
sg233
g234
sg235
I0
sg236
I0
sg237
(dp1090
Vshield_factor
p1091
F0.07
sVattack_min
p1092
I10
sVelite
p1093
I1
sVattack_max
p1094
I5
ssasssg572
(dp1095
g574
I20
sg575
I100
sg576
I5
sg577
VPanzer
p1096
sg579
I8
sg580
I50
sg581
I18
sg582
I4
sg583
Vvehicle
p1097
sg585
I100
sg586
I90
sg587
I7
sg588
I400
sg589
I0
sg590
F0.6
sg591
(dp1098
VHartkernmunition
p1099
(dp1100
S'delay'
p1101
I0
sS'category'
p1102
Vupgrade
p1103
sS'price'
p1104
I30
sS'actions'
p1105
(lp1106
(dp1107
S'target'
p1108
Vself
p1109
sS'level'
p1110
Vid
p1111
sS'type'
p1112
Vchange
p1113
sS'random'
p1114
F0.0
sS'num_units'
p1115
I0
sS'changes'
p1116
(dp1117
Vshield_factor
p1118
F0.15
sVelite
p1119
I1
sVattack_max
p1120
I8
sS'actions'
p1121
(dp1122
VUrangeschoss
p1123
(dp1124
S'delay'
p1125
I0
sS'category'
p1126
Vupgrade
p1127
sS'price'
p1128
I80
sg1121
(lp1129
(dp1130
S'target'
p1131
Vself
p1132
sS'level'
p1133
Vid
p1134
sS'type'
p1135
Vchange
p1136
sS'random'
p1137
F0.0
sS'num_units'
p1138
I0
sS'changes'
p1139
(dp1140
Vshield_factor
p1141
F0.2
sVattack_min
p1142
I15
sVelite
p1143
I1
sVattack_max
p1144
I15
ssasS'num_uses'
p1145
I1
ssssasS'num_uses'
p1146
I1
ssVSpeed I
p1147
(dp1148
g401
I0
sg402
Vupgrade
p1149
sg404
I20
sg405
(lp1150
(dp1151
g1108
S'self'
p1152
sg1110
S'id'
p1153
sg1112
S'change'
p1154
sg1114
I0
sg1115
I0
sg1116
(dp1155
Vdelay_walk
p1156
I-3
sg1105
(dp1157
VSpeed II
p1158
(dp1159
g1101
I0
sg1102
Vupgrade
p1160
sg1104
I50
sg1105
(lp1161
(dp1162
g1108
g1152
sg1110
g1153
sg1112
g1154
sg1114
I0
sg1115
I0
sg1116
(dp1163
Vdelay_walk
p1164
I-5
sVwalk_dist
p1165
I1
sVelite
p1166
I1
ssasg1146
I1
ssssasg411
I1
sssg704
I150
sssI5
(dp1167
g520
(dp1168
g522
(dp1169
I0
(lp1170
sI500
(lp1171
(dp1172
S'target'
p1173
S'self'
p1174
sS'level'
p1175
S'id'
p1176
sS'type'
p1177
S'change'
p1178
sS'random'
p1179
I0
sS'num_units'
p1180
I0
sS'changes'
p1181
(dp1182
Vmax_life
p1183
F10.0
ssassg543
(dp1184
I0
(lp1185
sssg572
(dp1186
g574
I15
sg575
I100
sg576
I5
sg577
VArtillerie
p1187
sg579
I10
sg580
I0
sg581
I40
sg582
I5
sg583
Vvehicle
p1188
sg585
I100
sg586
I0
sg587
I10
sg588
I600
sg589
I0
sg590
F0.5
sg591
(dp1189
Vgroessere Schussweite I
p1190
(dp1191
g1101
I0
sg1102
Vupgrade
p1192
sg1104
I30
sg1105
(lp1193
(dp1194
g1108
g1152
sg1110
g1153
sg1112
g1154
sg1114
I0
sg1115
I0
sg1116
(dp1195
Vshoot_dist
p1196
I1
sVelite
p1197
I1
sg382
(dp1198
Vgroessere Schussweite II
p1199
(dp1200
g378
I0
sg379
Vupgrade
p1201
sg381
I30
sg382
(lp1202
(dp1203
g385
g386
sg387
g388
sg389
g390
sg391
I0
sg392
I0
sg393
(dp1204
Vshoot_dist
p1205
I1
sVelite
p1206
I1
ssasg398
I1
ssVStreuung erhoehen
p1207
(dp1208
g378
I0
sg379
Vupgrade
p1209
sg381
I40
sg382
(lp1210
(dp1211
g385
g386
sg387
g388
sg389
g390
sg391
I0
sg392
I0
sg393
(dp1212
Vnum_enemies
p1213
I5
sVattack_min
p1214
I15
sVelite
p1215
I1
ssasg398
I1
ssssasg1146
I1
ssVAufbauen
p1216
(dp1217
S'delay'
p1218
I25
sS'category'
p1219
Vstandard
p1220
sS'price'
p1221
I0
sS'actions'
p1222
(lp1223
(dp1224
S'target'
p1225
S'self'
p1226
sS'level'
p1227
S'id'
p1228
sS'type'
p1229
S'change'
p1230
sS'random'
p1231
I0
sS'num_units'
p1232
I0
sS'changes'
p1233
(dp1234
g1222
(dp1235
VTransport
p1236
(dp1237
S'delay'
p1238
I30
sS'category'
p1239
Vequipment
p1240
sS'price'
p1241
I0
sS'actions'
p1242
(lp1243
(dp1244
S'target'
p1245
S'self'
p1246
sS'level'
p1247
S'id'
p1248
sS'type'
p1249
S'change'
p1250
sS'random'
p1251
I0
sS'num_units'
p1252
I0
sS'changes'
p1253
(dp1254
g1242
(dp1255
VAufbau
p1256
(dp1257
g1238
I25
sg1239
Vstandard
p1258
sg1241
I0
sg1242
(lp1259
(dp1260
g1245
g1246
sg1247
g1248
sg1249
g1250
sg1251
I0
sg1252
I0
sg1253
(dp1261
Vattack_min
p1262
I100
sVattack_max
p1263
I200
sVwalk_dist
p1264
I-5
ssasS'num_uses'
p1265
I1
sssVattack_min
p1266
I-100
sVattack_max
p1267
I-200
sVwalk_dist
p1268
I5
ssasg1265
I-1
sssVattack_min
p1269
I100
sVattack_max
p1270
I200
sVwalk_dist
p1271
I-5
ssasS'num_uses'
p1272
I1
ssVSpeed I
p1273
(dp1274
g401
I0
sg402
Vupgrade
p1275
sg404
I80
sg405
(lp1276
(dp1277
g385
g386
sg387
g388
sg389
g390
sg391
I0
sg392
I0
sg393
(dp1278
Vdelay_walk
p1279
I-8
sVelite
p1280
I1
sVdelay_shoot
p1281
I-10
sg382
(dp1282
VSpeed II
p1283
(dp1284
g378
I0
sg379
Vupgrade
p1285
sg381
I50
sg382
(lp1286
(dp1287
g385
g386
sg387
g388
sg389
g390
sg391
I0
sg392
I0
sg393
(dp1288
Vdelay_walk
p1289
I-8
sVelite
p1290
I1
sVdelay_shoot
p1291
I-10
ssasg398
I1
ssssasg411
I1
sssg704
I70
sssI6
(dp1292
S'elite_parameters'
p1293
(dp1294
S'ticks'
p1295
(dp1296
I200
(lp1297
(dp1298
g229
g230
sg231
g232
sg233
g234
sg235
I0
sg236
I0
sg237
(dp1299
Vlife
p1300
I100
sVmax_life
p1301
I8
sVelite
p1302
I1
ssasI500
(lp1303
(dp1304
g229
g230
sg231
g232
sg233
g234
sg235
I0
sg236
I0
sg237
(dp1305
Vlife
p1306
I100
sVmax_life
p1307
I10
sVelite
p1308
I1
sVshield
p1309
I10
ssassS'damage'
p1310
(dp1311
I0
(lp1312
sssS'basic_parameters'
p1313
(dp1314
S'delay_walk'
p1315
I15
sS'life'
p1316
I50
sS'walk_dist'
p1317
I5
sS'name'
p1318
VArzt
p1319
sS'num_enemies'
p1320
I3
sS'attack_min'
p1321
I0
sS'delay_shoot'
p1322
I15
sg833
I6
sS'unit_type'
p1323
Vsoldier
p1324
sS'max_life'
p1325
I50
sS'attack_max'
p1326
I0
sS'shoot_dist'
p1327
I5
sg849
I120
sS'elite'
p1328
I0
sS'shield_factor'
p1329
F0.4
sg842
(dp1330
VMedipack
p1331
(dp1332
g305
I0
sg306
Vshop
p1333
sg308
I60
sg309
(lp1334
(dp1335
g312
g313
sg314
g315
sg316
g317
sg318
I0
sg319
I0
sg320
(dp1336
g309
(dp1337
VSchmerzmittel
p1338
(dp1339
g305
I0
sg306
Vstandard
p1340
sg308
I0
sg309
(lp1341
(dp1342
g312
Vself
p1343
sg314
Vid
p1344
sg316
Vchange
p1345
sg318
F0.3
sg319
I0
sg320
(dp1346
Vlife
p1347
I30
ssasg324
I4
ssssasg324
I-1
ssVSchild-Mech
p1348
(dp1349
g305
I0
sg306
Vupgrade
p1350
sg308
I80
sg309
(lp1351
(dp1352
S'target'
p1353
S'self'
p1354
sS'level'
p1355
S'id'
p1356
sS'type'
p1357
S'change'
p1358
sS'random'
p1359
I0
sS'num_units'
p1360
I0
sS'changes'
p1361
(dp1362
S'actions'
p1363
(dp1364
VSchild reparieren
p1365
(dp1366
S'delay'
p1367
I20
sS'category'
p1368
Vstandard
p1369
sS'price'
p1370
I50
sg1363
(lp1371
(dp1372
g1353
Vown
p1373
sg1355
Vid
p1374
sg1357
Vchange
p1375
sg1359
F0.3
sg1360
I2
sg1361
(dp1376
Vshield
p1377
I15
ssasS'num_uses'
p1378
I-1
ssssasg324
I1
ssVFeldapotheke (andere)
p1379
(dp1380
g305
I0
sg306
Vshop
p1381
sg308
I60
sg309
(lp1382
(dp1383
g312
Vself
p1384
sg314
Vid
p1385
sg316
Vchange
p1386
sg318
F0.0
sg319
I0
sg320
(dp1387
g309
(dp1388
VPflaster
p1389
(dp1390
g305
I0
sg306
Vstandard
p1391
sg308
I0
sg309
(lp1392
(dp1393
g312
Vown
p1394
sg314
Vid
p1395
sg316
Vchange
p1396
sg318
F0.3
sg319
I3
sg320
(dp1397
Vlife
p1398
I10
ssasg324
I3
ssssasg324
I-1
ssVSpeed I
p1399
(dp1400
g305
I0
sg306
Vupgrade
p1401
sg308
I30
sg309
(lp1402
(dp1403
g312
g313
sg314
g315
sg316
g317
sg318
I0
sg319
I0
sg320
(dp1404
Vwalk_dist
p1405
I1
sVelite
p1406
I1
sg309
(dp1407
VSpeed II
p1408
(dp1409
g305
I0
sg306
Vupgrade
p1410
sg308
I50
sg309
(lp1411
(dp1412
g312
g313
sg314
g315
sg316
g317
sg318
I0
sg319
I0
sg320
(dp1413
Vdelay_walk
p1414
I-4
sVwalk_dist
p1415
I2
sVelite
p1416
I1
ssasg324
I1
ssssasg324
I1
sssS'shield'
p1417
I10
sssI7
(dp1418
S'elite_parameters'
p1419
(dp1420
S'ticks'
p1421
(dp1422
I0
(lp1423
ssS'damage'
p1424
(dp1425
I0
(lp1426
sssS'basic_parameters'
p1427
(dp1428
S'delay_walk'
p1429
I15
sS'life'
p1430
I60
sS'walk_dist'
p1431
I5
sS'name'
p1432
VCyborg
p1433
sS'num_enemies'
p1434
I5
sS'attack_min'
p1435
I20
sS'delay_shoot'
p1436
I15
sg232
I7
sS'unit_type'
p1437
Vsoldier
p1438
sS'max_life'
p1439
I60
sS'attack_max'
p1440
I35
sS'shoot_dist'
p1441
I7
sg225
I120
sS'elite'
p1442
I0
sS'shield_factor'
p1443
F0.6
sg226
(dp1444
VSpeed I
p1445
(dp1446
S'delay'
p1447
I0
sS'category'
p1448
S'upgrade'
p1449
sS'price'
p1450
I0
sS'actions'
p1451
(lp1452
sS'num_uses'
p1453
I-1
sssS'shield'
p1454
I40
sssI8
(dp1455
S'elite_parameters'
p1456
(dp1457
S'ticks'
p1458
(dp1459
I0
(lp1460
sI250
(lp1461
(dp1462
S'target'
p1463
S'self'
p1464
sS'level'
p1465
S'id'
p1466
sS'type'
p1467
S'change'
p1468
sS'random'
p1469
I0
sS'num_units'
p1470
I0
sS'changes'
p1471
(dp1472
Vlife
p1473
I20
sVelite
p1474
I1
sVshield
p1475
I5
ssasI500
(lp1476
(dp1477
g1463
g1464
sg1465
g1466
sg1467
g1468
sg1469
I0
sg1470
I0
sg1471
(dp1478
Vlife
p1479
I100
sVmax_life
p1480
I10
sVelite
p1481
I1
sVshield
p1482
I5
ssassS'damage'
p1483
(dp1484
I0
(lp1485
sI500
(lp1486
sssS'basic_parameters'
p1487
(dp1488
S'delay_walk'
p1489
I15
sS'life'
p1490
I70
sS'walk_dist'
p1491
I5
sS'name'
p1492
VKommandant
p1493
sS'num_enemies'
p1494
I4
sS'attack_min'
p1495
I20
sS'delay_shoot'
p1496
I15
sg71
I8
sS'unit_type'
p1497
Vsoldier
p1498
sS'max_life'
p1499
I70
sS'attack_max'
p1500
I30
sS'shoot_dist'
p1501
I6
sg745
I250
sS'elite'
p1502
I4
sS'shield_factor'
p1503
F0.6
sg746
(dp1504
VLuftunterstuetzung
p1505
(dp1506
g742
I100
sg743
Vstandard
p1507
sg745
I150
sg746
(lp1508
(dp1509
g68
Venemy
p1510
sg70
Vid
p1511
sg72
Vchange
p1512
sg74
F0.6
sg75
I8
sg76
(dp1513
Vlife
p1514
I-17
sVshield
p1515
I-12
ssasg753
I-1
ssVDrill Sergent
p1516
(dp1517
S'delay'
p1518
I0
sS'category'
p1519
Vupgrade
p1520
sS'price'
p1521
I60
sS'actions'
p1522
(lp1523
(dp1524
S'target'
p1525
Vown
p1526
sS'level'
p1527
Vid
p1528
sS'type'
p1529
Vchange
p1530
sS'random'
p1531
F0.0
sS'num_units'
p1532
I0
sS'changes'
p1533
(dp1534
Vattack_min
p1535
I10
sVattack_max
p1536
I8
sVdelay_shoot
p1537
I-3
ssasS'num_uses'
p1538
I-1
ssVFallschirmspringer
p1539
(dp1540
g636
I20
sg637
Vupgrade
p1541
sg639
I450
sg632
(lp1542
(dp1543
g44
Vnew
p1544
sg40
Vown
p1545
sg55
(lp1546
I0
aI0
aI2
asg42
Vgroups
p1547
sasg641
I-1
ssVSpionageausbildung
p1548
(dp1549
S'delay'
p1550
I0
sS'category'
p1551
Vupgrade
p1552
sS'price'
p1553
I170
sS'actions'
p1554
(lp1555
(dp1556
S'target'
p1557
S'self'
p1558
sS'level'
p1559
S'id'
p1560
sS'type'
p1561
S'change'
p1562
sS'random'
p1563
I0
sS'num_units'
p1564
I0
sS'changes'
p1565
(dp1566
Velite
p1567
I1
sg1554
(dp1568
VWirtschafts-Spionage
p1569
(dp1570
g1550
I40
sg1551
Vupgrade
p1571
sg1553
I80
sg1554
(lp1572
(dp1573
g1557
g1558
sg1559
g1560
sg1561
g1562
sg1563
I0
sg1564
I0
sg1565
(dp1574
g1554
(dp1575
VDieb
p1576
(dp1577
g1550
I60
sg1551
Vequipment
p1578
sg1553
I200
sg1554
(lp1579
(dp1580
g1561
Vchange
p1581
sg1563
F0.5
sg1565
(dp1582
Vaccount
p1583
I-150
ssg1557
Venemy
p1584
sg1559
Vplayer
p1585
sa(dp1586
g1561
Vchange
p1587
sg1563
F0.7
sg1565
(dp1588
Vaccount
p1589
I80
ssg1557
Vown
p1590
sg1559
Vplayer
p1591
sasS'num_uses'
p1592
I-1
ssssasg1592
I-1
ssVID-Spionage
p1593
(dp1594
g1550
I40
sg1551
Vequipment
p1595
sg1553
I100
sg1554
(lp1596
sg1592
I-1
ssssasg1592
I1
sssS'shield'
p1597
I10
sssI9
(dp1598
S'elite_parameters'
p1599
(dp1600
S'ticks'
p1601
(dp1602
I0
(lp1603
ssS'damage'
p1604
(dp1605
I0
(lp1606
sssS'basic_parameters'
p1607
(dp1608
S'delay_walk'
p1609
I0
sS'life'
p1610
I100
sS'walk_dist'
p1611
I0
sS'name'
p1612
VFlak
p1613
sS'num_enemies'
p1614
I3
sS'attack_min'
p1615
I60
sS'delay_shoot'
p1616
I15
sS'id'
p1617
I9
sS'unit_type'
p1618
Vvehicle
p1619
sS'max_life'
p1620
I100
sS'attack_max'
p1621
I80
sS'shoot_dist'
p1622
I5
sS'price'
p1623
I200
sS'elite'
p1624
I0
sS'shield_factor'
p1625
F0.6
sS'actions'
p1626
(dp1627
Vnix
p1628
(dp1629
S'delay'
p1630
I0
sS'category'
p1631
S'upgrade'
p1632
sg1623
I0
sg1626
(lp1633
sS'num_uses'
p1634
I-1
sssS'shield'
p1635
I0
sssI10
(dp1636
S'elite_parameters'
p1637
(dp1638
S'ticks'
p1639
(dp1640
I0
(lp1641
ssS'damage'
p1642
(dp1643
I0
(lp1644
sssS'basic_parameters'
p1645
(dp1646
S'delay_walk'
p1647
I11
sS'life'
p1648
I40
sS'walk_dist'
p1649
I6
sS'name'
p1650
VMotorrad
p1651
sS'num_enemies'
p1652
I4
sS'attack_min'
p1653
I5
sS'delay_shoot'
p1654
I15
sS'id'
p1655
I10
sS'unit_type'
p1656
Vvehicle
p1657
sS'max_life'
p1658
I40
sS'attack_max'
p1659
I10
sS'shoot_dist'
p1660
I5
sg1521
I40
sS'elite'
p1661
I0
sS'shield_factor'
p1662
F0.45
sg1522
(dp1663
VSchutzweste
p1664
(dp1665
g1518
I0
sg1519
Vupgrade
p1666
sg1521
I30
sg1522
(lp1667
(dp1668
g1525
S'self'
p1669
sg1527
g1655
sg1529
S'change'
p1670
sg1531
I0
sg1532
I0
sg1533
(dp1671
Vshield
p1672
I8
ssasg1538
I1
ssVneue Reifen
p1673
(dp1674
g1518
I0
sg1519
Vupgrade
p1675
sg1521
I20
sg1522
(lp1676
(dp1677
g1525
g1669
sg1527
g1655
sg1529
g1670
sg1531
I0
sg1532
I0
sg1533
(dp1678
Vwalk_dist
p1679
I1
sVelite
p1680
I1
sg1522
(dp1681
Vleichteres Motorrad
p1682
(dp1683
g1518
I0
sg1519
Vupgrade
p1684
sg1521
I20
sg1522
(lp1685
(dp1686
g1525
g1669
sg1527
g1655
sg1529
g1670
sg1531
I0
sg1532
I0
sg1533
(dp1687
Vdelay_walk
p1688
I-1
sVwalk_dist
p1689
I1
sVelite
p1690
I1
ssasg1538
I1
ssssasg1538
I1
ssVDrive by lernen
p1691
(dp1692
g1518
I0
sg1519
Vupgrade
p1693
sg1521
I30
sg1522
(lp1694
(dp1695
g1525
g1669
sg1527
g1655
sg1529
g1670
sg1531
I0
sg1532
I0
sg1533
(dp1696
Vattack_min
p1697
I7
sVelite
p1698
I1
sVattack_max
p1699
I5
ssasg1538
I1
sssS'shield'
p1700
I0
sssI11
(dp1701
S'elite_parameters'
p1702
(dp1703
S'ticks'
p1704
(dp1705
I0
(lp1706
ssS'damage'
p1707
(dp1708
I0
(lp1709
sssS'basic_parameters'
p1710
(dp1711
S'delay_walk'
p1712
I0
sS'life'
p1713
I0
sS'walk_dist'
p1714
I0
sS'name'
p1715
VJavelin
p1716
sS'num_enemies'
p1717
I2
sS'attack_min'
p1718
I8
sS'delay_shoot'
p1719
I20
sg901
I11
sS'unit_type'
p1720
Vsoldier
p1721
sS'max_life'
p1722
I0
sS'attack_max'
p1723
I12
sS'shoot_dist'
p1724
I9
sg894
I0
sS'elite'
p1725
I0
sS'shield_factor'
p1726
F2.0
sg895
(dp1727
S'Dummy (delete this)'
p1728
(dp1729
g891
I0
sg892
S'standard'
p1730
sg894
I0
sg895
(lp1731
sg911
I0
sssS'shield'
p1732
I0
ssssS'engine_parameters'
p1733
(dp1734
S'max_victory_diff'
p1735
F50.0
sS'all_sectors'
p1736
(dp1737
I1
(dp1738
S'victory'
p1739
I0
sS'weight'
p1740
F1.0
ssI2
(dp1741
g1739
I0
sg1740
F1.0
ssI3
(dp1742
g1739
I0
sg1740
F1.0
ssI4
(dp1743
g1739
I0
sg1740
F1.0
ssI5
(dp1744
g1739
I0
sg1740
F1.0
ssI6
(dp1745
g1739
I0
sg1740
F1.0
ssI7
(dp1746
g1739
I0
sg1740
F1.0
ssI8
(dp1747
g1739
I0
sg1740
F1.0
ssI9
(dp1748
g1739
I0
sg1740
F1.0
ssI10
(dp1749
g1739
I0
sg1740
F1.0
ssI11
(dp1750
g1739
I0
sg1740
F1.0
ssI12
(dp1751
g1739
I0
sg1740
F1.0
ssI13
(dp1752
g1739
I0
sg1740
F1.0
ssI14
(dp1753
g1739
I0
sg1740
F1.0
ssI15
(dp1754
g1739
I0
sg1740
F1.0
ssI16
(dp1755
g1739
I0
sg1740
F1.0
ssI17
(dp1756
g1739
I0
sg1740
F1.0
ssI18
(dp1757
g1739
I0
sg1740
F1.0
sssS'delay_damage'
p1758
F0.5
sS'extra_shoot_dist'
p1759
F2.0
sS'constant_per_tick'
p1760
F4.0
sS'per_sector_per_tick'
p1761
F1.0
sS'take_over_factor'
p1762
F1.3
sS'tick_duration'
p1763
F11.0
sS'protection_effect'
p1764
F0.4
sS'protection_in'
p1765
F18.0
sS'sector_takeover'
p1766
F170.0
sS'protection_out'
p1767
F10.0
sS'start_account'
p1768
F10000.0
ssS'transport_parameters'
p1769
(dp1770
I0
(dp1771
g126
(dp1772
g128
(dp1773
I0
(lp1774
ssg143
(dp1775
I0
(lp1776
sssg146
(dp1777
S'delay_walk'
p1778
I15
sg148
I100
sS'walk_dist'
p1779
I10
sg151
I10
sg152
VTransporter
p1780
sS'transports'
p1781
Vsoldier
p1782
sg243
F0.4
sg156
I0
sg157
I25
sg158
I20
sg162
I20
sg160
I200
sg244
I4
sg161
I100
sg245
I7
sg166
I5
sg242
I0
sg159
I0
sg167
(dp1783
VPanzerung
p1784
(dp1785
S'delay'
p1786
I30
sS'category'
p1787
Vupgrade
p1788
sS'price'
p1789
I60
sS'actions'
p1790
(lp1791
(dp1792
g526
g527
sg528
g529
sg530
g531
sg532
I0
sg533
I0
sg534
(dp1793
Vdelay_walk
p1794
I3
sVelite
p1795
I1
sVshield
p1796
I50
sg1790
(dp1797
VCasspir
p1798
(dp1799
g1786
I0
sg1787
Vupgrade
p1800
sg1789
I90
sg1790
(lp1801
(dp1802
g526
g527
sg528
g529
sg530
g531
sg532
I0
sg533
I0
sg534
(dp1803
Vdelay_walk
p1804
I-5
sVelite
p1805
I1
sVshield
p1806
I75
ssasS'num_uses'
p1807
I1
ssssasg1807
I1
ssVMG
p1808
(dp1809
g1786
I0
sg1787
Vupgrade
p1810
sg1789
I40
sg1790
(lp1811
(dp1812
g526
Vself
p1813
sg528
Vid
p1814
sg530
Vchange
p1815
sg532
F0.0
sg533
I0
sg534
(dp1816
Vattack_min
p1817
I25
sVelite
p1818
I1
sVattack_max
p1819
I50
sg1790
(dp1820
VKampfmaschine
p1821
(dp1822
g1786
I0
sg1787
Vupgrade
p1823
sg1789
I80
sg1790
(lp1824
(dp1825
g526
g527
sg528
g529
sg530
g531
sg532
I0
sg533
I0
sg534
(dp1826
Vshield_factor
p1827
F0.2
sVattack_min
p1828
I30
sVelite
p1829
I1
sVattack_max
p1830
I30
ssasg1807
I1
ssssasg1807
I1
ssVmehr Platz I
p1831
(dp1832
g1786
I0
sg1787
Vupgrade
p1833
sg1789
I70
sg1790
(lp1834
(dp1835
g526
g527
sg528
g529
sg530
g531
sg532
I0
sg533
I0
sg534
(dp1836
Velite
p1837
I1
sVcapacity
p1838
I5
sg1790
(dp1839
Vmehr Platz II
p1840
(dp1841
g1786
I0
sg1787
Vupgrade
p1842
sg1789
I50
sg1790
(lp1843
(dp1844
g526
g527
sg528
g529
sg530
g531
sg532
I0
sg533
I0
sg534
(dp1845
Velite
p1846
I1
sVcapacity
p1847
I5
ssasg1807
I1
ssssasg1807
I1
sssg163
I0
sssI1
(dp1848
g247
(dp1849
g249
(dp1850
I0
(lp1851
ssg252
(dp1852
I0
(lp1853
sssg255
(dp1854
S'delay_walk'
p1855
I15
sg257
I100
sS'walk_dist'
p1856
I10
sg260
I10
sg261
VHelikopter
p1857
sS'transports'
p1858
Vsoldier
p1859
sg264
F0.4
sg265
I0
sg266
I50
sg267
I20
sg271
I30
sg269
I200
sg341
I4
sg270
I100
sg263
I10
sg337
I6
sg338
I0
sg268
I1
sg272
(dp1860
VBombe abwerfen
p1861
(dp1862
g276
I0
sg277
Vstandard
p1863
sg269
I80
sg272
(lp1864
(dp1865
g281
Venemy
p1866
sg283
Vid
p1867
sg285
Vchange
p1868
sg287
F0.3
sg288
I7
sg289
(dp1869
Vlife
p1870
I6
sg272
(dp1871
ssasg292
I-1
sssg342
I0
sssI2
(dp1872
S'elite_parameters'
p1873
(dp1874
S'ticks'
p1875
(dp1876
I0
(lp1877
ssS'damage'
p1878
(dp1879
I0
(lp1880
sssS'basic_parameters'
p1881
(dp1882
S'delay_walk'
p1883
I18
sS'life'
p1884
I150
sS'walk_dist'
p1885
I9
sS'capacity'
p1886
I3
sS'name'
p1887
VFahrzeug Transporter
p1888
sS'elite'
p1889
I0
sS'shield_factor'
p1890
F0.4
sS'attack_min'
p1891
I0
sS'delay_shoot'
p1892
I15
sg365
I2
sg358
I300
sS'max_life'
p1893
I150
sS'delay_out'
p1894
I15
sS'attack_max'
p1895
I0
sS'shoot_dist'
p1896
I5
sg359
(dp1897
Vmehr Platz
p1898
(dp1899
g355
I0
sg356
Vupgrade
p1900
sg358
I50
sg359
(lp1901
(dp1902
g362
g363
sg364
g365
sg366
g367
sg368
I0
sg369
I0
sg370
(dp1903
Vcapacity
p1904
I2
ssasg375
I1
sssS'transports'
p1905
Vvehicle
p1906
sS'delay_in'
p1907
I25
sS'num_enemies'
p1908
I4
sS'shield'
p1909
I20
ssssS'card_parameters'
p1910
(dp1911
I200
(lp1912
(dp1913
S'description'
p1914
VEine Gruppe kann in einen Helikopter verladen werden und deshalb 10 pro Runde ziehen.
p1915
sS'num_cards'
p1916
I10
sg1790
(lp1917
sS'title'
p1918
VHelitransport
p1919
sa(dp1920
S'title'
p1921
VGiftgas
p1922
sS'description'
p1923
VAlle Einheiten werden verwundet. Gegnerische staerker als eigene
p1924
sg991
(lp1925
(dp1926
S'target'
p1927
S'enemy'
p1928
sS'level'
p1929
S'id'
p1930
sS'type'
p1931
S'change'
p1932
sS'random'
p1933
F0.3
sS'num_units'
p1934
S'all'
p1935
sS'changes'
p1936
(dp1937
Vlife
p1938
I-8
ssa(dp1939
g1927
Vown
p1940
sg1929
Vid
p1941
sg1931
Vchange
p1942
sg1933
F0.3
sg1934
Vall
p1943
sg1936
(dp1944
Vlife
p1945
I-2
ssasS'num_cards'
p1946
I7
sa(dp1947
S'num_cards'
p1948
I12
sS'description'
p1949
VDescription
p1950
sS'actions'
p1951
(lp1952
(dp1953
g1927
Vown
p1954
sg1929
Vid
p1955
sg1931
Vchange
p1956
sg1933
F0.2
sg1934
I6
sg1936
(dp1957
Vlife
p1958
I20
ssasS'title'
p1959
VFeldapotheke
p1960
sass.