(dp0
S'building_parameters'
p1
(dp2
I0
(dp3
S'elite_parameters'
p4
(dp5
S'ticks'
p6
(dp7
I0
(lp8
ssS'damage'
p9
(dp10
I0
(lp11
sssS'basic_parameters'
p12
(dp13
S'delay_out'
p14
I10
sS'life'
p15
I2000
sS'shop_transporter'
p16
(lp17
sS'capacity'
p18
I25
sS'name'
p19
VHauptquartier
p20
sS'shield_factor'
p21
F0.4
sS'shop_units'
p22
(lp23
I1
aI10
asS'attack_min'
p24
I0
sS'delay_shoot'
p25
I15
sS'id'
p26
I0
sS'price'
p27
I2000
sS'max_life'
p28
I2000
sS'max_shield'
p29
I0
sS'actions'
p30
(dp31
VArzneistudium +
p32
(dp33
S'delay'
p34
I0
sS'category'
p35
Vupgrade
p36
sS'price'
p37
I400
sS'actions'
p38
(lp39
(dp40
S'target'
p41
S'self'
p42
sS'level'
p43
S'id'
p44
sS'type'
p45
S'change'
p46
sS'random'
p47
I0
sS'num_units'
p48
I0
sS'changes'
p49
(dp50
Vshop_units
p51
(lp52
I6
assa(dp53
g45
Vnew
p54
sg41
Vown
p55
sS'parameters'
p56
(lp57
I6
asg43
Vgroups
p58
sasS'num_uses'
p59
I1
ssVKommandant +
p60
(dp61
S'delay'
p62
I0
sS'category'
p63
Vupgrade
p64
sS'price'
p65
I500
sS'actions'
p66
(lp67
(dp68
S'target'
p69
S'self'
p70
sS'level'
p71
S'id'
p72
sS'type'
p73
S'change'
p74
sS'random'
p75
I0
sS'num_units'
p76
I0
sS'changes'
p77
(dp78
Vshop_units
p79
(lp80
I8
assa(dp81
S'type'
p82
Vnew
p83
sS'target'
p84
Vown
p85
sS'parameters'
p86
(lp87
I8
asS'level'
p88
Vgroups
p89
sasS'num_uses'
p90
I1
ssVHelikopter-Plattform +
p91
(dp92
S'delay'
p93
I0
sS'category'
p94
Vupgrade
p95
sS'price'
p96
I400
sS'actions'
p97
(lp98
(dp99
S'target'
p100
S'self'
p101
sS'level'
p102
S'id'
p103
sS'type'
p104
S'change'
p105
sS'random'
p106
I0
sS'num_units'
p107
I0
sS'changes'
p108
(dp109
Vshop_transporter
p110
(lp111
I1
assa(dp112
g104
Vnew
p113
sg100
Vown
p114
sS'parameters'
p115
I1
sg102
Vtransporter
p116
sasS'num_uses'
p117
I1
sssS'attack_max'
p118
I0
sS'enter'
p119
Vsoldier
p120
sS'shoot_dist'
p121
I6
sS'elite'
p122
I0
sS'delay_in'
p123
I20
sS'num_enemies'
p124
I4
sS'shield'
p125
I0
sssI1
(dp126
S'elite_parameters'
p127
(dp128
S'ticks'
p129
(dp130
I500
(lp131
(dp132
S'target'
p133
S'self'
p134
sS'level'
p135
S'id'
p136
sS'type'
p137
S'change'
p138
sS'random'
p139
I0
sS'num_units'
p140
I0
sS'changes'
p141
(dp142
V
p143
F1.0
ssassS'damage'
p144
(dp145
I0
(lp146
sssS'basic_parameters'
p147
(dp148
S'life'
p149
I800
sS'shop_transporter'
p150
(lp151
sS'capacity'
p152
I15
sS'name'
p153
VKaserne
p154
sS'shop_units'
p155
(lp156
I0
asS'attack_min'
p157
I0
sS'shield'
p158
I100
sS'delay_shoot'
p159
I15
sS'delay_in'
p160
I20
sS'price'
p161
I600
sS'max_life'
p162
I800
sg29
I0
sS'attack_max'
p163
I0
sS'enter'
p164
Vsoldier
p165
sS'id'
p166
I1
sS'shoot_dist'
p167
I6
sS'actions'
p168
(dp169
VSniper +
p170
(dp171
S'delay'
p172
I0
sS'category'
p173
Vupgrade
p174
sS'price'
p175
I200
sS'actions'
p176
(lp177
(dp178
S'target'
p179
S'self'
p180
sS'level'
p181
S'id'
p182
sS'type'
p183
S'change'
p184
sS'random'
p185
I0
sS'num_units'
p186
I0
sS'changes'
p187
(dp188
Vshop_units
p189
(lp190
I3
assa(dp191
S'type'
p192
Vnew
p193
sS'target'
p194
Vown
p195
sS'parameters'
p196
(lp197
I3
asS'level'
p198
Vgroups
p199
sasS'num_uses'
p200
I1
ssVVerteidigung
p201
(dp202
S'delay'
p203
I20
sS'category'
p204
Vupgrade
p205
sS'price'
p206
I100
sS'actions'
p207
(lp208
(dp209
g133
g134
sg135
g136
sg137
g138
sg139
I0
sg140
I0
sg141
(dp210
Vattack_min
p211
I20
sVattack_max
p212
I40
ssasS'num_uses'
p213
I1
ssVMG-Soldat
p214
(dp215
S'delay'
p216
I0
sS'category'
p217
Vupgrade
p218
sS'price'
p219
I250
sS'actions'
p220
(lp221
(dp222
g133
g134
sg135
g136
sg137
g138
sg139
I0
sg140
I0
sg141
(dp223
Vshop_units
p224
(lp225
I2
asVelite
p226
I1
sS'actions'
p227
(dp228
VCyborg
p229
(dp230
S'delay'
p231
I0
sS'category'
p232
Vupgrade
p233
sS'price'
p234
I200
sg227
(lp235
(dp236
S'target'
p237
S'self'
p238
sS'level'
p239
S'id'
p240
sS'type'
p241
S'change'
p242
sS'random'
p243
I0
sS'num_units'
p244
I0
sS'changes'
p245
(dp246
Vshop_units
p247
(lp248
I7
asVelite
p249
I1
ssasS'num_uses'
p250
I1
ssssasS'num_uses'
p251
I1
ssVJavelin +
p252
(dp253
S'delay'
p254
I0
sS'category'
p255
Vupgrade
p256
sS'price'
p257
I400
sS'actions'
p258
(lp259
(dp260
S'target'
p261
S'self'
p262
sS'level'
p263
S'id'
p264
sS'type'
p265
S'change'
p266
sS'random'
p267
I0
sS'num_units'
p268
I0
sS'changes'
p269
(dp270
Vshop_units
p271
(lp272
I11
asVelite
p273
I1
ssa(dp274
g265
Vnew
p275
sg261
Vown
p276
sS'parameters'
p277
(lp278
I11
asg263
Vgroups
p279
sasS'num_uses'
p280
I1
sssS'elite'
p281
I0
sS'shield_factor'
p282
F0.4
sS'num_enemies'
p283
I4
sS'delay_out'
p284
I10
sssI2
(dp285
S'elite_parameters'
p286
(dp287
S'ticks'
p288
(dp289
I0
(lp290
ssS'damage'
p291
(dp292
I0
(lp293
sssS'basic_parameters'
p294
(dp295
S'life'
p296
I500
sS'shop_transporter'
p297
(lp298
sS'capacity'
p299
I10
sS'name'
p300
VLazarett
p301
sS'delay_out'
p302
I10
sS'shield_factor'
p303
F0.4
sS'attack_min'
p304
I0
sS'shield'
p305
I75
sS'delay_shoot'
p306
I15
sS'delay_in'
p307
I20
sS'price'
p308
I500
sS'max_life'
p309
I500
sg29
I0
sS'actions'
p310
(dp311
V10x heilen
p312
(dp313
S'delay'
p314
I50
sS'category'
p315
Vstandard
p316
sg308
I400
sg310
(lp317
(dp318
S'target'
p319
Vown
p320
sS'level'
p321
Vid
p322
sS'type'
p323
Vchange
p324
sS'random'
p325
F0.0
sS'num_units'
p326
I0
sS'changes'
p327
(dp328
Vlife
p329
I50
ssasS'num_uses'
p330
I-1
ssV1x heilen
p331
(dp332
g314
I40
sg315
Vstandard
p333
sg308
I70
sg310
(lp334
(dp335
g319
Vown
p336
sg321
Vid
p337
sg323
Vchange
p338
sg325
F0.0
sg326
I1
sg327
(dp339
Vlife
p340
I50
ssasg330
I-1
ssVArztneistudium
p341
(dp342
S'delay'
p343
I0
sS'category'
p344
Vupgrade
p345
sS'price'
p346
I200
sS'actions'
p347
(lp348
(dp349
S'target'
p350
S'self'
p351
sS'level'
p352
S'id'
p353
sS'type'
p354
S'change'
p355
sS'random'
p356
I0
sS'num_units'
p357
I0
sS'changes'
p358
(dp359
Vshop_units
p360
(lp361
I6
assasS'num_uses'
p362
I1
ssV5x heilen
p363
(dp364
g314
I50
sg315
Vstandard
p365
sg308
I200
sg310
(lp366
(dp367
g319
Vown
p368
sg321
Vid
p369
sg323
Vchange
p370
sg325
F0.0
sg326
I5
sg327
(dp371
Vlife
p372
I50
ssasg330
I-1
sssS'enter'
p373
Vsoldier
p374
sS'id'
p375
I2
sS'shoot_dist'
p376
I6
sS'elite'
p377
I0
sS'shop_units'
p378
(lp379
sS'num_enemies'
p380
I4
sS'attack_max'
p381
I0
sssI3
(dp382
g286
(dp383
g288
(dp384
I0
(lp385
ssg291
(dp386
I0
(lp387
sssg294
(dp388
g296
I500
sg297
(lp389
I0
asg299
I10
sg300
VWerkstatt
p390
sg302
I10
sg303
F0.4
sg304
I0
sg305
I50
sg306
I15
sg307
I20
sg308
I700
sg309
I500
sg29
I0
sg310
(dp391
VFahrzeug Transporter
p392
(dp393
S'delay'
p394
I0
sS'category'
p395
Vupgrade
p396
sS'price'
p397
I150
sS'actions'
p398
(lp399
(dp400
S'target'
p401
S'self'
p402
sS'level'
p403
S'id'
p404
sS'type'
p405
S'change'
p406
sS'random'
p407
I0
sS'num_units'
p408
I0
sS'changes'
p409
(dp410
Vshop_transporter
p411
(lp412
I2
asVelite
p413
I1
ssasS'num_uses'
p414
I1
ssVArtillerie
p415
(dp416
S'delay'
p417
I0
sS'category'
p418
Vupgrade
p419
sS'price'
p420
I300
sS'actions'
p421
(lp422
(dp423
S'target'
p424
S'self'
p425
sS'level'
p426
S'id'
p427
sS'type'
p428
S'change'
p429
sS'random'
p430
I0
sS'num_units'
p431
I0
sS'changes'
p432
(dp433
Vshop_units
p434
(lp435
I5
asVelite
p436
I1
ssasS'num_uses'
p437
I1
ssVVerteidigung
p438
(dp439
S'delay'
p440
I0
sS'category'
p441
Vupgrade
p442
sS'price'
p443
I50
sS'actions'
p444
(lp445
(dp446
g350
g351
sg352
g353
sg354
g355
sg356
I0
sg357
I0
sg358
(dp447
Vattack_min
p448
I30
sVattack_max
p449
I50
ssasS'num_uses'
p450
I1
sssg373
Vvehicle
p451
sg375
I3
sg376
I6
sg377
I0
sg378
(lp452
I4
asg380
I4
sg381
I0
sssI4
(dp453
g286
(dp454
g288
(dp455
I0
(lp456
ssg291
(dp457
I0
(lp458
sssg294
(dp459
g296
I800
sg297
(lp460
sg299
I15
sg300
VFlughafen
p461
sg302
I10
sg303
F0.4
sg304
I0
sg305
I100
sg306
I15
sg307
I20
sg308
I1000
sg309
I800
sg29
I0
sg310
(dp462
VFlak & Verteidigung
p463
(dp464
g394
I0
sg395
Vupgrade
p465
sg397
I100
sg398
(lp466
(dp467
g401
g402
sg403
g404
sg405
g406
sg407
I0
sg408
I0
sg409
(dp468
Vshop_units
p469
(lp470
I9
asVattack_min
p471
I30
sVelite
p472
I1
sVattack_max
p473
I50
ssasg414
I1
ssVHelikopter Landeplattform
p474
(dp475
g314
I0
sg315
Vupgrade
p476
sg308
I400
sg310
(lp477
(dp478
g319
S'self'
p479
sg321
g375
sg323
S'change'
p480
sg325
I0
sg326
I0
sg327
(dp481
Vshop_transporter
p482
(lp483
I1
asVelite
p484
I1
sS'actions'
p485
(dp486
VFallschirmspringer
p487
(dp488
S'delay'
p489
I0
sS'category'
p490
S'upgrade'
p491
sS'price'
p492
I0
sS'actions'
p493
(lp494
sS'num_uses'
p495
I-1
ssssasg330
I1
sssg373
Vvehicle
p496
sg375
I4
sg376
I6
sg377
I0
sg378
(lp497
sg380
I4
sg381
I0
sssI5
(dp498
S'elite_parameters'
p499
(dp500
S'ticks'
p501
(dp502
I0
(lp503
ssS'damage'
p504
(dp505
I0
(lp506
sssS'basic_parameters'
p507
(dp508
S'life'
p509
I100
sS'shop_transporter'
p510
(lp511
sS'capacity'
p512
I0
sS'name'
p513
Vnix
p514
sS'shield_factor'
p515
F0.6
sS'elite'
p516
I0
sS'shop_units'
p517
(lp518
sS'attack_min'
p519
I60
sS'delay_shoot'
p520
I15
sS'id'
p521
I5
sS'price'
p522
I200
sS'num_enemies'
p523
I3
sg29
I0
sS'max_life'
p524
I100
sS'attack_max'
p525
I80
sS'enter'
p526
Vsoldier
p527
sS'shoot_dist'
p528
I5
sS'delay_out'
p529
I0
sS'delay_in'
p530
I0
sS'actions'
p531
(dp532
Vnix
p533
(dp534
S'delay'
p535
I0
sS'category'
p536
S'upgrade'
p537
sg522
I0
sg531
(lp538
sS'num_uses'
p539
I-1
sssS'shield'
p540
I0
sssI6
(dp541
g499
(dp542
g501
(dp543
I0
(lp544
ssg504
(dp545
I0
(lp546
sssg507
(dp547
g509
I80
sg510
(lp548
sg512
I5
sg513
VMG-Nest
p549
sg515
F0.5
sg516
I0
sg517
(lp550
sg519
I20
sg520
I15
sg521
I6
sg522
I100
sg523
I4
sg29
I0
sg524
I80
sg525
I35
sg526
Vsoldier
p551
sg528
I6
sg529
I10
sg530
I15
sg531
(dp552
VPanzerabwehr
p553
(dp554
S'delay'
p555
I20
sS'category'
p556
Vupgrade
p557
sS'price'
p558
I150
sS'actions'
p559
(lp560
(dp561
g194
S'self'
p562
sg198
S'id'
p563
sg192
S'change'
p564
sS'random'
p565
I0
sS'num_units'
p566
I0
sS'changes'
p567
(dp568
Vshoot_dist
p569
I1
sVattack_min
p570
I-10
sVelite
p571
I2
sVshield_factor
p572
F2.0
sVattack_max
p573
I-20
ssasS'num_uses'
p574
I1
ssVBetonguss
p575
(dp576
g555
I0
sg556
Vupgrade
p577
sg558
I50
sg559
(lp578
(dp579
g194
g562
sg198
g563
sg192
g564
sg565
I0
sg566
I0
sg567
(dp580
Velite
p581
I1
sVshield
p582
I15
ssasg574
I1
sssg540
I10
ssssS'unit_parameters'
p583
(dp584
I0
(dp585
S'elite_parameters'
p586
(dp587
S'ticks'
p588
(dp589
I1000
(lp590
(dp591
S'target'
p592
S'self'
p593
sS'level'
p594
S'id'
p595
sS'type'
p596
S'change'
p597
sS'random'
p598
I0
sS'num_units'
p599
I0
sS'changes'
p600
(dp601
Vlife
p602
I10
sVelite
p603
I1
ssasI500
(lp604
(dp605
g592
g593
sg594
g595
sg596
g597
sg598
I0
sg599
I0
sg600
(dp606
Vlife
p607
I10
sVelite
p608
I1
ssassS'damage'
p609
(dp610
I1000
(lp611
(dp612
S'target'
p613
S'self'
p614
sS'level'
p615
S'id'
p616
sS'type'
p617
S'change'
p618
sS'random'
p619
I0
sS'num_units'
p620
I0
sS'changes'
p621
(dp622
Vshoot_dist
p623
I2
sVmax_life
p624
I8
sVelite
p625
I1
sVattack_max
p626
I11
ssasI500
(lp627
(dp628
g592
g593
sg594
g595
sg596
g597
sg598
I0
sg599
I0
sg600
(dp629
Velite
p630
I1
sVattack_max
p631
I8
ssasI750
(lp632
(dp633
g613
g614
sg615
g616
sg617
g618
sg619
I0
sg620
I0
sg621
(dp634
Vattack_min
p635
I8
sVelite
p636
I1
sVattack_max
p637
I10
ssasssS'basic_parameters'
p638
(dp639
S'delay_walk'
p640
I15
sS'life'
p641
I50
sS'walk_dist'
p642
I5
sS'name'
p643
VSoldat
p644
sS'num_enemies'
p645
I4
sS'attack_min'
p646
I10
sS'delay_shoot'
p647
I15
sS'id'
p648
I0
sS'unit_type'
p649
Vsoldier
p650
sS'max_life'
p651
I50
sg29
I0
sS'attack_max'
p652
I20
sS'shoot_dist'
p653
I6
sS'price'
p654
I70
sS'elite'
p655
I0
sS'shield_factor'
p656
F0.5
sS'actions'
p657
(dp658
V3 HG
p659
(dp660
S'delay'
p661
I0
sS'category'
p662
Vequipment
p663
sg161
I70
sg168
(lp664
(dp665
S'target'
p666
S'self'
p667
sS'level'
p668
S'id'
p669
sS'type'
p670
S'change'
p671
sS'random'
p672
I0
sS'num_units'
p673
I0
sS'changes'
p674
(dp675
S'actions'
p676
(dp677
VHG
p678
(dp679
S'delay'
p680
I15
sS'category'
p681
Vstandard
p682
sS'price'
p683
I0
sg676
(lp684
(dp685
g666
Venemy
p686
sg668
Vid
p687
sg670
Vchange
p688
sg672
F0.3
sg673
I3
sg674
(dp689
Vlife
p690
I-10
ssasS'num_uses'
p691
I3
ssssasS'num_uses'
p692
I-1
ssVSchutzweste
p693
(dp694
g314
I0
sg315
Vupgrade
p695
sg308
I30
sg310
(lp696
(dp697
g319
g479
sg321
g375
sg323
g480
sg325
I0
sg326
I0
sg327
(dp698
Vshield
p699
I10
sg310
(dp700
VSchild & wenig heilen
p701
(dp702
g314
I0
sg315
Vupgrade
p703
sg308
I50
sg310
(lp704
(dp705
g319
g479
sg321
g375
sg323
g480
sg325
I0
sg326
I0
sg327
(dp706
Vlife
p707
I15
sVmax_life
p708
I6
sVelite
p709
I1
sVshield
p710
I15
ssasg330
I1
ssssasg330
I1
ssVneue Munition
p711
(dp712
g661
I0
sg662
Vupgrade
p713
sg161
I20
sg168
(lp714
(dp715
S'target'
p716
S'self'
p717
sS'level'
p718
g166
sS'type'
p719
S'change'
p720
sS'random'
p721
I0
sS'num_units'
p722
I0
sS'changes'
p723
(dp724
Vattack_min
p725
I5
sVattack_max
p726
I5
sg168
(dp727
VSchnellfeuer
p728
(dp729
g661
I0
sg662
Vupgrade
p730
sg161
I30
sg168
(lp731
(dp732
g716
g717
sg718
g166
sg719
g720
sg721
I0
sg722
I0
sg723
(dp733
Vnum_enemies
p734
I2
sVattack_min
p735
I4
sVelite
p736
I1
sVattack_max
p737
I8
sS'actions'
p738
(dp739
VFlammenwerfer
p740
(dp741
g555
I0
sg556
Vupgrade
p742
sg558
I40
sg559
(lp743
(dp744
g194
g562
sg198
g563
sg192
g564
sg565
I0
sg566
I0
sg567
(dp745
Vnum_enemies
p746
I4
sVattack_min
p747
I10
sVelite
p748
I1
sVattack_max
p749
I10
ssasg574
I1
ssVSchildexperte
p750
(dp751
S'delay'
p752
I0
sS'category'
p753
Vupgrade
p754
sS'price'
p755
I0
sg738
(lp756
sS'num_uses'
p757
I0
ssssasg692
I1
ssVSchildexperte
p758
(dp759
g661
I0
sg662
Vupgrade
p760
sg161
I30
sg168
(lp761
(dp762
g716
g717
sg718
g166
sg719
g720
sg721
I0
sg722
I0
sg723
(dp763
Vshield_factor
p764
F0.1
sVattack_min
p765
I6
sVelite
p766
I1
sVattack_max
p767
I4
sg168
(dp768
VSchnellfeuer
p769
(dp770
S'delay'
p771
I0
sS'category'
p772
Vupgrade
p773
sS'price'
p774
I0
sS'actions'
p775
(lp776
sS'num_uses'
p777
I0
ssVPanzerbrecher
p778
(dp779
g555
I0
sg556
Vupgrade
p780
sg558
I40
sg559
(lp781
(dp782
g194
g562
sg198
g563
sg192
g564
sg565
I0
sg566
I0
sg567
(dp783
Vshield_factor
p784
F0.2
sVattack_min
p785
I4
sVelite
p786
I1
sVattack_max
p787
I10
ssasg574
I1
ssssasg692
I1
ssssasg692
I1
ssVneue Schuhe
p788
(dp789
g661
I0
sg662
Vupgrade
p790
sg161
I20
sg168
(lp791
(dp792
g716
Vself
p793
sg718
Vid
p794
sg719
Vchange
p795
sg721
F0.0
sg722
F1.0
sg723
(dp796
Vdelay_walk
p797
I-2
sVwalk_dist
p798
I1
sVelite
p799
I1
sg168
(dp800
ssasg692
I1
sssS'shield'
p801
I0
sssI1
(dp802
g586
(dp803
g588
(dp804
I1000
(lp805
(dp806
g716
g717
sg718
g166
sg719
g720
sg721
I0
sg722
I0
sg723
(dp807
Vwalk_dist
p808
I1
sVshield
p809
I10
ssassg609
(dp810
I0
(lp811
sssg638
(dp812
g640
I15
sg641
I40
sg642
I5
sg643
VIngenieur
p813
sg645
I1
sg646
I3
sg647
I15
sg648
I1
sg649
Vsoldier
p814
sg651
I40
sg29
I0
sg652
I5
sg653
I2
sg654
I100
sg655
I0
sg656
F0.4
sg657
(dp815
VBruecke bauen
p816
(dp817
S'delay'
p818
I50
sS'category'
p819
Vshop
p820
sS'price'
p821
I100
sS'actions'
p822
(lp823
(dp824
S'target'
p825
S'self'
p826
sS'level'
p827
S'id'
p828
sS'type'
p829
S'change'
p830
sS'random'
p831
I0
sS'num_units'
p832
I0
sS'changes'
p833
(dp834
Vlife
p835
I0
ssasS'num_uses'
p836
I-1
ssVMG-Nest
p837
(dp838
S'delay'
p839
I40
sS'category'
p840
Vshop
p841
sS'price'
p842
I70
sS'actions'
p843
(lp844
(dp845
g73
Vnew
p846
sg69
Vown
p847
sS'parameters'
p848
I6
sg71
Vbuildings
p849
sasS'num_uses'
p850
I-1
ssVWerkstatt
p851
(dp852
g343
I60
sg344
Vshop
p853
sg346
I700
sg347
(lp854
(dp855
g354
Vnew
p856
sg350
Vown
p857
sS'parameters'
p858
I3
sg352
Vbuildings
p859
sasg362
I-1
ssVFlugplatz
p860
(dp861
g440
I80
sg441
Vshop
p862
sg443
I1000
sg444
(lp863
(dp864
S'type'
p865
Vnew
p866
sS'target'
p867
Vown
p868
sS'parameters'
p869
I4
sS'level'
p870
Vbuildings
p871
sasg450
I-1
ssVLazarett
p872
(dp873
g440
I50
sg441
Vshop
p874
sg443
I500
sg444
(lp875
(dp876
g865
Vnew
p877
sg867
Vown
p878
sg869
I2
sg870
Vbuildings
p879
sasg450
I-1
ssVKaserne
p880
(dp881
g661
I60
sg662
Vshop
p882
sg161
I600
sg168
(lp883
(dp884
g719
Vnew
p885
sg716
Vown
p886
sS'parameters'
p887
I1
sg718
Vbuildings
p888
sasg692
I-1
ssVKampfingenieur
p889
(dp890
g216
I0
sg217
Vupgrade
p891
sg219
I70
sg220
(lp892
(dp893
g133
g134
sg135
g136
sg137
g138
sg139
I0
sg140
I0
sg141
(dp894
Vattack_min
p895
I10
sVelite
p896
I1
sVattack_max
p897
I15
sg220
(dp898
V4 Granaten
p899
(dp900
g216
I0
sg217
Vequipment
p901
sg219
I70
sg220
(lp902
(dp903
g133
Vself
p904
sg135
Vid
p905
sg137
Vchange
p906
sg139
F0.4
sg140
I3
sg141
(dp907
g220
(dp908
VGranate
p909
(dp910
g216
I10
sg217
Vstandard
p911
sg219
I0
sg220
(lp912
(dp913
g133
Venemy
p914
sg135
Vid
p915
sg137
Vchange
p916
sg139
F0.4
sg140
I3
sg141
(dp917
Vlife
p918
I-20
ssasg251
I4
ssssasg251
I-1
sssVshield
p919
I8
ssasg251
I1
sssg801
I0
sssI2
(dp920
g586
(dp921
g588
(dp922
I0
(lp923
ssg609
(dp924
I500
(lp925
(dp926
S'target'
p927
S'self'
p928
sS'level'
p929
S'id'
p930
sS'type'
p931
S'change'
p932
sS'random'
p933
I0
sS'num_units'
p934
I0
sS'changes'
p935
(dp936
Vattack_min
p937
I10
sVelite
p938
I1
sS'actions'
p939
(dp940
VSchusstraining
p941
(dp942
S'delay'
p943
I0
sS'category'
p944
Vupgrade
p945
sS'price'
p946
I40
sg939
(lp947
(dp948
g261
g262
sg263
g264
sg265
g266
sg267
I0
sg268
I0
sg269
(dp949
Vshoot_dist
p950
I1
sVelite
p951
I1
sVdelay_shoot
p952
I-4
ssasS'num_uses'
p953
I1
ssssasssg638
(dp954
g640
I18
sg641
I80
sg642
I5
sg643
VMG-Soldat
p955
sg645
I10
sg646
I20
sg647
I20
sg648
I2
sg649
Vsoldier
p956
sg651
I80
sg29
I0
sg652
I60
sg653
I7
sg654
I175
sg655
I0
sg656
F0.55
sg657
(dp957
Vbessere Munition
p958
(dp959
g216
I0
sg217
Vupgrade
p960
sg219
I40
sg220
(lp961
(dp962
g133
g134
sg135
g136
sg137
g138
sg139
I0
sg140
I0
sg141
(dp963
Vattack_min
p964
I10
sVattack_max
p965
I5
sg220
(dp966
VPanzerbrecher
p967
(dp968
g216
I0
sg217
Vupgrade
p969
sg219
I60
sg220
(lp970
(dp971
g133
g134
sg135
g136
sg137
g138
sg139
I0
sg140
I0
sg141
(dp972
Vshield_factor
p973
F0.1
sVelite
p974
I1
sVattack_max
p975
I15
sg220
(dp976
VBazooka
p977
(dp978
g216
I0
sg217
Vupgrade
p979
sg219
I80
sg220
(lp980
(dp981
g133
g134
sg135
g136
sg137
g138
sg139
I0
sg140
I0
sg141
(dp982
Vshield_factor
p983
F0.15
sVattack_min
p984
I15
sVelite
p985
I1
sVnum_enemies
p986
I2
sVattack_max
p987
I10
ssasg251
I1
ssssasg251
I1
ssssasg251
I1
ssVKampfausbildung
p988
(dp989
S'delay'
p990
I0
sS'category'
p991
Vupgrade
p992
sS'price'
p993
I40
sS'actions'
p994
(lp995
(dp996
S'target'
p997
S'self'
p998
sS'level'
p999
S'id'
p1000
sS'type'
p1001
S'change'
p1002
sS'random'
p1003
I0
sS'num_units'
p1004
I0
sS'changes'
p1005
(dp1006
Vshoot_dist
p1007
I1
sVelite
p1008
I1
sVdelay_shoot
p1009
I-5
ssasS'num_uses'
p1010
I1
ssVSpeed I
p1011
(dp1012
g440
I0
sg441
Vupgrade
p1013
sg443
I40
sg444
(lp1014
(dp1015
g133
g134
sg135
g136
sg137
g138
sg139
I0
sg140
I0
sg141
(dp1016
Vdelay_walk
p1017
I-5
sVelite
p1018
I1
sg220
(dp1019
VSpeed II
p1020
(dp1021
g216
I0
sg217
Vupgrade
p1022
sg219
I50
sg220
(lp1023
(dp1024
g133
g134
sg135
g136
sg137
g138
sg139
I0
sg140
I0
sg141
(dp1025
Vdelay_walk
p1026
I-5
sVwalk_dist
p1027
I1
sVelite
p1028
I1
sVdelay_shoot
p1029
I-3
ssasg251
I1
ssssasg450
I1
sssg801
I20
sssI3
(dp1030
g586
(dp1031
g588
(dp1032
I200
(lp1033
(dp1034
g179
g180
sg181
g182
sg183
g184
sg185
I0
sg186
I0
sg187
(dp1035
Vattack_min
p1036
I5
sVelite
p1037
I1
sVshield
p1038
I8
ssasI500
(lp1039
(dp1040
g179
g180
sg181
g182
sg183
g184
sg185
I0
sg186
I0
sg187
(dp1041
Vshield_factor
p1042
F0.07
sVattack_min
p1043
I8
sVelite
p1044
I1
sVattack_max
p1045
I14
ssassg609
(dp1046
I0
(lp1047
sI250
(lp1048
(dp1049
g350
g351
sg352
g353
sg354
g355
sg356
I0
sg357
I0
sg358
(dp1050
Vattack_min
p1051
I8
sVelite
p1052
I1
sVattack_max
p1053
I8
sg347
(dp1054
Vschneller laden
p1055
(dp1056
g343
I0
sg344
Vupgrade
p1057
sg346
I40
sg347
(lp1058
(dp1059
g350
g351
sg352
g353
sg354
g355
sg356
I0
sg357
I0
sg358
(dp1060
Vdelay_shoot
p1061
I-4
ssasg362
I1
ssssasssg638
(dp1062
g640
I15
sg641
I50
sg642
I5
sg643
VSniper
p1063
sg645
I1
sg646
I40
sg647
I20
sg648
I3
sg649
Vsoldier
p1064
sg651
I50
sg29
I0
sg652
I60
sg653
I10
sg654
I200
sg655
I0
sg656
F0.6
sg657
(dp1065
VSchutzweste
p1066
(dp1067
g172
I0
sg173
Vupgrade
p1068
sg175
I30
sg176
(lp1069
(dp1070
g179
g180
sg181
g182
sg183
g184
sg185
I0
sg186
I0
sg187
(dp1071
Vshield
p1072
I10
ssasg200
I1
ssVSpeed I (ziehen und laden)
p1073
(dp1074
g172
I0
sg173
Vupgrade
p1075
sg175
I30
sg176
(lp1076
(dp1077
g179
g180
sg181
g182
sg183
g184
sg185
I0
sg186
I0
sg187
(dp1078
Vwalk_dist
p1079
I1
sVelite
p1080
I1
sVdelay_shoot
p1081
I-2
ssasg200
I1
ssVhoehere Schussweite
p1082
(dp1083
S'delay'
p1084
I0
sS'category'
p1085
Vupgrade
p1086
sS'price'
p1087
I40
sS'actions'
p1088
(lp1089
(dp1090
S'target'
p1091
S'self'
p1092
sS'level'
p1093
S'id'
p1094
sS'type'
p1095
S'change'
p1096
sS'random'
p1097
I0
sS'num_units'
p1098
I0
sS'changes'
p1099
(dp1100
Vshoot_dist
p1101
I1
sVelite
p1102
I1
sg1088
(dp1103
VDistanzexperte
p1104
(dp1105
g1084
I0
sg1085
Vupgrade
p1106
sg1087
I50
sg1088
(lp1107
(dp1108
g1091
g1092
sg1093
g1094
sg1095
g1096
sg1097
I0
sg1098
I0
sg1099
(dp1109
Vshoot_dist
p1110
I1
sVattack_min
p1111
I8
sVelite
p1112
I1
sg1088
(dp1113
ssasS'num_uses'
p1114
I1
ssssasg1114
I1
ssVPraezision
p1115
(dp1116
S'delay'
p1117
I0
sS'category'
p1118
Vupgrade
p1119
sS'price'
p1120
I30
sg485
(lp1121
(dp1122
S'target'
p1123
S'self'
p1124
sS'level'
p1125
S'id'
p1126
sS'type'
p1127
S'change'
p1128
sS'random'
p1129
I0
sS'num_units'
p1130
I0
sS'changes'
p1131
(dp1132
Vattack_min
p1133
I15
sVelite
p1134
I1
sVattack_max
p1135
I8
sg347
(dp1136
Vbessere Munition
p1137
(dp1138
g343
I0
sg344
Vupgrade
p1139
sg346
I40
sg347
(lp1140
(dp1141
g350
g351
sg352
g353
sg354
g355
sg356
I0
sg357
I0
sg358
(dp1142
Vshield_factor
p1143
F0.05
sVattack_min
p1144
I15
sVelite
p1145
I1
sVattack_max
p1146
I10
sg347
(dp1147
VSchildzerstoerer
p1148
(dp1149
g343
I0
sg344
Vupgrade
p1150
sg346
I30
sg347
(lp1151
(dp1152
g350
g351
sg352
g353
sg354
g355
sg356
I0
sg357
I0
sg358
(dp1153
Vshield_factor
p1154
F0.2
sVelite
p1155
I1
sVattack_max
p1156
I8
sg258
(dp1157
VDoppelschuss
p1158
(dp1159
g254
I0
sg255
Vupgrade
p1160
sg257
I0
sg258
(lp1161
sg280
I0
ssssasg362
I1
ssssasg362
I1
ssVDoppelschuss
p1162
(dp1163
g1084
I0
sg1085
Vupgrade
p1164
sg1087
I60
sg1088
(lp1165
(dp1166
g1091
g1092
sg1093
g1094
sg1095
g1096
sg1097
I0
sg1098
I0
sg1099
(dp1167
Vnum_enemies
p1168
I1
sVattack_min
p1169
I8
sVelite
p1170
I1
sVattack_max
p1171
I15
sg258
(dp1172
VSchildzerstoerer
p1173
(dp1174
g254
I0
sg255
Vupgrade
p1175
sg257
I0
sg258
(lp1176
sg280
I0
ssssasg1114
I1
ssssasS'num_uses'
p1177
I1
sssg801
I0
sssI4
(dp1178
g586
(dp1179
g588
(dp1180
I0
(lp1181
sI200
(lp1182
(dp1183
g179
g180
sg181
g182
sg183
g184
sg185
I0
sg186
I0
sg187
(dp1184
Vdelay_walk
p1185
I-2
sVelite
p1186
I1
sVdelay_shoot
p1187
I-3
ssasI450
(lp1188
(dp1189
g179
g180
sg181
g182
sg183
g184
sg185
I0
sg186
I0
sg187
(dp1190
Vdelay_walk
p1191
I-3
sVelite
p1192
I1
sVshield
p1193
I30
ssassg609
(dp1194
I500
(lp1195
(dp1196
g179
g180
sg181
g182
sg183
g184
sg185
I0
sg186
I0
sg187
(dp1197
Vshield_factor
p1198
F0.07
sVattack_min
p1199
I10
sVelite
p1200
I1
sVattack_max
p1201
I5
ssasssg638
(dp1202
g640
I18
sg641
I100
sg642
I5
sg643
VPanzer
p1203
sg645
I8
sg646
I50
sg647
I18
sg648
I4
sg649
Vvehicle
p1204
sg651
I100
sg29
I0
sg652
I90
sg653
I7
sg654
I400
sg655
I0
sg656
F0.6
sg657
(dp1205
VShottpanzerung
p1206
(dp1207
g555
I0
sg556
Vupgrade
p1208
sg558
I70
sg559
(lp1209
(dp1210
g194
g562
sg198
g563
sg192
g564
sg565
I0
sg566
I0
sg567
(dp1211
Vdelay_walk
p1212
I3
sVelite
p1213
I1
sVshield
p1214
I50
sg559
(dp1215
VVerbundpanzerung
p1216
(dp1217
g555
I0
sg556
Vupgrade
p1218
sg558
I40
sg559
(lp1219
(dp1220
g194
g562
sg198
g563
sg192
g564
sg565
I0
sg566
I0
sg567
(dp1221
Vdelay_walk
p1222
I-3
sVlife
p1223
I10
sVelite
p1224
I1
sVshield
p1225
I15
ssasg574
I1
ssssasg574
I1
ssVHartkernmunition
p1226
(dp1227
S'delay'
p1228
I0
sS'category'
p1229
Vupgrade
p1230
sS'price'
p1231
I30
sS'actions'
p1232
(lp1233
(dp1234
S'target'
p1235
Vself
p1236
sS'level'
p1237
Vid
p1238
sS'type'
p1239
Vchange
p1240
sS'random'
p1241
F0.0
sS'num_units'
p1242
I0
sS'changes'
p1243
(dp1244
Vshield_factor
p1245
F0.15
sVelite
p1246
I1
sVattack_max
p1247
I8
sS'actions'
p1248
(dp1249
VUrangeschoss
p1250
(dp1251
S'delay'
p1252
I0
sS'category'
p1253
Vupgrade
p1254
sS'price'
p1255
I80
sg1248
(lp1256
(dp1257
S'target'
p1258
Vself
p1259
sS'level'
p1260
Vid
p1261
sS'type'
p1262
Vchange
p1263
sS'random'
p1264
F0.0
sS'num_units'
p1265
I0
sS'changes'
p1266
(dp1267
Vshield_factor
p1268
F0.2
sVattack_min
p1269
I15
sVelite
p1270
I1
sVattack_max
p1271
I15
ssasS'num_uses'
p1272
I1
ssssasS'num_uses'
p1273
I1
ssVSpeed I
p1274
(dp1275
g440
I0
sg441
Vupgrade
p1276
sg443
I20
sg444
(lp1277
(dp1278
g1235
S'self'
p1279
sg1237
S'id'
p1280
sg1239
S'change'
p1281
sg1241
I0
sg1242
I0
sg1243
(dp1282
Vdelay_walk
p1283
I-2
sg1232
(dp1284
VSpeed II
p1285
(dp1286
g1228
I0
sg1229
Vupgrade
p1287
sg1231
I40
sg1232
(lp1288
(dp1289
g1235
g1279
sg1237
g1280
sg1239
g1281
sg1241
I0
sg1242
I0
sg1243
(dp1290
Vdelay_walk
p1291
I-2
sVwalk_dist
p1292
I1
sVelite
p1293
I1
ssasg1273
I1
ssssasg450
I1
sssg801
I100
sssI5
(dp1294
g586
(dp1295
g588
(dp1296
I0
(lp1297
sI500
(lp1298
(dp1299
S'target'
p1300
S'self'
p1301
sS'level'
p1302
S'id'
p1303
sS'type'
p1304
S'change'
p1305
sS'random'
p1306
I0
sS'num_units'
p1307
I0
sS'changes'
p1308
(dp1309
Vmax_life
p1310
I10
sVelite
p1311
I1
ssassg609
(dp1312
I0
(lp1313
sssg638
(dp1314
g640
I15
sg641
I100
sg642
I5
sg643
VArtillerie
p1315
sg645
I10
sg646
I0
sg647
I35
sg648
I5
sg649
Vvehicle
p1316
sg651
I100
sg29
I0
sg652
I0
sg653
I10
sg654
I600
sg655
I0
sg656
F0.5
sg657
(dp1317
Vgroessere Schussweite I
p1318
(dp1319
g1228
I0
sg1229
Vupgrade
p1320
sg1231
I40
sg1232
(lp1321
(dp1322
g1235
g1279
sg1237
g1280
sg1239
g1281
sg1241
I0
sg1242
I0
sg1243
(dp1323
Vshoot_dist
p1324
I1
sVelite
p1325
I1
sg421
(dp1326
Vgroessere Schussweite II
p1327
(dp1328
g417
I0
sg418
Vupgrade
p1329
sg420
I50
sg421
(lp1330
(dp1331
g424
g425
sg426
g427
sg428
g429
sg430
I0
sg431
I0
sg432
(dp1332
Vshoot_dist
p1333
I1
sVelite
p1334
I1
ssasg437
I1
ssVStreuung erhoehen
p1335
(dp1336
g417
I0
sg418
Vupgrade
p1337
sg420
I40
sg421
(lp1338
(dp1339
g424
g425
sg426
g427
sg428
g429
sg430
I0
sg431
I0
sg432
(dp1340
Vnum_enemies
p1341
I5
sVattack_min
p1342
I15
sVelite
p1343
I1
ssasg437
I1
ssssasg1273
I1
ssVAufbauen
p1344
(dp1345
S'delay'
p1346
I25
sS'category'
p1347
Vstandard
p1348
sS'price'
p1349
I0
sS'actions'
p1350
(lp1351
(dp1352
S'target'
p1353
S'self'
p1354
sS'level'
p1355
S'id'
p1356
sS'type'
p1357
S'change'
p1358
sS'random'
p1359
I0
sS'num_units'
p1360
I0
sS'changes'
p1361
(dp1362
Vwalk_dist
p1363
I-5
sVattack_min
p1364
I100
sVattack_max
p1365
I200
sg1350
(dp1366
VTransport
p1367
(dp1368
S'delay'
p1369
I30
sS'category'
p1370
Vequipment
p1371
sS'price'
p1372
I0
sS'actions'
p1373
(lp1374
(dp1375
S'target'
p1376
S'self'
p1377
sS'level'
p1378
S'id'
p1379
sS'type'
p1380
S'change'
p1381
sS'random'
p1382
I0
sS'num_units'
p1383
I0
sS'changes'
p1384
(dp1385
Vwalk_dist
p1386
I5
sVattack_min
p1387
I-100
sVattack_max
p1388
I-200
sg1373
(dp1389
VAufbau
p1390
(dp1391
g1369
I25
sg1370
Vstandard
p1392
sg1372
I0
sg1373
(lp1393
(dp1394
g1376
g1377
sg1378
g1379
sg1380
g1381
sg1382
I0
sg1383
I0
sg1384
(dp1395
Vattack_min
p1396
I100
sVattack_max
p1397
I200
sVwalk_dist
p1398
I-5
ssasS'num_uses'
p1399
I1
ssssasg1399
I-1
ssssasS'num_uses'
p1400
I1
ssVSpeed I
p1401
(dp1402
g440
I0
sg441
Vupgrade
p1403
sg443
I80
sg444
(lp1404
(dp1405
g424
g425
sg426
g427
sg428
g429
sg430
I0
sg431
I0
sg432
(dp1406
Vdelay_walk
p1407
I-4
sVelite
p1408
I1
sVdelay_shoot
p1409
I-8
sg421
(dp1410
VSpeed II
p1411
(dp1412
g417
I0
sg418
Vupgrade
p1413
sg420
I50
sg421
(lp1414
(dp1415
g424
g425
sg426
g427
sg428
g429
sg430
I0
sg431
I0
sg432
(dp1416
Vdelay_walk
p1417
I-2
sVelite
p1418
I1
sVdelay_shoot
p1419
I-8
ssasg437
I1
ssssasg450
I1
sssg801
I70
sssI6
(dp1420
S'elite_parameters'
p1421
(dp1422
S'ticks'
p1423
(dp1424
I200
(lp1425
(dp1426
g179
g180
sg181
g182
sg183
g184
sg185
I0
sg186
I0
sg187
(dp1427
Vlife
p1428
I100
sVmax_life
p1429
I8
sVelite
p1430
I1
ssasI500
(lp1431
(dp1432
g179
g180
sg181
g182
sg183
g184
sg185
I0
sg186
I0
sg187
(dp1433
Vlife
p1434
I100
sVmax_life
p1435
I10
sVelite
p1436
I1
sVshield
p1437
I10
ssassS'damage'
p1438
(dp1439
I0
(lp1440
sssS'basic_parameters'
p1441
(dp1442
S'delay_walk'
p1443
I15
sS'life'
p1444
I50
sS'walk_dist'
p1445
I5
sS'name'
p1446
VArzt
p1447
sS'num_enemies'
p1448
I3
sS'attack_min'
p1449
I0
sS'delay_shoot'
p1450
I15
sg930
I6
sS'unit_type'
p1451
Vsoldier
p1452
sS'max_life'
p1453
I50
sg29
I0
sS'attack_max'
p1454
I0
sS'shoot_dist'
p1455
I5
sg946
I120
sS'elite'
p1456
I0
sS'shield_factor'
p1457
F0.4
sg939
(dp1458
VMedipack
p1459
(dp1460
g343
I0
sg344
Vshop
p1461
sg346
I60
sg347
(lp1462
(dp1463
g350
g351
sg352
g353
sg354
g355
sg356
I0
sg357
I0
sg358
(dp1464
g347
(dp1465
VSchmerzmittel
p1466
(dp1467
g343
I0
sg344
Vstandard
p1468
sg346
I0
sg347
(lp1469
(dp1470
g350
Vself
p1471
sg352
Vid
p1472
sg354
Vchange
p1473
sg356
F0.3
sg357
I0
sg358
(dp1474
Vlife
p1475
I30
ssasg362
I2
ssssasg362
I-1
ssVSchild-Mech
p1476
(dp1477
g343
I0
sg344
Vupgrade
p1478
sg346
I80
sg347
(lp1479
(dp1480
S'target'
p1481
S'self'
p1482
sS'level'
p1483
S'id'
p1484
sS'type'
p1485
S'change'
p1486
sS'random'
p1487
I0
sS'num_units'
p1488
I0
sS'changes'
p1489
(dp1490
S'actions'
p1491
(dp1492
VSchild reparieren
p1493
(dp1494
S'delay'
p1495
I20
sS'category'
p1496
Vstandard
p1497
sS'price'
p1498
I50
sg1491
(lp1499
(dp1500
g1481
Vown
p1501
sg1483
Vid
p1502
sg1485
Vchange
p1503
sg1487
F0.3
sg1488
I1
sg1489
(dp1504
Vshield
p1505
I10
ssasS'num_uses'
p1506
I-1
ssssasg362
I1
ssVFeldapotheke (andere)
p1507
(dp1508
g343
I0
sg344
Vshop
p1509
sg346
I60
sg347
(lp1510
(dp1511
g350
Vself
p1512
sg352
Vid
p1513
sg354
Vchange
p1514
sg356
F0.0
sg357
I0
sg358
(dp1515
g347
(dp1516
VPflaster
p1517
(dp1518
g343
I0
sg344
Vstandard
p1519
sg346
I0
sg347
(lp1520
(dp1521
g350
Vown
p1522
sg352
Vid
p1523
sg354
Vchange
p1524
sg356
F0.3
sg357
I1
sg358
(dp1525
Vlife
p1526
I10
ssasg362
I3
ssssasg362
I-1
ssVSpeed I
p1527
(dp1528
g343
I0
sg344
Vupgrade
p1529
sg346
I30
sg347
(lp1530
(dp1531
g350
g351
sg352
g353
sg354
g355
sg356
I0
sg357
I0
sg358
(dp1532
Vwalk_dist
p1533
I1
sVelite
p1534
I1
sg347
(dp1535
VSpeed II
p1536
(dp1537
g343
I0
sg344
Vupgrade
p1538
sg346
I50
sg347
(lp1539
(dp1540
g350
g351
sg352
g353
sg354
g355
sg356
I0
sg357
I0
sg358
(dp1541
Vdelay_walk
p1542
I-4
sVwalk_dist
p1543
I2
sVelite
p1544
I1
ssasg362
I1
ssssasg362
I1
sssS'shield'
p1545
I10
sssI7
(dp1546
S'elite_parameters'
p1547
(dp1548
S'ticks'
p1549
(dp1550
I0
(lp1551
ssS'damage'
p1552
(dp1553
I0
(lp1554
sssS'basic_parameters'
p1555
(dp1556
S'delay_walk'
p1557
I15
sS'life'
p1558
I60
sS'walk_dist'
p1559
I5
sS'name'
p1560
VCyborg
p1561
sS'num_enemies'
p1562
I5
sS'attack_min'
p1563
I20
sS'delay_shoot'
p1564
I15
sg182
I7
sS'unit_type'
p1565
Vsoldier
p1566
sS'max_life'
p1567
I60
sg29
I0
sS'attack_max'
p1568
I35
sS'shoot_dist'
p1569
I7
sg175
I120
sS'elite'
p1570
I0
sS'shield_factor'
p1571
F0.6
sg176
(dp1572
VSpeed I
p1573
(dp1574
S'delay'
p1575
I0
sS'category'
p1576
S'upgrade'
p1577
sS'price'
p1578
I0
sS'actions'
p1579
(lp1580
sS'num_uses'
p1581
I-1
sssS'shield'
p1582
I40
sssI8
(dp1583
S'elite_parameters'
p1584
(dp1585
S'ticks'
p1586
(dp1587
I0
(lp1588
sI250
(lp1589
(dp1590
S'target'
p1591
S'self'
p1592
sS'level'
p1593
S'id'
p1594
sS'type'
p1595
S'change'
p1596
sS'random'
p1597
I0
sS'num_units'
p1598
I0
sS'changes'
p1599
(dp1600
Vlife
p1601
I20
sVelite
p1602
I1
sVshield
p1603
I5
ssasI500
(lp1604
(dp1605
g1591
g1592
sg1593
g1594
sg1595
g1596
sg1597
I0
sg1598
I0
sg1599
(dp1606
Vlife
p1607
I100
sVmax_life
p1608
I10
sVelite
p1609
I1
sVshield
p1610
I5
ssassS'damage'
p1611
(dp1612
I0
(lp1613
sI500
(lp1614
sssS'basic_parameters'
p1615
(dp1616
S'delay_walk'
p1617
I15
sS'life'
p1618
I70
sS'walk_dist'
p1619
I5
sS'name'
p1620
VKommandant
p1621
sS'num_enemies'
p1622
I4
sS'attack_min'
p1623
I20
sS'delay_shoot'
p1624
I15
sg72
I8
sS'unit_type'
p1625
Vsoldier
p1626
sS'max_life'
p1627
I70
sg29
I0
sS'attack_max'
p1628
I30
sS'shoot_dist'
p1629
I6
sg842
I250
sS'elite'
p1630
I4
sS'shield_factor'
p1631
F0.6
sg843
(dp1632
VLuftunterstuetzung
p1633
(dp1634
g839
I40
sg840
Vstandard
p1635
sg842
I150
sg843
(lp1636
(dp1637
g69
Venemy
p1638
sg71
Vid
p1639
sg73
Vchange
p1640
sg75
F0.6
sg76
I7
sg77
(dp1641
Vlife
p1642
I-17
sVshield
p1643
I-12
ssasg850
I-1
ssVDrill Sergent
p1644
(dp1645
S'delay'
p1646
I0
sS'category'
p1647
Vupgrade
p1648
sS'price'
p1649
I100
sS'actions'
p1650
(lp1651
(dp1652
S'target'
p1653
Vown
p1654
sS'level'
p1655
Vid
p1656
sS'type'
p1657
Vchange
p1658
sS'random'
p1659
F0.0
sS'num_units'
p1660
I0
sS'changes'
p1661
(dp1662
Vattack_min
p1663
I10
sVattack_max
p1664
I8
sVdelay_shoot
p1665
I-3
ssasS'num_uses'
p1666
I-1
ssVFallschirmspringer
p1667
(dp1668
g752
I20
sg753
Vupgrade
p1669
sg755
I450
sg738
(lp1670
(dp1671
g45
Vnew
p1672
sg41
Vown
p1673
sg56
(lp1674
I0
aI0
aI2
asg43
Vgroups
p1675
sasg757
I-1
ssVSpionageausbildung
p1676
(dp1677
S'delay'
p1678
I0
sS'category'
p1679
Vupgrade
p1680
sS'price'
p1681
I170
sS'actions'
p1682
(lp1683
(dp1684
S'target'
p1685
S'self'
p1686
sS'level'
p1687
S'id'
p1688
sS'type'
p1689
S'change'
p1690
sS'random'
p1691
I0
sS'num_units'
p1692
I0
sS'changes'
p1693
(dp1694
Velite
p1695
I1
sg1682
(dp1696
VWirtschafts-Spionage
p1697
(dp1698
g1678
I40
sg1679
Vupgrade
p1699
sg1681
I80
sg1682
(lp1700
(dp1701
g1685
g1686
sg1687
g1688
sg1689
g1690
sg1691
I0
sg1692
I0
sg1693
(dp1702
g1682
(dp1703
VDieb
p1704
(dp1705
g1678
I60
sg1679
Vequipment
p1706
sg1681
I200
sg1682
(lp1707
(dp1708
g1689
Vchange
p1709
sg1691
F0.5
sg1693
(dp1710
Vaccount
p1711
I-150
ssg1685
Venemy
p1712
sg1687
Vplayer
p1713
sa(dp1714
g1689
Vchange
p1715
sg1691
F0.7
sg1693
(dp1716
Vaccount
p1717
I80
ssg1685
Vown
p1718
sg1687
Vplayer
p1719
sasS'num_uses'
p1720
I-1
ssssasg1720
I-1
ssVID-Spionage
p1721
(dp1722
g1678
I40
sg1679
Vequipment
p1723
sg1681
I70
sg1682
(lp1724
sg1720
I-1
ssssasg1720
I1
sssS'shield'
p1725
I10
sssI9
(dp1726
S'elite_parameters'
p1727
(dp1728
S'ticks'
p1729
(dp1730
I0
(lp1731
ssS'damage'
p1732
(dp1733
I0
(lp1734
sssS'basic_parameters'
p1735
(dp1736
S'delay_walk'
p1737
I0
sS'life'
p1738
I100
sS'walk_dist'
p1739
I0
sS'name'
p1740
VFlak
p1741
sS'num_enemies'
p1742
I3
sS'attack_min'
p1743
I60
sS'delay_shoot'
p1744
I15
sS'id'
p1745
I9
sS'unit_type'
p1746
Vvehicle
p1747
sS'max_life'
p1748
I100
sg29
I0
sS'attack_max'
p1749
I80
sS'shoot_dist'
p1750
I5
sS'price'
p1751
I200
sS'elite'
p1752
I0
sS'shield_factor'
p1753
F0.6
sS'actions'
p1754
(dp1755
Vnix
p1756
(dp1757
S'delay'
p1758
I0
sS'category'
p1759
S'upgrade'
p1760
sg1751
I0
sg1754
(lp1761
sS'num_uses'
p1762
I-1
sssS'shield'
p1763
I0
sssI10
(dp1764
S'elite_parameters'
p1765
(dp1766
S'ticks'
p1767
(dp1768
I0
(lp1769
ssS'damage'
p1770
(dp1771
I0
(lp1772
sssS'basic_parameters'
p1773
(dp1774
S'delay_walk'
p1775
I11
sS'life'
p1776
I40
sS'walk_dist'
p1777
I6
sS'name'
p1778
VMotorrad
p1779
sS'num_enemies'
p1780
I4
sS'attack_min'
p1781
I5
sS'delay_shoot'
p1782
I15
sS'id'
p1783
I10
sS'unit_type'
p1784
Vvehicle
p1785
sS'max_life'
p1786
I40
sg29
I0
sS'attack_max'
p1787
I10
sS'shoot_dist'
p1788
I5
sg1649
I40
sS'elite'
p1789
I0
sS'shield_factor'
p1790
F0.45
sg1650
(dp1791
VSchutzweste
p1792
(dp1793
g1646
I0
sg1647
Vupgrade
p1794
sg1649
I30
sg1650
(lp1795
(dp1796
g1653
S'self'
p1797
sg1655
g1783
sg1657
S'change'
p1798
sg1659
I0
sg1660
I0
sg1661
(dp1799
Vshield
p1800
I8
ssasg1666
I1
ssVneue Reifen
p1801
(dp1802
g1646
I0
sg1647
Vupgrade
p1803
sg1649
I20
sg1650
(lp1804
(dp1805
g1653
g1797
sg1655
g1783
sg1657
g1798
sg1659
I0
sg1660
I0
sg1661
(dp1806
Vwalk_dist
p1807
I1
sVelite
p1808
I1
sg1650
(dp1809
Vleichteres Motorrad
p1810
(dp1811
g1646
I0
sg1647
Vupgrade
p1812
sg1649
I30
sg1650
(lp1813
(dp1814
g1653
g1797
sg1655
g1783
sg1657
g1798
sg1659
I0
sg1660
I0
sg1661
(dp1815
Vdelay_walk
p1816
I-1
sVwalk_dist
p1817
I1
sVelite
p1818
I1
ssasg1666
I1
ssssasg1666
I1
ssVDrive by lernen
p1819
(dp1820
g1646
I0
sg1647
Vupgrade
p1821
sg1649
I30
sg1650
(lp1822
(dp1823
g1653
g1797
sg1655
g1783
sg1657
g1798
sg1659
I0
sg1660
I0
sg1661
(dp1824
Vattack_min
p1825
I7
sVelite
p1826
I1
sVattack_max
p1827
I5
ssasg1666
I1
sssS'shield'
p1828
I0
sssI11
(dp1829
S'elite_parameters'
p1830
(dp1831
S'ticks'
p1832
(dp1833
I0
(lp1834
ssS'damage'
p1835
(dp1836
I0
(lp1837
sssS'basic_parameters'
p1838
(dp1839
S'delay_walk'
p1840
I18
sS'life'
p1841
I80
sS'walk_dist'
p1842
I5
sS'name'
p1843
VJavelin
p1844
sS'num_enemies'
p1845
I2
sS'attack_min'
p1846
I8
sS'delay_shoot'
p1847
I20
sg1000
I11
sS'unit_type'
p1848
Vsoldier
p1849
sS'max_life'
p1850
I80
sg29
I0
sS'attack_max'
p1851
I12
sS'shoot_dist'
p1852
I9
sg993
I200
sS'elite'
p1853
I0
sS'shield_factor'
p1854
F2.5
sg994
(dp1855
Vschneller ziehen
p1856
(dp1857
g254
I0
sg255
Vupgrade
p1858
sg257
I30
sg258
(lp1859
(dp1860
g261
g262
sg263
g264
sg265
g266
sg267
I0
sg268
I0
sg269
(dp1861
Vdelay_walk
p1862
I-3
sVelite
p1863
I1
ssasg280
I1
ssVschneller laden
p1864
(dp1865
S'delay'
p1866
I0
sS'category'
p1867
Vupgrade
p1868
sS'price'
p1869
I40
sS'actions'
p1870
(lp1871
(dp1872
S'target'
p1873
S'self'
p1874
sS'level'
p1875
S'id'
p1876
sS'type'
p1877
S'change'
p1878
sS'random'
p1879
I0
sS'num_units'
p1880
I0
sS'changes'
p1881
(dp1882
Velite
p1883
I1
sVdelay_shoot
p1884
I-4
ssasS'num_uses'
p1885
I1
ssVgroessere Sprengkraft
p1886
(dp1887
g1866
I0
sg1867
Vupgrade
p1888
sg1869
I30
sg1870
(lp1889
(dp1890
g1873
g1874
sg1875
g1876
sg1877
g1878
sg1879
I0
sg1880
I0
sg1881
(dp1891
Vnum_enemies
p1892
I2
sVattack_min
p1893
I2
sVelite
p1894
I1
sVattack_max
p1895
I3
sg1870
(dp1896
Vneue Sprengtechnologie
p1897
(dp1898
g1866
I0
sg1867
Vupgrade
p1899
sg1869
I40
sg1870
(lp1900
(dp1901
g1873
g1874
sg1875
g1876
sg1877
g1878
sg1879
I0
sg1880
I0
sg1881
(dp1902
Vshield_factor
p1903
F0.4
sVelite
p1904
I1
ssasg1885
I1
ssssasg1885
I1
sssS'shield'
p1905
I50
ssssS'engine_parameters'
p1906
(dp1907
S'constant_per_tick'
p1908
F4.0
sS'all_sectors'
p1909
(dp1910
I1
(dp1911
S'victory'
p1912
I0
sS'weight'
p1913
F1.0
ssI2
(dp1914
g1912
I0
sg1913
F2.0
ssI3
(dp1915
g1912
I0
sg1913
F1.0
ssI4
(dp1916
g1912
I0
sg1913
F1.0
ssI5
(dp1917
g1912
I0
sg1913
F1.0
ssI6
(dp1918
g1912
I0
sg1913
F1.5
ssI7
(dp1919
g1912
I0
sg1913
F1.5
ssI8
(dp1920
g1912
I0
sg1913
F1.0
ssI9
(dp1921
g1912
I0
sg1913
F1.0
ssI10
(dp1922
g1912
I0
sg1913
F1.0
ssI11
(dp1923
g1912
I0
sg1913
F1.0
ssI12
(dp1924
g1912
I0
sg1913
F1.0
ssI13
(dp1925
g1912
I0
sg1913
F2.0
ssI14
(dp1926
g1912
I0
sg1913
F1.0
ssI15
(dp1927
g1912
I0
sg1913
F1.0
ssI16
(dp1928
g1912
I0
sg1913
F1.0
ssI17
(dp1929
g1912
I0
sg1913
F1.0
ssI18
(dp1930
g1912
I2
sg1913
F1.0
sssS'delay_damage'
p1931
F0.5
sS'start_account'
p1932
F10000.0
sS'extra_shoot_dist'
p1933
F2.0
sS'per_sector_per_tick'
p1934
F1.0
sS'take_over_factor'
p1935
F1.3
sS'tick_duration'
p1936
F11.0
sS'protection_effect'
p1937
F0.4
sS'protection_in'
p1938
F18.0
sS'sector_takeover'
p1939
F170.0
sS'protection_out'
p1940
F10.0
sS'max_victory_diff'
p1941
F50.0
ssS'transport_parameters'
p1942
(dp1943
I0
(dp1944
g127
(dp1945
g129
(dp1946
I0
(lp1947
ssg144
(dp1948
I0
(lp1949
sssg147
(dp1950
S'delay_walk'
p1951
I15
sg149
I100
sS'walk_dist'
p1952
I10
sg152
I10
sg153
VTransporter
p1953
sS'transports'
p1954
Vsoldier
p1955
sg282
F0.4
sg157
I0
sg158
I25
sg159
I20
sg160
I10
sg161
I200
sg283
I4
sg29
I0
sg162
I100
sg163
I0
sg167
I5
sg281
I0
sg166
I0
sg168
(dp1956
VPanzerung
p1957
(dp1958
S'delay'
p1959
I0
sS'category'
p1960
Vupgrade
p1961
sS'price'
p1962
I50
sS'actions'
p1963
(lp1964
(dp1965
g592
g593
sg594
g595
sg596
g597
sg598
I0
sg599
I0
sg600
(dp1966
Vdelay_walk
p1967
I3
sVelite
p1968
I1
sVshield
p1969
I40
sg1963
(dp1970
VCasspir
p1971
(dp1972
g1959
I0
sg1960
Vupgrade
p1973
sg1962
I70
sg1963
(lp1974
(dp1975
g592
g593
sg594
g595
sg596
g597
sg598
I0
sg599
I0
sg600
(dp1976
Vdelay_walk
p1977
I-5
sVelite
p1978
I1
sVshield
p1979
I50
ssasS'num_uses'
p1980
I1
ssssasg1980
I1
ssVMG
p1981
(dp1982
g1959
I0
sg1960
Vupgrade
p1983
sg1962
I40
sg1963
(lp1984
(dp1985
g592
Vself
p1986
sg594
Vid
p1987
sg596
Vchange
p1988
sg598
F0.0
sg599
I0
sg600
(dp1989
Vattack_min
p1990
I20
sVelite
p1991
I1
sVattack_max
p1992
I40
sg1963
(dp1993
VKampfmaschine
p1994
(dp1995
g1959
I0
sg1960
Vupgrade
p1996
sg1962
I80
sg1963
(lp1997
(dp1998
g592
g593
sg594
g595
sg596
g597
sg598
I0
sg599
I0
sg600
(dp1999
Vshield_factor
p2000
F0.2
sVattack_min
p2001
I30
sVelite
p2002
I1
sVattack_max
p2003
I30
ssasg1980
I1
ssssasg1980
I1
ssVSpeed up (laden & ziehen)
p2004
(dp2005
g555
I0
sg556
Vupgrade
p2006
sg558
I30
sg559
(lp2007
(dp2008
g194
g562
sg198
g563
sg192
g564
sg565
I0
sg566
I0
sg567
(dp2009
Vdelay_walk
p2010
I-2
sVelite
p2011
I1
sVdelay_shoot
p2012
I-2
sg559
(dp2013
VSpeed up (nur ziehen)
p2014
(dp2015
g555
I0
sg556
Vupgrade
p2016
sg558
I40
sg559
(lp2017
(dp2018
g194
g562
sg198
g563
sg192
g564
sg565
I0
sg566
I0
sg567
(dp2019
Vdelay_walk
p2020
I-2
sVwalk_dist
p2021
I1
sVelite
p2022
I1
ssasg574
I1
ssssasg574
I1
ssVmehr Platz I
p2023
(dp2024
g1959
I0
sg1960
Vupgrade
p2025
sg1962
I30
sg1963
(lp2026
(dp2027
g592
g593
sg594
g595
sg596
g597
sg598
I0
sg599
I0
sg600
(dp2028
Velite
p2029
I1
sVcapacity
p2030
I5
sg1963
(dp2031
Vmehr Platz II
p2032
(dp2033
g1959
I0
sg1960
Vupgrade
p2034
sg1962
I40
sg1963
(lp2035
(dp2036
g592
g593
sg594
g595
sg596
g597
sg598
I0
sg599
I0
sg600
(dp2037
Velite
p2038
I1
sVcapacity
p2039
I8
ssasg1980
I1
ssssasg1980
I1
sssg284
I7
sssI1
(dp2040
g286
(dp2041
g288
(dp2042
I0
(lp2043
ssg291
(dp2044
I0
(lp2045
sssg294
(dp2046
S'delay_walk'
p2047
I15
sg296
I100
sS'walk_dist'
p2048
I10
sg299
I10
sg300
VHelikopter
p2049
sS'transports'
p2050
Vsoldier
p2051
sg303
F0.4
sg304
I0
sg305
I50
sg306
I20
sg307
I30
sg308
I200
sg380
I4
sg29
I0
sg309
I100
sg381
I0
sg376
I6
sg377
I0
sg375
I1
sg310
(dp2052
VBombe abwerfen
p2053
(dp2054
g314
I0
sg315
Vstandard
p2055
sg308
I80
sg310
(lp2056
(dp2057
g319
Venemy
p2058
sg321
Vid
p2059
sg323
Vchange
p2060
sg325
F0.3
sg326
I7
sg327
(dp2061
Vlife
p2062
I6
sg310
(dp2063
ssasg330
I-1
sssg302
I10
sssI2
(dp2064
S'elite_parameters'
p2065
(dp2066
S'ticks'
p2067
(dp2068
I0
(lp2069
ssS'damage'
p2070
(dp2071
I0
(lp2072
sssS'basic_parameters'
p2073
(dp2074
S'delay_walk'
p2075
I18
sS'life'
p2076
I150
sS'walk_dist'
p2077
I9
sS'capacity'
p2078
I3
sS'name'
p2079
VFahrzeug Transporter
p2080
sS'elite'
p2081
I0
sS'shield_factor'
p2082
F0.4
sS'attack_min'
p2083
I0
sS'delay_shoot'
p2084
I15
sg404
I2
sg397
I300
sS'num_enemies'
p2085
I4
sS'max_life'
p2086
I150
sg29
I0
sS'delay_out'
p2087
I15
sS'attack_max'
p2088
I0
sS'shoot_dist'
p2089
I5
sS'transports'
p2090
Vvehicle
p2091
sS'delay_in'
p2092
I25
sg398
(dp2093
Vmehr Platz
p2094
(dp2095
g394
I0
sg395
Vupgrade
p2096
sg397
I50
sg398
(lp2097
(dp2098
g401
g402
sg403
g404
sg405
g406
sg407
I0
sg408
I0
sg409
(dp2099
Vcapacity
p2100
I2
ssasg414
I1
sssS'shield'
p2101
I20
ssssS'card_parameters'
p2102
(dp2103
I200
(lp2104
(dp2105
S'num_cards'
p2106
I10
sS'description'
p2107
VEine Gruppe kann in einen Helikopter verladen werden und deshalb 10 pro Runde ziehen.
p2108
sg1963
(lp2109
sS'title'
p2110
VHelitransport
p2111
sa(dp2112
S'title'
p2113
VGiftgas
p2114
sS'num_cards'
p2115
I7
sg1088
(lp2116
(dp2117
S'target'
p2118
S'enemy'
p2119
sS'level'
p2120
S'id'
p2121
sS'type'
p2122
S'change'
p2123
sS'random'
p2124
F0.3
sS'num_units'
p2125
S'all'
p2126
sS'changes'
p2127
(dp2128
Vlife
p2129
I-8
ssa(dp2130
g2118
Vown
p2131
sg2120
Vid
p2132
sg2122
Vchange
p2133
sg2124
F0.3
sg2125
Vall
p2134
sg2127
(dp2135
Vlife
p2136
I-2
ssasS'description'
p2137
VAlle Einheiten werden verwundet. Gegnerische staerker als eigene
p2138
sa(dp2139
S'description'
p2140
VDescription
p2141
sS'num_cards'
p2142
I12
sS'actions'
p2143
(lp2144
(dp2145
g2118
Vown
p2146
sg2120
Vid
p2147
sg2122
Vchange
p2148
sg2124
F0.2
sg2125
I6
sg2127
(dp2149
Vlife
p2150
I20
ssasS'title'
p2151
VFeldapotheke
p2152
sass.