(dp0
S'building_parameters'
p1
(dp2
I0
(dp3
S'elite_parameters'
p4
(dp5
S'ticks'
p6
(dp7
I0
(lp8
ssS'damage'
p9
(dp10
I0
(lp11
sssS'basic_parameters'
p12
(dp13
S'life'
p14
I2000
sS'shop_transporter'
p15
(lp16
sS'capacity'
p17
I25
sS'name'
p18
VHauptquartier
p19
sS'shield_factor'
p20
F0.4
sS'shop_units'
p21
(lp22
I1
aI10
asS'attack_min'
p23
I0
sS'delay_shoot'
p24
I15
sS'delay_in'
p25
I20
sS'price'
p26
I2000
sS'actions'
p27
(dp28
VArzneistudium +
p29
(dp30
S'delay'
p31
I0
sS'category'
p32
Vupgrade
p33
sS'price'
p34
I400
sS'actions'
p35
(lp36
(dp37
S'target'
p38
S'self'
p39
sS'level'
p40
S'id'
p41
sS'type'
p42
S'change'
p43
sS'random'
p44
I0
sS'num_units'
p45
I0
sS'changes'
p46
(dp47
Vshop_units
p48
(lp49
I6
assa(dp50
g42
Vnew
p51
sg38
Vown
p52
sS'parameters'
p53
(lp54
I6
asg40
Vgroups
p55
sasS'num_uses'
p56
I1
ssVKommandant +
p57
(dp58
S'delay'
p59
I0
sS'category'
p60
Vupgrade
p61
sS'price'
p62
I500
sS'actions'
p63
(lp64
(dp65
S'target'
p66
S'self'
p67
sS'level'
p68
S'id'
p69
sS'type'
p70
S'change'
p71
sS'random'
p72
I0
sS'num_units'
p73
I0
sS'changes'
p74
(dp75
Vshop_units
p76
(lp77
I8
assa(dp78
S'type'
p79
Vnew
p80
sS'target'
p81
Vown
p82
sS'parameters'
p83
(lp84
I8
asS'level'
p85
Vgroups
p86
sasS'num_uses'
p87
I1
ssVHelikopter-Plattform +
p88
(dp89
S'delay'
p90
I0
sS'category'
p91
Vupgrade
p92
sS'price'
p93
I400
sS'actions'
p94
(lp95
(dp96
S'target'
p97
S'self'
p98
sS'level'
p99
S'id'
p100
sS'type'
p101
S'change'
p102
sS'random'
p103
I0
sS'num_units'
p104
I0
sS'changes'
p105
(dp106
Vshop_transporter
p107
(lp108
I1
assa(dp109
g101
Vnew
p110
sg97
Vown
p111
sS'parameters'
p112
I1
sg99
Vtransporter
p113
sasS'num_uses'
p114
I1
sssS'max_life'
p115
I2000
sS'delay_out'
p116
I10
sS'attack_max'
p117
I0
sS'enter'
p118
Vsoldier
p119
sS'shoot_dist'
p120
I6
sS'elite'
p121
I0
sS'id'
p122
I0
sS'num_enemies'
p123
I4
sS'shield'
p124
I0
sssI1
(dp125
S'elite_parameters'
p126
(dp127
S'ticks'
p128
(dp129
I500
(lp130
(dp131
S'target'
p132
S'self'
p133
sS'level'
p134
S'id'
p135
sS'type'
p136
S'change'
p137
sS'random'
p138
I0
sS'num_units'
p139
I0
sS'changes'
p140
(dp141
V
p142
F1.0
ssassS'damage'
p143
(dp144
I0
(lp145
sssS'basic_parameters'
p146
(dp147
S'life'
p148
I800
sS'shop_transporter'
p149
(lp150
sS'capacity'
p151
I15
sS'name'
p152
VKaserne
p153
sS'shop_units'
p154
(lp155
I0
asS'attack_min'
p156
I0
sS'shield'
p157
I100
sS'delay_shoot'
p158
I15
sS'id'
p159
I1
sS'price'
p160
I600
sS'max_life'
p161
I800
sS'delay_in'
p162
I20
sS'delay_out'
p163
I10
sS'enter'
p164
Vsoldier
p165
sS'shoot_dist'
p166
I6
sS'num_enemies'
p167
I4
sS'elite'
p168
I0
sS'shield_factor'
p169
F0.4
sS'actions'
p170
(dp171
VSniper +
p172
(dp173
S'delay'
p174
I0
sS'category'
p175
Vupgrade
p176
sS'price'
p177
I200
sS'actions'
p178
(lp179
(dp180
S'target'
p181
S'self'
p182
sS'level'
p183
S'id'
p184
sS'type'
p185
S'change'
p186
sS'random'
p187
I0
sS'num_units'
p188
I0
sS'changes'
p189
(dp190
Vshop_units
p191
(lp192
I3
assa(dp193
S'type'
p194
Vnew
p195
sS'target'
p196
Vown
p197
sS'parameters'
p198
(lp199
I3
asS'level'
p200
Vgroups
p201
sasS'num_uses'
p202
I1
ssVVerteidigung
p203
(dp204
S'delay'
p205
I20
sS'category'
p206
Vupgrade
p207
sS'price'
p208
I100
sS'actions'
p209
(lp210
(dp211
g132
g133
sg134
g135
sg136
g137
sg138
I0
sg139
I0
sg140
(dp212
Vattack_min
p213
I20
sVattack_max
p214
I40
ssasS'num_uses'
p215
I1
ssVMG-Soldat
p216
(dp217
S'delay'
p218
I0
sS'category'
p219
Vupgrade
p220
sS'price'
p221
I250
sS'actions'
p222
(lp223
(dp224
g132
g133
sg134
g135
sg136
g137
sg138
I0
sg139
I0
sg140
(dp225
Vshop_units
p226
(lp227
I2
asVelite
p228
I1
sS'actions'
p229
(dp230
VCyborg
p231
(dp232
S'delay'
p233
I0
sS'category'
p234
Vupgrade
p235
sS'price'
p236
I200
sg229
(lp237
(dp238
S'target'
p239
S'self'
p240
sS'level'
p241
S'id'
p242
sS'type'
p243
S'change'
p244
sS'random'
p245
I0
sS'num_units'
p246
I0
sS'changes'
p247
(dp248
Vshop_units
p249
(lp250
I7
asVelite
p251
I1
ssasS'num_uses'
p252
I1
ssssasS'num_uses'
p253
I1
ssVJavelin +
p254
(dp255
S'delay'
p256
I0
sS'category'
p257
Vupgrade
p258
sS'price'
p259
I400
sS'actions'
p260
(lp261
(dp262
S'target'
p263
S'self'
p264
sS'level'
p265
S'id'
p266
sS'type'
p267
S'change'
p268
sS'random'
p269
I0
sS'num_units'
p270
I0
sS'changes'
p271
(dp272
Vshop_units
p273
(lp274
I11
asVelite
p275
I1
ssa(dp276
g267
Vnew
p277
sg263
Vown
p278
sS'parameters'
p279
(lp280
I11
asg265
Vgroups
p281
sasS'num_uses'
p282
I1
sssS'attack_max'
p283
I0
sssI2
(dp284
S'elite_parameters'
p285
(dp286
S'ticks'
p287
(dp288
I0
(lp289
ssS'damage'
p290
(dp291
I0
(lp292
sssS'basic_parameters'
p293
(dp294
S'life'
p295
I500
sS'shop_transporter'
p296
(lp297
sS'capacity'
p298
I10
sS'name'
p299
VLazarett
p300
sS'shop_units'
p301
(lp302
sS'attack_min'
p303
I0
sS'shield'
p304
I75
sS'delay_shoot'
p305
I15
sS'id'
p306
I2
sS'price'
p307
I500
sS'actions'
p308
(dp309
V10x heilen
p310
(dp311
S'delay'
p312
I50
sS'category'
p313
Vstandard
p314
sg307
I400
sg308
(lp315
(dp316
S'target'
p317
Vown
p318
sS'level'
p319
Vid
p320
sS'type'
p321
Vchange
p322
sS'random'
p323
F0.0
sS'num_units'
p324
I0
sS'changes'
p325
(dp326
Vlife
p327
I50
ssasS'num_uses'
p328
I-1
ssV1x heilen
p329
(dp330
g312
I40
sg313
Vstandard
p331
sg307
I70
sg308
(lp332
(dp333
g317
Vown
p334
sg319
Vid
p335
sg321
Vchange
p336
sg323
F0.0
sg324
I1
sg325
(dp337
Vlife
p338
I50
ssasg328
I-1
ssVArztneistudium
p339
(dp340
S'delay'
p341
I0
sS'category'
p342
Vupgrade
p343
sS'price'
p344
I200
sS'actions'
p345
(lp346
(dp347
S'target'
p348
S'self'
p349
sS'level'
p350
S'id'
p351
sS'type'
p352
S'change'
p353
sS'random'
p354
I0
sS'num_units'
p355
I0
sS'changes'
p356
(dp357
Vshop_units
p358
(lp359
I6
assasS'num_uses'
p360
I1
ssV5x heilen
p361
(dp362
g312
I50
sg313
Vstandard
p363
sg307
I200
sg308
(lp364
(dp365
g317
Vown
p366
sg319
Vid
p367
sg321
Vchange
p368
sg323
F0.0
sg324
I5
sg325
(dp369
Vlife
p370
I50
ssasg328
I-1
sssS'max_life'
p371
I500
sS'delay_in'
p372
I20
sS'delay_out'
p373
I10
sS'enter'
p374
Vsoldier
p375
sS'shoot_dist'
p376
I6
sS'elite'
p377
I0
sS'shield_factor'
p378
F0.4
sS'num_enemies'
p379
I4
sS'attack_max'
p380
I0
sssI3
(dp381
g285
(dp382
g287
(dp383
I0
(lp384
ssg290
(dp385
I0
(lp386
sssg293
(dp387
g295
I500
sg296
(lp388
I0
asg298
I10
sg299
VWerkstatt
p389
sg301
(lp390
I4
asg303
I0
sg304
I50
sg305
I15
sg306
I3
sg307
I700
sg308
(dp391
VFahrzeug Transporter
p392
(dp393
S'delay'
p394
I0
sS'category'
p395
Vupgrade
p396
sS'price'
p397
I150
sS'actions'
p398
(lp399
(dp400
S'target'
p401
S'self'
p402
sS'level'
p403
S'id'
p404
sS'type'
p405
S'change'
p406
sS'random'
p407
I0
sS'num_units'
p408
I0
sS'changes'
p409
(dp410
Vshop_transporter
p411
(lp412
I2
asVelite
p413
I1
ssasS'num_uses'
p414
I1
ssVArtillerie
p415
(dp416
S'delay'
p417
I0
sS'category'
p418
Vupgrade
p419
sS'price'
p420
I300
sS'actions'
p421
(lp422
(dp423
S'target'
p424
S'self'
p425
sS'level'
p426
S'id'
p427
sS'type'
p428
S'change'
p429
sS'random'
p430
I0
sS'num_units'
p431
I0
sS'changes'
p432
(dp433
Vshop_units
p434
(lp435
I5
asVelite
p436
I1
ssasS'num_uses'
p437
I1
ssVVerteidigung
p438
(dp439
S'delay'
p440
I0
sS'category'
p441
Vupgrade
p442
sS'price'
p443
I50
sS'actions'
p444
(lp445
(dp446
g348
g349
sg350
g351
sg352
g353
sg354
I0
sg355
I0
sg356
(dp447
Vattack_min
p448
I30
sVattack_max
p449
I50
ssasS'num_uses'
p450
I1
sssg371
I500
sg372
I20
sg373
I10
sg374
Vvehicle
p451
sg376
I6
sg377
I0
sg378
F0.4
sg379
I4
sg380
I0
sssI4
(dp452
g285
(dp453
g287
(dp454
I0
(lp455
ssg290
(dp456
I0
(lp457
sssg293
(dp458
g295
I800
sg296
(lp459
sg298
I15
sg299
VFlughafen
p460
sg301
(lp461
sg303
I0
sg304
I100
sg305
I15
sg306
I4
sg307
I1000
sg308
(dp462
VFlak & Verteidigung
p463
(dp464
g394
I0
sg395
Vupgrade
p465
sg397
I100
sg398
(lp466
(dp467
g401
g402
sg403
g404
sg405
g406
sg407
I0
sg408
I0
sg409
(dp468
Vshop_units
p469
(lp470
I9
asVattack_min
p471
I30
sVelite
p472
I1
sVattack_max
p473
I50
ssasg414
I1
ssVHelikopter Landeplattform
p474
(dp475
g312
I0
sg313
Vupgrade
p476
sg307
I400
sg308
(lp477
(dp478
g317
S'self'
p479
sg319
g306
sg321
S'change'
p480
sg323
I0
sg324
I0
sg325
(dp481
Vshop_transporter
p482
(lp483
I1
asVelite
p484
I1
sS'actions'
p485
(dp486
VFallschirmspringer
p487
(dp488
S'delay'
p489
I0
sS'category'
p490
S'upgrade'
p491
sS'price'
p492
I0
sS'actions'
p493
(lp494
sS'num_uses'
p495
I-1
ssssasg328
I1
sssg371
I800
sg372
I20
sg373
I10
sg374
Vvehicle
p496
sg376
I6
sg377
I0
sg378
F0.4
sg379
I4
sg380
I0
sssI5
(dp497
S'elite_parameters'
p498
(dp499
S'ticks'
p500
(dp501
I0
(lp502
ssS'damage'
p503
(dp504
I0
(lp505
sssS'basic_parameters'
p506
(dp507
S'shop_units'
p508
(lp509
sS'life'
p510
I100
sS'shop_transporter'
p511
(lp512
sS'capacity'
p513
I0
sS'name'
p514
Vnix
p515
sS'shield_factor'
p516
F0.6
sS'attack_min'
p517
I60
sS'delay_shoot'
p518
I15
sS'delay_in'
p519
I0
sS'price'
p520
I200
sS'max_life'
p521
I100
sS'delay_out'
p522
I0
sS'attack_max'
p523
I80
sS'enter'
p524
Vsoldier
p525
sS'shoot_dist'
p526
I5
sS'actions'
p527
(dp528
Vnix
p529
(dp530
S'delay'
p531
I0
sS'category'
p532
S'upgrade'
p533
sg520
I0
sg527
(lp534
sS'num_uses'
p535
I-1
sssS'elite'
p536
I0
sS'id'
p537
I5
sS'num_enemies'
p538
I3
sS'shield'
p539
I0
sssI6
(dp540
g498
(dp541
g500
(dp542
I0
(lp543
ssg503
(dp544
I0
(lp545
sssg506
(dp546
g508
(lp547
sg510
I80
sg511
(lp548
sg513
I5
sg514
VMG-Nest
p549
sg516
F0.5
sg517
I20
sg518
I15
sg519
I15
sg520
I100
sg521
I80
sg522
I10
sg523
I35
sg524
Vsoldier
p550
sg526
I6
sg527
(dp551
VPanzerabwehr
p552
(dp553
S'delay'
p554
I20
sS'category'
p555
Vupgrade
p556
sS'price'
p557
I150
sS'actions'
p558
(lp559
(dp560
g196
S'self'
p561
sg200
S'id'
p562
sg194
S'change'
p563
sS'random'
p564
I0
sS'num_units'
p565
I0
sS'changes'
p566
(dp567
Vshoot_dist
p568
I1
sVattack_min
p569
I-10
sVelite
p570
I2
sVshield_factor
p571
F2.0
sVattack_max
p572
I-20
ssasS'num_uses'
p573
I1
ssVBetonguss
p574
(dp575
g554
I0
sg555
Vupgrade
p576
sg557
I50
sg558
(lp577
(dp578
g196
g561
sg200
g562
sg194
g563
sg564
I0
sg565
I0
sg566
(dp579
Velite
p580
I1
sVshield
p581
I15
ssasg573
I1
sssg536
I0
sg537
I6
sg538
I4
sg539
I10
ssssS'unit_parameters'
p582
(dp583
I0
(dp584
S'elite_parameters'
p585
(dp586
S'ticks'
p587
(dp588
I1000
(lp589
(dp590
S'target'
p591
S'self'
p592
sS'level'
p593
S'id'
p594
sS'type'
p595
S'change'
p596
sS'random'
p597
I0
sS'num_units'
p598
I0
sS'changes'
p599
(dp600
Vlife
p601
I10
sVelite
p602
I1
ssasI500
(lp603
(dp604
g591
g592
sg593
g594
sg595
g596
sg597
I0
sg598
I0
sg599
(dp605
Vlife
p606
I10
sVelite
p607
I1
ssassS'damage'
p608
(dp609
I1000
(lp610
(dp611
S'target'
p612
S'self'
p613
sS'level'
p614
S'id'
p615
sS'type'
p616
S'change'
p617
sS'random'
p618
I0
sS'num_units'
p619
I0
sS'changes'
p620
(dp621
Vshoot_dist
p622
I2
sVmax_life
p623
I8
sVelite
p624
I1
sVattack_max
p625
I11
ssasI500
(lp626
(dp627
g591
g592
sg593
g594
sg595
g596
sg597
I0
sg598
I0
sg599
(dp628
Velite
p629
I1
sVattack_max
p630
I8
ssasI750
(lp631
(dp632
g612
g613
sg614
g615
sg616
g617
sg618
I0
sg619
I0
sg620
(dp633
Vattack_min
p634
I8
sVelite
p635
I1
sVattack_max
p636
I10
ssasssS'basic_parameters'
p637
(dp638
S'delay_walk'
p639
I15
sS'life'
p640
I50
sS'walk_dist'
p641
I5
sS'name'
p642
VSoldat
p643
sS'num_enemies'
p644
I4
sS'attack_min'
p645
I10
sS'delay_shoot'
p646
I15
sS'id'
p647
I0
sS'unit_type'
p648
Vsoldier
p649
sS'max_life'
p650
I50
sS'attack_max'
p651
I20
sS'shoot_dist'
p652
I6
sS'price'
p653
I70
sS'elite'
p654
I0
sS'shield_factor'
p655
F0.5
sS'actions'
p656
(dp657
V3 HG
p658
(dp659
S'delay'
p660
I0
sS'category'
p661
Vequipment
p662
sg160
I70
sg170
(lp663
(dp664
S'target'
p665
S'self'
p666
sS'level'
p667
S'id'
p668
sS'type'
p669
S'change'
p670
sS'random'
p671
I0
sS'num_units'
p672
I0
sS'changes'
p673
(dp674
S'actions'
p675
(dp676
VHG
p677
(dp678
S'delay'
p679
I15
sS'category'
p680
Vstandard
p681
sS'price'
p682
I0
sg675
(lp683
(dp684
g665
Venemy
p685
sg667
Vid
p686
sg669
Vchange
p687
sg671
F0.3
sg672
I3
sg673
(dp688
Vlife
p689
I-10
ssasS'num_uses'
p690
I3
ssssasS'num_uses'
p691
I-1
ssVSchutzweste
p692
(dp693
g312
I0
sg313
Vupgrade
p694
sg307
I30
sg308
(lp695
(dp696
g317
g479
sg319
g306
sg321
g480
sg323
I0
sg324
I0
sg325
(dp697
Vshield
p698
I10
sg308
(dp699
VSchild & wenig heilen
p700
(dp701
g312
I0
sg313
Vupgrade
p702
sg307
I50
sg308
(lp703
(dp704
g317
g479
sg319
g306
sg321
g480
sg323
I0
sg324
I0
sg325
(dp705
Vlife
p706
I15
sVmax_life
p707
I6
sVelite
p708
I1
sVshield
p709
I15
ssasg328
I1
ssssasg328
I1
ssVneue Schuhe
p710
(dp711
g660
I0
sg661
Vupgrade
p712
sg160
I20
sg170
(lp713
(dp714
S'target'
p715
Vself
p716
sS'level'
p717
Vid
p718
sS'type'
p719
Vchange
p720
sS'random'
p721
F0.0
sS'num_units'
p722
F1.0
sS'changes'
p723
(dp724
Vdelay_walk
p725
I-2
sVwalk_dist
p726
I1
sVelite
p727
I1
sg170
(dp728
ssasg691
I1
ssVneue Munition
p729
(dp730
g660
I0
sg661
Vupgrade
p731
sg160
I20
sg170
(lp732
(dp733
g715
S'self'
p734
sg717
g159
sg719
S'change'
p735
sg721
I0
sg722
I0
sg723
(dp736
Vattack_min
p737
I5
sVattack_max
p738
I5
sg170
(dp739
VSchnellfeuer
p740
(dp741
g660
I0
sg661
Vupgrade
p742
sg160
I30
sg170
(lp743
(dp744
g715
g734
sg717
g159
sg719
g735
sg721
I0
sg722
I0
sg723
(dp745
Vnum_enemies
p746
I2
sVattack_min
p747
I4
sVelite
p748
I1
sVattack_max
p749
I8
sS'actions'
p750
(dp751
VFlammenwerfer
p752
(dp753
g554
I0
sg555
Vupgrade
p754
sg557
I40
sg558
(lp755
(dp756
g196
g561
sg200
g562
sg194
g563
sg564
I0
sg565
I0
sg566
(dp757
Vnum_enemies
p758
I4
sVattack_min
p759
I10
sVelite
p760
I1
sVattack_max
p761
I10
ssasg573
I1
ssVSchildexperte
p762
(dp763
S'delay'
p764
I0
sS'category'
p765
Vupgrade
p766
sS'price'
p767
I0
sg750
(lp768
sS'num_uses'
p769
I0
ssssasg691
I1
ssVSchildexperte
p770
(dp771
g660
I0
sg661
Vupgrade
p772
sg160
I30
sg170
(lp773
(dp774
g715
g734
sg717
g159
sg719
g735
sg721
I0
sg722
I0
sg723
(dp775
Vshield_factor
p776
F0.1
sVattack_min
p777
I6
sVelite
p778
I1
sVattack_max
p779
I4
sg170
(dp780
VSchnellfeuer
p781
(dp782
S'delay'
p783
I0
sS'category'
p784
Vupgrade
p785
sS'price'
p786
I0
sS'actions'
p787
(lp788
sS'num_uses'
p789
I0
ssVPanzerbrecher
p790
(dp791
g554
I0
sg555
Vupgrade
p792
sg557
I40
sg558
(lp793
(dp794
g196
g561
sg200
g562
sg194
g563
sg564
I0
sg565
I0
sg566
(dp795
Vshield_factor
p796
F0.2
sVattack_min
p797
I4
sVelite
p798
I1
sVattack_max
p799
I10
ssasg573
I1
ssssasg691
I1
ssssasg691
I1
sssS'shield'
p800
I0
sssI1
(dp801
g585
(dp802
g587
(dp803
I1000
(lp804
(dp805
g715
g734
sg717
g159
sg719
g735
sg721
I0
sg722
I0
sg723
(dp806
Vwalk_dist
p807
I1
sVshield
p808
I10
ssassg608
(dp809
I0
(lp810
sssg637
(dp811
g639
I15
sg640
I40
sg641
I5
sg642
VIngenieur
p812
sg644
I1
sg645
I3
sg646
I15
sg647
I1
sg648
Vsoldier
p813
sg650
I40
sg651
I5
sg652
I2
sg653
I100
sg654
I0
sg655
F0.4
sg656
(dp814
VBruecke bauen
p815
(dp816
S'delay'
p817
I50
sS'category'
p818
Vshop
p819
sS'price'
p820
I100
sS'actions'
p821
(lp822
(dp823
S'target'
p824
S'self'
p825
sS'level'
p826
S'id'
p827
sS'type'
p828
S'change'
p829
sS'random'
p830
I0
sS'num_units'
p831
I0
sS'changes'
p832
(dp833
Vlife
p834
I0
ssasS'num_uses'
p835
I-1
ssVMG-Nest
p836
(dp837
S'delay'
p838
I40
sS'category'
p839
Vshop
p840
sS'price'
p841
I70
sS'actions'
p842
(lp843
(dp844
g70
Vnew
p845
sg66
Vown
p846
sS'parameters'
p847
I6
sg68
Vbuildings
p848
sasS'num_uses'
p849
I-1
ssVWerkstatt
p850
(dp851
g341
I60
sg342
Vshop
p852
sg344
I700
sg345
(lp853
(dp854
g352
Vnew
p855
sg348
Vown
p856
sS'parameters'
p857
I3
sg350
Vbuildings
p858
sasg360
I-1
ssVFlugplatz
p859
(dp860
g440
I80
sg441
Vshop
p861
sg443
I1000
sg444
(lp862
(dp863
S'type'
p864
Vnew
p865
sS'target'
p866
Vown
p867
sS'parameters'
p868
I4
sS'level'
p869
Vbuildings
p870
sasg450
I-1
ssVLazarett
p871
(dp872
g440
I50
sg441
Vshop
p873
sg443
I500
sg444
(lp874
(dp875
g864
Vnew
p876
sg866
Vown
p877
sg868
I2
sg869
Vbuildings
p878
sasg450
I-1
ssVKaserne
p879
(dp880
g660
I60
sg661
Vshop
p881
sg160
I600
sg170
(lp882
(dp883
g719
Vnew
p884
sg715
Vown
p885
sS'parameters'
p886
I1
sg717
Vbuildings
p887
sasg691
I-1
ssVKampfingenieur
p888
(dp889
g218
I0
sg219
Vupgrade
p890
sg221
I70
sg222
(lp891
(dp892
g132
g133
sg134
g135
sg136
g137
sg138
I0
sg139
I0
sg140
(dp893
Vattack_min
p894
I10
sVelite
p895
I1
sVattack_max
p896
I15
sg222
(dp897
V4 Granaten
p898
(dp899
g218
I0
sg219
Vequipment
p900
sg221
I70
sg222
(lp901
(dp902
g132
Vself
p903
sg134
Vid
p904
sg136
Vchange
p905
sg138
F0.4
sg139
I3
sg140
(dp906
g222
(dp907
VGranate
p908
(dp909
g218
I10
sg219
Vstandard
p910
sg221
I0
sg222
(lp911
(dp912
g132
Venemy
p913
sg134
Vid
p914
sg136
Vchange
p915
sg138
F0.4
sg139
I3
sg140
(dp916
Vlife
p917
I-20
ssasg253
I4
ssssasg253
I-1
sssVshield
p918
I8
ssasg253
I1
sssg800
I0
sssI2
(dp919
g585
(dp920
g587
(dp921
I0
(lp922
ssg608
(dp923
I500
(lp924
(dp925
S'target'
p926
S'self'
p927
sS'level'
p928
S'id'
p929
sS'type'
p930
S'change'
p931
sS'random'
p932
I0
sS'num_units'
p933
I0
sS'changes'
p934
(dp935
Vattack_min
p936
I10
sVelite
p937
I1
sS'actions'
p938
(dp939
VSchusstraining
p940
(dp941
S'delay'
p942
I0
sS'category'
p943
Vupgrade
p944
sS'price'
p945
I40
sg938
(lp946
(dp947
g263
g264
sg265
g266
sg267
g268
sg269
I0
sg270
I0
sg271
(dp948
Vshoot_dist
p949
I1
sVelite
p950
I1
sVdelay_shoot
p951
I-4
ssasS'num_uses'
p952
I1
ssssasssg637
(dp953
g639
I18
sg640
I80
sg641
I5
sg642
VMG-Soldat
p954
sg644
I10
sg645
I20
sg646
I20
sg647
I2
sg648
Vsoldier
p955
sg650
I80
sg651
I60
sg652
I7
sg653
I175
sg654
I0
sg655
F0.55
sg656
(dp956
Vbessere Munition
p957
(dp958
g218
I0
sg219
Vupgrade
p959
sg221
I40
sg222
(lp960
(dp961
g132
g133
sg134
g135
sg136
g137
sg138
I0
sg139
I0
sg140
(dp962
Vattack_min
p963
I10
sVattack_max
p964
I5
sg222
(dp965
VPanzerbrecher
p966
(dp967
g218
I0
sg219
Vupgrade
p968
sg221
I60
sg222
(lp969
(dp970
g132
g133
sg134
g135
sg136
g137
sg138
I0
sg139
I0
sg140
(dp971
Vshield_factor
p972
F0.1
sVelite
p973
I1
sVattack_max
p974
I15
sg222
(dp975
VBazooka
p976
(dp977
g218
I0
sg219
Vupgrade
p978
sg221
I80
sg222
(lp979
(dp980
g132
g133
sg134
g135
sg136
g137
sg138
I0
sg139
I0
sg140
(dp981
Vshield_factor
p982
F0.15
sVattack_min
p983
I15
sVelite
p984
I1
sVnum_enemies
p985
I2
sVattack_max
p986
I10
ssasg253
I1
ssssasg253
I1
ssssasg253
I1
ssVKampfausbildung
p987
(dp988
S'delay'
p989
I0
sS'category'
p990
Vupgrade
p991
sS'price'
p992
I40
sS'actions'
p993
(lp994
(dp995
S'target'
p996
S'self'
p997
sS'level'
p998
S'id'
p999
sS'type'
p1000
S'change'
p1001
sS'random'
p1002
I0
sS'num_units'
p1003
I0
sS'changes'
p1004
(dp1005
Vshoot_dist
p1006
I1
sVelite
p1007
I1
sVdelay_shoot
p1008
I-5
ssasS'num_uses'
p1009
I1
ssVSpeed I
p1010
(dp1011
g440
I0
sg441
Vupgrade
p1012
sg443
I40
sg444
(lp1013
(dp1014
g132
g133
sg134
g135
sg136
g137
sg138
I0
sg139
I0
sg140
(dp1015
Vdelay_walk
p1016
I-5
sVelite
p1017
I1
sg222
(dp1018
VSpeed II
p1019
(dp1020
g218
I0
sg219
Vupgrade
p1021
sg221
I50
sg222
(lp1022
(dp1023
g132
g133
sg134
g135
sg136
g137
sg138
I0
sg139
I0
sg140
(dp1024
Vdelay_walk
p1025
I-5
sVwalk_dist
p1026
I1
sVelite
p1027
I1
sVdelay_shoot
p1028
I-3
ssasg253
I1
ssssasg450
I1
sssg800
I20
sssI3
(dp1029
g585
(dp1030
g587
(dp1031
I200
(lp1032
(dp1033
g181
g182
sg183
g184
sg185
g186
sg187
I0
sg188
I0
sg189
(dp1034
Vattack_min
p1035
I5
sVelite
p1036
I1
sVshield
p1037
I8
ssasI500
(lp1038
(dp1039
g181
g182
sg183
g184
sg185
g186
sg187
I0
sg188
I0
sg189
(dp1040
Vshield_factor
p1041
F0.07
sVattack_min
p1042
I8
sVelite
p1043
I1
sVattack_max
p1044
I14
ssassg608
(dp1045
I0
(lp1046
sI250
(lp1047
(dp1048
g348
g349
sg350
g351
sg352
g353
sg354
I0
sg355
I0
sg356
(dp1049
Vattack_min
p1050
I8
sVelite
p1051
I1
sVattack_max
p1052
I8
sg345
(dp1053
Vschneller laden
p1054
(dp1055
g341
I0
sg342
Vupgrade
p1056
sg344
I40
sg345
(lp1057
(dp1058
g348
g349
sg350
g351
sg352
g353
sg354
I0
sg355
I0
sg356
(dp1059
Vdelay_shoot
p1060
I-4
ssasg360
I1
ssssasssg637
(dp1061
g639
I15
sg640
I50
sg641
I5
sg642
VSniper
p1062
sg644
I1
sg645
I40
sg646
I20
sg647
I3
sg648
Vsoldier
p1063
sg650
I50
sg651
I60
sg652
I10
sg653
I200
sg654
I0
sg655
F0.6
sg656
(dp1064
VSchutzweste
p1065
(dp1066
g174
I0
sg175
Vupgrade
p1067
sg177
I30
sg178
(lp1068
(dp1069
g181
g182
sg183
g184
sg185
g186
sg187
I0
sg188
I0
sg189
(dp1070
Vshield
p1071
I10
ssasg202
I1
ssVSpeed I (ziehen und laden)
p1072
(dp1073
g174
I0
sg175
Vupgrade
p1074
sg177
I30
sg178
(lp1075
(dp1076
g181
g182
sg183
g184
sg185
g186
sg187
I0
sg188
I0
sg189
(dp1077
Vwalk_dist
p1078
I1
sVelite
p1079
I1
sVdelay_shoot
p1080
I-2
ssasg202
I1
ssVhoehere Schussweite
p1081
(dp1082
S'delay'
p1083
I0
sS'category'
p1084
Vupgrade
p1085
sS'price'
p1086
I40
sS'actions'
p1087
(lp1088
(dp1089
S'target'
p1090
S'self'
p1091
sS'level'
p1092
S'id'
p1093
sS'type'
p1094
S'change'
p1095
sS'random'
p1096
I0
sS'num_units'
p1097
I0
sS'changes'
p1098
(dp1099
Vshoot_dist
p1100
I1
sVelite
p1101
I1
sg1087
(dp1102
VDistanzexperte
p1103
(dp1104
g1083
I0
sg1084
Vupgrade
p1105
sg1086
I50
sg1087
(lp1106
(dp1107
g1090
g1091
sg1092
g1093
sg1094
g1095
sg1096
I0
sg1097
I0
sg1098
(dp1108
Vshoot_dist
p1109
I1
sVattack_min
p1110
I8
sVelite
p1111
I1
sg1087
(dp1112
ssasS'num_uses'
p1113
I1
ssssasg1113
I1
ssVPraezision
p1114
(dp1115
S'delay'
p1116
I0
sS'category'
p1117
Vupgrade
p1118
sS'price'
p1119
I30
sg485
(lp1120
(dp1121
S'target'
p1122
S'self'
p1123
sS'level'
p1124
S'id'
p1125
sS'type'
p1126
S'change'
p1127
sS'random'
p1128
I0
sS'num_units'
p1129
I0
sS'changes'
p1130
(dp1131
Vattack_min
p1132
I15
sVelite
p1133
I1
sVattack_max
p1134
I8
sg345
(dp1135
Vbessere Munition
p1136
(dp1137
g341
I0
sg342
Vupgrade
p1138
sg344
I40
sg345
(lp1139
(dp1140
g348
g349
sg350
g351
sg352
g353
sg354
I0
sg355
I0
sg356
(dp1141
Vshield_factor
p1142
F0.05
sVattack_min
p1143
I15
sVelite
p1144
I1
sVattack_max
p1145
I10
sg345
(dp1146
VSchildzerstoerer
p1147
(dp1148
g341
I0
sg342
Vupgrade
p1149
sg344
I30
sg345
(lp1150
(dp1151
g348
g349
sg350
g351
sg352
g353
sg354
I0
sg355
I0
sg356
(dp1152
Vshield_factor
p1153
F0.2
sVelite
p1154
I1
sVattack_max
p1155
I8
sg260
(dp1156
VDoppelschuss
p1157
(dp1158
g256
I0
sg257
Vupgrade
p1159
sg259
I0
sg260
(lp1160
sg282
I0
ssssasg360
I1
ssssasg360
I1
ssVDoppelschuss
p1161
(dp1162
g1083
I0
sg1084
Vupgrade
p1163
sg1086
I60
sg1087
(lp1164
(dp1165
g1090
g1091
sg1092
g1093
sg1094
g1095
sg1096
I0
sg1097
I0
sg1098
(dp1166
Vnum_enemies
p1167
I1
sVattack_min
p1168
I8
sVelite
p1169
I1
sVattack_max
p1170
I15
sg260
(dp1171
VSchildzerstoerer
p1172
(dp1173
g256
I0
sg257
Vupgrade
p1174
sg259
I0
sg260
(lp1175
sg282
I0
ssssasg1113
I1
ssssasS'num_uses'
p1176
I1
sssg800
I0
sssI4
(dp1177
g585
(dp1178
g587
(dp1179
I0
(lp1180
sI200
(lp1181
(dp1182
g181
g182
sg183
g184
sg185
g186
sg187
I0
sg188
I0
sg189
(dp1183
Vdelay_walk
p1184
I-2
sVelite
p1185
I1
sVdelay_shoot
p1186
I-3
ssasI450
(lp1187
(dp1188
g181
g182
sg183
g184
sg185
g186
sg187
I0
sg188
I0
sg189
(dp1189
Vdelay_walk
p1190
I-3
sVelite
p1191
I1
sVshield
p1192
I30
ssassg608
(dp1193
I500
(lp1194
(dp1195
g181
g182
sg183
g184
sg185
g186
sg187
I0
sg188
I0
sg189
(dp1196
Vshield_factor
p1197
F0.07
sVattack_min
p1198
I10
sVelite
p1199
I1
sVattack_max
p1200
I5
ssasssg637
(dp1201
g639
I18
sg640
I100
sg641
I5
sg642
VPanzer
p1202
sg644
I8
sg645
I50
sg646
I18
sg647
I4
sg648
Vvehicle
p1203
sg650
I100
sg651
I90
sg652
I7
sg653
I400
sg654
I0
sg655
F0.6
sg656
(dp1204
VShottpanzerung
p1205
(dp1206
g554
I0
sg555
Vupgrade
p1207
sg557
I70
sg558
(lp1208
(dp1209
g196
g561
sg200
g562
sg194
g563
sg564
I0
sg565
I0
sg566
(dp1210
Vdelay_walk
p1211
I3
sVelite
p1212
I1
sVshield
p1213
I50
sg558
(dp1214
VVerbundpanzerung
p1215
(dp1216
g554
I0
sg555
Vupgrade
p1217
sg557
I40
sg558
(lp1218
(dp1219
g196
g561
sg200
g562
sg194
g563
sg564
I0
sg565
I0
sg566
(dp1220
Vdelay_walk
p1221
I-3
sVlife
p1222
I10
sVelite
p1223
I1
sVshield
p1224
I15
ssasg573
I1
ssssasg573
I1
ssVHartkernmunition
p1225
(dp1226
S'delay'
p1227
I0
sS'category'
p1228
Vupgrade
p1229
sS'price'
p1230
I30
sS'actions'
p1231
(lp1232
(dp1233
S'target'
p1234
Vself
p1235
sS'level'
p1236
Vid
p1237
sS'type'
p1238
Vchange
p1239
sS'random'
p1240
F0.0
sS'num_units'
p1241
I0
sS'changes'
p1242
(dp1243
Vshield_factor
p1244
F0.15
sVelite
p1245
I1
sVattack_max
p1246
I8
sS'actions'
p1247
(dp1248
VUrangeschoss
p1249
(dp1250
S'delay'
p1251
I0
sS'category'
p1252
Vupgrade
p1253
sS'price'
p1254
I80
sg1247
(lp1255
(dp1256
S'target'
p1257
Vself
p1258
sS'level'
p1259
Vid
p1260
sS'type'
p1261
Vchange
p1262
sS'random'
p1263
F0.0
sS'num_units'
p1264
I0
sS'changes'
p1265
(dp1266
Vshield_factor
p1267
F0.2
sVattack_min
p1268
I15
sVelite
p1269
I1
sVattack_max
p1270
I15
ssasS'num_uses'
p1271
I1
ssssasS'num_uses'
p1272
I1
ssVSpeed I
p1273
(dp1274
g440
I0
sg441
Vupgrade
p1275
sg443
I20
sg444
(lp1276
(dp1277
g1234
S'self'
p1278
sg1236
S'id'
p1279
sg1238
S'change'
p1280
sg1240
I0
sg1241
I0
sg1242
(dp1281
Vdelay_walk
p1282
I-2
sg1231
(dp1283
VSpeed II
p1284
(dp1285
g1227
I0
sg1228
Vupgrade
p1286
sg1230
I40
sg1231
(lp1287
(dp1288
g1234
g1278
sg1236
g1279
sg1238
g1280
sg1240
I0
sg1241
I0
sg1242
(dp1289
Vdelay_walk
p1290
I-2
sVwalk_dist
p1291
I1
sVelite
p1292
I1
ssasg1272
I1
ssssasg450
I1
sssg800
I100
sssI5
(dp1293
g585
(dp1294
g587
(dp1295
I0
(lp1296
sI500
(lp1297
(dp1298
S'target'
p1299
S'self'
p1300
sS'level'
p1301
S'id'
p1302
sS'type'
p1303
S'change'
p1304
sS'random'
p1305
I0
sS'num_units'
p1306
I0
sS'changes'
p1307
(dp1308
Vmax_life
p1309
I10
sVelite
p1310
I1
ssassg608
(dp1311
I0
(lp1312
sssg637
(dp1313
g639
I15
sg640
I100
sg641
I5
sg642
VArtillerie
p1314
sg644
I10
sg645
I0
sg646
I35
sg647
I5
sg648
Vvehicle
p1315
sg650
I100
sg651
I0
sg652
I10
sg653
I600
sg654
I0
sg655
F0.5
sg656
(dp1316
Vgroessere Schussweite I
p1317
(dp1318
g1227
I0
sg1228
Vupgrade
p1319
sg1230
I40
sg1231
(lp1320
(dp1321
g1234
g1278
sg1236
g1279
sg1238
g1280
sg1240
I0
sg1241
I0
sg1242
(dp1322
Vshoot_dist
p1323
I1
sVelite
p1324
I1
sg421
(dp1325
Vgroessere Schussweite II
p1326
(dp1327
g417
I0
sg418
Vupgrade
p1328
sg420
I50
sg421
(lp1329
(dp1330
g424
g425
sg426
g427
sg428
g429
sg430
I0
sg431
I0
sg432
(dp1331
Vshoot_dist
p1332
I1
sVelite
p1333
I1
ssasg437
I1
ssVStreuung erhoehen
p1334
(dp1335
g417
I0
sg418
Vupgrade
p1336
sg420
I40
sg421
(lp1337
(dp1338
g424
g425
sg426
g427
sg428
g429
sg430
I0
sg431
I0
sg432
(dp1339
Vnum_enemies
p1340
I5
sVattack_min
p1341
I15
sVelite
p1342
I1
ssasg437
I1
ssssasg1272
I1
ssVAufbauen
p1343
(dp1344
S'delay'
p1345
I25
sS'category'
p1346
Vstandard
p1347
sS'price'
p1348
I0
sS'actions'
p1349
(lp1350
(dp1351
S'target'
p1352
S'self'
p1353
sS'level'
p1354
S'id'
p1355
sS'type'
p1356
S'change'
p1357
sS'random'
p1358
I0
sS'num_units'
p1359
I0
sS'changes'
p1360
(dp1361
Vattack_min
p1362
I100
sVwalk_dist
p1363
I-5
sVattack_max
p1364
I200
sg1349
(dp1365
VTransport
p1366
(dp1367
S'delay'
p1368
I30
sS'category'
p1369
Vequipment
p1370
sS'price'
p1371
I0
sS'actions'
p1372
(lp1373
(dp1374
S'target'
p1375
S'self'
p1376
sS'level'
p1377
S'id'
p1378
sS'type'
p1379
S'change'
p1380
sS'random'
p1381
I0
sS'num_units'
p1382
I0
sS'changes'
p1383
(dp1384
Vattack_min
p1385
I-100
sVwalk_dist
p1386
I5
sVattack_max
p1387
I-200
sg1372
(dp1388
VAufbau
p1389
(dp1390
g1368
I25
sg1369
Vstandard
p1391
sg1371
I0
sg1372
(lp1392
(dp1393
g1375
g1376
sg1377
g1378
sg1379
g1380
sg1381
I0
sg1382
I0
sg1383
(dp1394
Vattack_min
p1395
I100
sVattack_max
p1396
I200
sVwalk_dist
p1397
I-5
ssasS'num_uses'
p1398
I1
ssssasg1398
I-1
ssssasS'num_uses'
p1399
I1
ssVSpeed I
p1400
(dp1401
g440
I0
sg441
Vupgrade
p1402
sg443
I80
sg444
(lp1403
(dp1404
g424
g425
sg426
g427
sg428
g429
sg430
I0
sg431
I0
sg432
(dp1405
Vdelay_walk
p1406
I-4
sVelite
p1407
I1
sVdelay_shoot
p1408
I-8
sg421
(dp1409
VSpeed II
p1410
(dp1411
g417
I0
sg418
Vupgrade
p1412
sg420
I50
sg421
(lp1413
(dp1414
g424
g425
sg426
g427
sg428
g429
sg430
I0
sg431
I0
sg432
(dp1415
Vdelay_walk
p1416
I-2
sVelite
p1417
I1
sVdelay_shoot
p1418
I-8
ssasg437
I1
ssssasg450
I1
sssg800
I70
sssI6
(dp1419
S'elite_parameters'
p1420
(dp1421
S'ticks'
p1422
(dp1423
I200
(lp1424
(dp1425
g181
g182
sg183
g184
sg185
g186
sg187
I0
sg188
I0
sg189
(dp1426
Vlife
p1427
I100
sVmax_life
p1428
I8
sVelite
p1429
I1
ssasI500
(lp1430
(dp1431
g181
g182
sg183
g184
sg185
g186
sg187
I0
sg188
I0
sg189
(dp1432
Vlife
p1433
I100
sVmax_life
p1434
I10
sVelite
p1435
I1
sVshield
p1436
I10
ssassS'damage'
p1437
(dp1438
I0
(lp1439
sssS'basic_parameters'
p1440
(dp1441
S'delay_walk'
p1442
I15
sS'life'
p1443
I50
sS'walk_dist'
p1444
I5
sS'name'
p1445
VArzt
p1446
sS'num_enemies'
p1447
I3
sS'attack_min'
p1448
I0
sS'delay_shoot'
p1449
I15
sg929
I6
sS'unit_type'
p1450
Vsoldier
p1451
sS'max_life'
p1452
I50
sS'attack_max'
p1453
I0
sS'shoot_dist'
p1454
I5
sg945
I120
sS'elite'
p1455
I0
sS'shield_factor'
p1456
F0.4
sg938
(dp1457
VMedipack
p1458
(dp1459
g341
I0
sg342
Vshop
p1460
sg344
I60
sg345
(lp1461
(dp1462
g348
g349
sg350
g351
sg352
g353
sg354
I0
sg355
I0
sg356
(dp1463
g345
(dp1464
VSchmerzmittel
p1465
(dp1466
g341
I0
sg342
Vstandard
p1467
sg344
I0
sg345
(lp1468
(dp1469
g348
Vself
p1470
sg350
Vid
p1471
sg352
Vchange
p1472
sg354
F0.3
sg355
I0
sg356
(dp1473
Vlife
p1474
I30
ssasg360
I2
ssssasg360
I-1
ssVSchild-Mech
p1475
(dp1476
g341
I0
sg342
Vupgrade
p1477
sg344
I80
sg345
(lp1478
(dp1479
S'target'
p1480
S'self'
p1481
sS'level'
p1482
S'id'
p1483
sS'type'
p1484
S'change'
p1485
sS'random'
p1486
I0
sS'num_units'
p1487
I0
sS'changes'
p1488
(dp1489
S'actions'
p1490
(dp1491
VSchild reparieren
p1492
(dp1493
S'delay'
p1494
I20
sS'category'
p1495
Vstandard
p1496
sS'price'
p1497
I50
sg1490
(lp1498
(dp1499
g1480
Vown
p1500
sg1482
Vid
p1501
sg1484
Vchange
p1502
sg1486
F0.3
sg1487
I1
sg1488
(dp1503
Vshield
p1504
I10
ssasS'num_uses'
p1505
I-1
ssssasg360
I1
ssVFeldapotheke (andere)
p1506
(dp1507
g341
I0
sg342
Vshop
p1508
sg344
I60
sg345
(lp1509
(dp1510
g348
Vself
p1511
sg350
Vid
p1512
sg352
Vchange
p1513
sg354
F0.0
sg355
I0
sg356
(dp1514
g345
(dp1515
VPflaster
p1516
(dp1517
g341
I0
sg342
Vstandard
p1518
sg344
I0
sg345
(lp1519
(dp1520
g348
Vown
p1521
sg350
Vid
p1522
sg352
Vchange
p1523
sg354
F0.3
sg355
I1
sg356
(dp1524
Vlife
p1525
I10
ssasg360
I3
ssssasg360
I-1
ssVSpeed I
p1526
(dp1527
g341
I0
sg342
Vupgrade
p1528
sg344
I30
sg345
(lp1529
(dp1530
g348
g349
sg350
g351
sg352
g353
sg354
I0
sg355
I0
sg356
(dp1531
Vwalk_dist
p1532
I1
sVelite
p1533
I1
sg345
(dp1534
VSpeed II
p1535
(dp1536
g341
I0
sg342
Vupgrade
p1537
sg344
I50
sg345
(lp1538
(dp1539
g348
g349
sg350
g351
sg352
g353
sg354
I0
sg355
I0
sg356
(dp1540
Vdelay_walk
p1541
I-4
sVwalk_dist
p1542
I2
sVelite
p1543
I1
ssasg360
I1
ssssasg360
I1
sssS'shield'
p1544
I10
sssI7
(dp1545
S'elite_parameters'
p1546
(dp1547
S'ticks'
p1548
(dp1549
I0
(lp1550
ssS'damage'
p1551
(dp1552
I0
(lp1553
sssS'basic_parameters'
p1554
(dp1555
S'delay_walk'
p1556
I15
sS'life'
p1557
I60
sS'walk_dist'
p1558
I5
sS'name'
p1559
VCyborg
p1560
sS'num_enemies'
p1561
I5
sS'attack_min'
p1562
I20
sS'delay_shoot'
p1563
I15
sg184
I7
sS'unit_type'
p1564
Vsoldier
p1565
sS'max_life'
p1566
I60
sS'attack_max'
p1567
I35
sS'shoot_dist'
p1568
I7
sg177
I120
sS'elite'
p1569
I0
sS'shield_factor'
p1570
F0.6
sg178
(dp1571
VSpeed I
p1572
(dp1573
S'delay'
p1574
I0
sS'category'
p1575
S'upgrade'
p1576
sS'price'
p1577
I0
sS'actions'
p1578
(lp1579
sS'num_uses'
p1580
I-1
sssS'shield'
p1581
I40
sssI8
(dp1582
S'elite_parameters'
p1583
(dp1584
S'ticks'
p1585
(dp1586
I0
(lp1587
sI250
(lp1588
(dp1589
S'target'
p1590
S'self'
p1591
sS'level'
p1592
S'id'
p1593
sS'type'
p1594
S'change'
p1595
sS'random'
p1596
I0
sS'num_units'
p1597
I0
sS'changes'
p1598
(dp1599
Vlife
p1600
I20
sVelite
p1601
I1
sVshield
p1602
I5
ssasI500
(lp1603
(dp1604
g1590
g1591
sg1592
g1593
sg1594
g1595
sg1596
I0
sg1597
I0
sg1598
(dp1605
Vlife
p1606
I100
sVmax_life
p1607
I10
sVelite
p1608
I1
sVshield
p1609
I5
ssassS'damage'
p1610
(dp1611
I0
(lp1612
sI500
(lp1613
sssS'basic_parameters'
p1614
(dp1615
S'delay_walk'
p1616
I15
sS'life'
p1617
I70
sS'walk_dist'
p1618
I5
sS'name'
p1619
VKommandant
p1620
sS'num_enemies'
p1621
I4
sS'attack_min'
p1622
I20
sS'delay_shoot'
p1623
I15
sg69
I8
sS'unit_type'
p1624
Vsoldier
p1625
sS'max_life'
p1626
I70
sS'attack_max'
p1627
I30
sS'shoot_dist'
p1628
I6
sg841
I250
sS'elite'
p1629
I4
sS'shield_factor'
p1630
F0.6
sg842
(dp1631
VLuftunterstuetzung
p1632
(dp1633
g838
I40
sg839
Vstandard
p1634
sg841
I150
sg842
(lp1635
(dp1636
g66
Venemy
p1637
sg68
Vid
p1638
sg70
Vchange
p1639
sg72
F0.6
sg73
I7
sg74
(dp1640
Vlife
p1641
I-17
sVshield
p1642
I-12
ssasg849
I-1
ssVDrill Sergent
p1643
(dp1644
S'delay'
p1645
I0
sS'category'
p1646
Vupgrade
p1647
sS'price'
p1648
I100
sS'actions'
p1649
(lp1650
(dp1651
S'target'
p1652
Vown
p1653
sS'level'
p1654
Vid
p1655
sS'type'
p1656
Vchange
p1657
sS'random'
p1658
F0.0
sS'num_units'
p1659
I0
sS'changes'
p1660
(dp1661
Vattack_min
p1662
I10
sVattack_max
p1663
I8
sVdelay_shoot
p1664
I-3
ssasS'num_uses'
p1665
I-1
ssVFallschirmspringer
p1666
(dp1667
g764
I20
sg765
Vupgrade
p1668
sg767
I450
sg750
(lp1669
(dp1670
g42
Vnew
p1671
sg38
Vown
p1672
sg53
(lp1673
I0
aI0
aI2
asg40
Vgroups
p1674
sasg769
I-1
ssVSpionageausbildung
p1675
(dp1676
S'delay'
p1677
I0
sS'category'
p1678
Vupgrade
p1679
sS'price'
p1680
I170
sS'actions'
p1681
(lp1682
(dp1683
S'target'
p1684
S'self'
p1685
sS'level'
p1686
S'id'
p1687
sS'type'
p1688
S'change'
p1689
sS'random'
p1690
I0
sS'num_units'
p1691
I0
sS'changes'
p1692
(dp1693
Velite
p1694
I1
sg1681
(dp1695
VWirtschafts-Spionage
p1696
(dp1697
g1677
I40
sg1678
Vupgrade
p1698
sg1680
I80
sg1681
(lp1699
(dp1700
g1684
g1685
sg1686
g1687
sg1688
g1689
sg1690
I0
sg1691
I0
sg1692
(dp1701
g1681
(dp1702
VDieb
p1703
(dp1704
g1677
I60
sg1678
Vequipment
p1705
sg1680
I200
sg1681
(lp1706
(dp1707
g1688
Vchange
p1708
sg1690
F0.5
sg1692
(dp1709
Vaccount
p1710
I-150
ssg1684
Venemy
p1711
sg1686
Vplayer
p1712
sa(dp1713
g1688
Vchange
p1714
sg1690
F0.7
sg1692
(dp1715
Vaccount
p1716
I80
ssg1684
Vown
p1717
sg1686
Vplayer
p1718
sasS'num_uses'
p1719
I-1
ssssasg1719
I-1
ssVID-Spionage
p1720
(dp1721
g1677
I40
sg1678
Vequipment
p1722
sg1680
I70
sg1681
(lp1723
sg1719
I-1
ssssasg1719
I1
sssS'shield'
p1724
I10
sssI9
(dp1725
S'elite_parameters'
p1726
(dp1727
S'ticks'
p1728
(dp1729
I0
(lp1730
ssS'damage'
p1731
(dp1732
I0
(lp1733
sssS'basic_parameters'
p1734
(dp1735
S'delay_walk'
p1736
I0
sS'life'
p1737
I100
sS'walk_dist'
p1738
I0
sS'name'
p1739
VFlak
p1740
sS'num_enemies'
p1741
I3
sS'attack_min'
p1742
I60
sS'delay_shoot'
p1743
I15
sS'id'
p1744
I9
sS'unit_type'
p1745
Vvehicle
p1746
sS'max_life'
p1747
I100
sS'attack_max'
p1748
I80
sS'shoot_dist'
p1749
I5
sS'price'
p1750
I200
sS'elite'
p1751
I0
sS'shield_factor'
p1752
F0.6
sS'actions'
p1753
(dp1754
Vnix
p1755
(dp1756
S'delay'
p1757
I0
sS'category'
p1758
S'upgrade'
p1759
sg1750
I0
sg1753
(lp1760
sS'num_uses'
p1761
I-1
sssS'shield'
p1762
I0
sssI10
(dp1763
S'elite_parameters'
p1764
(dp1765
S'ticks'
p1766
(dp1767
I0
(lp1768
ssS'damage'
p1769
(dp1770
I0
(lp1771
sssS'basic_parameters'
p1772
(dp1773
S'delay_walk'
p1774
I11
sS'life'
p1775
I40
sS'walk_dist'
p1776
I6
sS'name'
p1777
VMotorrad
p1778
sS'num_enemies'
p1779
I4
sS'attack_min'
p1780
I5
sS'delay_shoot'
p1781
I15
sS'id'
p1782
I10
sS'unit_type'
p1783
Vvehicle
p1784
sS'max_life'
p1785
I40
sS'attack_max'
p1786
I10
sS'shoot_dist'
p1787
I5
sg1648
I40
sS'elite'
p1788
I0
sS'shield_factor'
p1789
F0.45
sg1649
(dp1790
VSchutzweste
p1791
(dp1792
g1645
I0
sg1646
Vupgrade
p1793
sg1648
I30
sg1649
(lp1794
(dp1795
g1652
S'self'
p1796
sg1654
g1782
sg1656
S'change'
p1797
sg1658
I0
sg1659
I0
sg1660
(dp1798
Vshield
p1799
I8
ssasg1665
I1
ssVneue Reifen
p1800
(dp1801
g1645
I0
sg1646
Vupgrade
p1802
sg1648
I20
sg1649
(lp1803
(dp1804
g1652
g1796
sg1654
g1782
sg1656
g1797
sg1658
I0
sg1659
I0
sg1660
(dp1805
Vwalk_dist
p1806
I1
sVelite
p1807
I1
sg1649
(dp1808
Vleichteres Motorrad
p1809
(dp1810
g1645
I0
sg1646
Vupgrade
p1811
sg1648
I30
sg1649
(lp1812
(dp1813
g1652
g1796
sg1654
g1782
sg1656
g1797
sg1658
I0
sg1659
I0
sg1660
(dp1814
Vdelay_walk
p1815
I-1
sVwalk_dist
p1816
I1
sVelite
p1817
I1
ssasg1665
I1
ssssasg1665
I1
ssVDrive by lernen
p1818
(dp1819
g1645
I0
sg1646
Vupgrade
p1820
sg1648
I30
sg1649
(lp1821
(dp1822
g1652
g1796
sg1654
g1782
sg1656
g1797
sg1658
I0
sg1659
I0
sg1660
(dp1823
Vattack_min
p1824
I7
sVelite
p1825
I1
sVattack_max
p1826
I5
ssasg1665
I1
sssS'shield'
p1827
I0
sssI11
(dp1828
S'elite_parameters'
p1829
(dp1830
S'ticks'
p1831
(dp1832
I0
(lp1833
ssS'damage'
p1834
(dp1835
I0
(lp1836
sssS'basic_parameters'
p1837
(dp1838
S'delay_walk'
p1839
I18
sS'life'
p1840
I80
sS'walk_dist'
p1841
I5
sS'name'
p1842
VJavelin
p1843
sS'num_enemies'
p1844
I2
sS'attack_min'
p1845
I8
sS'delay_shoot'
p1846
I20
sg999
I11
sS'unit_type'
p1847
Vsoldier
p1848
sS'max_life'
p1849
I80
sS'attack_max'
p1850
I12
sS'shoot_dist'
p1851
I9
sg992
I200
sS'elite'
p1852
I0
sS'shield_factor'
p1853
F2.5
sg993
(dp1854
Vschneller ziehen
p1855
(dp1856
g256
I0
sg257
Vupgrade
p1857
sg259
I30
sg260
(lp1858
(dp1859
g263
g264
sg265
g266
sg267
g268
sg269
I0
sg270
I0
sg271
(dp1860
Vdelay_walk
p1861
I-3
sVelite
p1862
I1
ssasg282
I1
ssVschneller laden
p1863
(dp1864
S'delay'
p1865
I0
sS'category'
p1866
Vupgrade
p1867
sS'price'
p1868
I40
sS'actions'
p1869
(lp1870
(dp1871
S'target'
p1872
S'self'
p1873
sS'level'
p1874
S'id'
p1875
sS'type'
p1876
S'change'
p1877
sS'random'
p1878
I0
sS'num_units'
p1879
I0
sS'changes'
p1880
(dp1881
Velite
p1882
I1
sVdelay_shoot
p1883
I-4
ssasS'num_uses'
p1884
I1
ssVgroessere Sprengkraft
p1885
(dp1886
g1865
I0
sg1866
Vupgrade
p1887
sg1868
I30
sg1869
(lp1888
(dp1889
g1872
g1873
sg1874
g1875
sg1876
g1877
sg1878
I0
sg1879
I0
sg1880
(dp1890
Vnum_enemies
p1891
I2
sVattack_min
p1892
I2
sVelite
p1893
I1
sVattack_max
p1894
I3
sg1869
(dp1895
Vneue Sprengtechnologie
p1896
(dp1897
g1865
I0
sg1866
Vupgrade
p1898
sg1868
I40
sg1869
(lp1899
(dp1900
g1872
g1873
sg1874
g1875
sg1876
g1877
sg1878
I0
sg1879
I0
sg1880
(dp1901
Vshield_factor
p1902
F0.4
sVelite
p1903
I1
ssasg1884
I1
ssssasg1884
I1
sssS'shield'
p1904
I50
ssssS'engine_parameters'
p1905
(dp1906
S'max_victory_diff'
p1907
F50.0
sS'start_account'
p1908
F10000.0
sS'all_sectors'
p1909
(dp1910
I1
(dp1911
S'victory'
p1912
I1
sS'weight'
p1913
F1.0
ssI2
(dp1914
g1912
I0
sg1913
F2.0
ssI3
(dp1915
g1912
I0
sg1913
F1.0
ssI4
(dp1916
g1912
I0
sg1913
F1.0
ssI5
(dp1917
g1912
I0
sg1913
F1.0
ssI6
(dp1918
g1912
I0
sg1913
F1.5
ssI7
(dp1919
g1912
I0
sg1913
F1.5
ssI8
(dp1920
g1912
I1
sg1913
F1.0
ssI9
(dp1921
g1912
I0
sg1913
F1.0
ssI10
(dp1922
g1912
I0
sg1913
F1.0
ssI11
(dp1923
g1912
I0
sg1913
F1.0
ssI12
(dp1924
g1912
I1
sg1913
F1.0
ssI13
(dp1925
g1912
I0
sg1913
F2.0
ssI14
(dp1926
g1912
I0
sg1913
F1.0
ssI15
(dp1927
g1912
I0
sg1913
F1.0
ssI16
(dp1928
g1912
I0
sg1913
F1.0
ssI17
(dp1929
g1912
I0
sg1913
F1.0
ssI18
(dp1930
g1912
I0
sg1913
F1.0
sssS'delay_damage'
p1931
F0.5
sS'extra_shoot_dist'
p1932
F2.0
sS'per_sector_per_tick'
p1933
F1.0
sS'take_over_factor'
p1934
F1.3
sS'tick_duration'
p1935
F11.0
sS'protection_effect'
p1936
F0.4
sS'protection_in'
p1937
F18.0
sS'sector_takeover'
p1938
F170.0
sS'protection_out'
p1939
F10.0
sS'constant_per_tick'
p1940
F4.0
ssS'transport_parameters'
p1941
(dp1942
I0
(dp1943
g126
(dp1944
g128
(dp1945
I0
(lp1946
ssg143
(dp1947
I0
(lp1948
sssg146
(dp1949
S'delay_walk'
p1950
I15
sg148
I100
sS'walk_dist'
p1951
I10
sg151
I10
sg152
VTransporter
p1952
sS'transports'
p1953
Vsoldier
p1954
sg169
F0.4
sg156
I0
sg157
I25
sg158
I20
sg162
I10
sg160
I200
sg161
I100
sg163
I7
sg166
I5
sg170
(dp1955
VPanzerung
p1956
(dp1957
S'delay'
p1958
I0
sS'category'
p1959
Vupgrade
p1960
sS'price'
p1961
I50
sS'actions'
p1962
(lp1963
(dp1964
g591
g592
sg593
g594
sg595
g596
sg597
I0
sg598
I0
sg599
(dp1965
Vdelay_walk
p1966
I3
sVelite
p1967
I1
sVshield
p1968
I40
sg1962
(dp1969
VCasspir
p1970
(dp1971
g1958
I0
sg1959
Vupgrade
p1972
sg1961
I70
sg1962
(lp1973
(dp1974
g591
g592
sg593
g594
sg595
g596
sg597
I0
sg598
I0
sg599
(dp1975
Vdelay_walk
p1976
I-5
sVelite
p1977
I1
sVshield
p1978
I50
ssasS'num_uses'
p1979
I1
ssssasg1979
I1
ssVMG
p1980
(dp1981
g1958
I0
sg1959
Vupgrade
p1982
sg1961
I40
sg1962
(lp1983
(dp1984
g591
Vself
p1985
sg593
Vid
p1986
sg595
Vchange
p1987
sg597
F0.0
sg598
I0
sg599
(dp1988
Vattack_min
p1989
I20
sVelite
p1990
I1
sVattack_max
p1991
I40
sg1962
(dp1992
VKampfmaschine
p1993
(dp1994
g1958
I0
sg1959
Vupgrade
p1995
sg1961
I80
sg1962
(lp1996
(dp1997
g591
g592
sg593
g594
sg595
g596
sg597
I0
sg598
I0
sg599
(dp1998
Vshield_factor
p1999
F0.2
sVattack_min
p2000
I30
sVelite
p2001
I1
sVattack_max
p2002
I30
ssasg1979
I1
ssssasg1979
I1
ssVSpeed up (laden & ziehen)
p2003
(dp2004
g554
I0
sg555
Vupgrade
p2005
sg557
I30
sg558
(lp2006
(dp2007
g196
g561
sg200
g562
sg194
g563
sg564
I0
sg565
I0
sg566
(dp2008
Vdelay_walk
p2009
I-2
sVelite
p2010
I1
sVdelay_shoot
p2011
I-2
sg558
(dp2012
VSpeed up (nur ziehen)
p2013
(dp2014
g554
I0
sg555
Vupgrade
p2015
sg557
I40
sg558
(lp2016
(dp2017
g196
g561
sg200
g562
sg194
g563
sg564
I0
sg565
I0
sg566
(dp2018
Vdelay_walk
p2019
I-2
sVwalk_dist
p2020
I1
sVelite
p2021
I1
ssasg573
I1
ssssasg573
I1
ssVmehr Platz I
p2022
(dp2023
g1958
I0
sg1959
Vupgrade
p2024
sg1961
I30
sg1962
(lp2025
(dp2026
g591
g592
sg593
g594
sg595
g596
sg597
I0
sg598
I0
sg599
(dp2027
Velite
p2028
I1
sVcapacity
p2029
I5
sg1962
(dp2030
Vmehr Platz II
p2031
(dp2032
g1958
I0
sg1959
Vupgrade
p2033
sg1961
I40
sg1962
(lp2034
(dp2035
g591
g592
sg593
g594
sg595
g596
sg597
I0
sg598
I0
sg599
(dp2036
Velite
p2037
I1
sVcapacity
p2038
I8
ssasg1979
I1
ssssasg1979
I1
sssg168
I0
sg159
I0
sg167
I4
sg283
I0
sssI1
(dp2039
g285
(dp2040
g287
(dp2041
I0
(lp2042
ssg290
(dp2043
I0
(lp2044
sssg293
(dp2045
S'delay_walk'
p2046
I15
sg295
I100
sS'walk_dist'
p2047
I10
sg298
I10
sg299
VHelikopter
p2048
sS'transports'
p2049
Vsoldier
p2050
sg378
F0.4
sg303
I0
sg304
I50
sg305
I20
sg372
I30
sg307
I200
sg371
I100
sg373
I10
sg376
I6
sg308
(dp2051
VBombe abwerfen
p2052
(dp2053
g312
I0
sg313
Vstandard
p2054
sg307
I80
sg308
(lp2055
(dp2056
g317
Venemy
p2057
sg319
Vid
p2058
sg321
Vchange
p2059
sg323
F0.3
sg324
I7
sg325
(dp2060
Vlife
p2061
I6
sg308
(dp2062
ssasg328
I-1
sssg377
I0
sg306
I1
sg379
I4
sg380
I0
sssI2
(dp2063
S'elite_parameters'
p2064
(dp2065
S'ticks'
p2066
(dp2067
I0
(lp2068
ssS'damage'
p2069
(dp2070
I0
(lp2071
sssS'basic_parameters'
p2072
(dp2073
S'delay_walk'
p2074
I18
sS'life'
p2075
I150
sS'walk_dist'
p2076
I9
sS'capacity'
p2077
I3
sS'name'
p2078
VFahrzeug Transporter
p2079
sS'elite'
p2080
I0
sS'shield_factor'
p2081
F0.4
sS'attack_min'
p2082
I0
sS'delay_shoot'
p2083
I15
sg404
I2
sg397
I300
sS'max_life'
p2084
I150
sS'delay_out'
p2085
I15
sS'attack_max'
p2086
I0
sg398
(dp2087
Vmehr Platz
p2088
(dp2089
g394
I0
sg395
Vupgrade
p2090
sg397
I50
sg398
(lp2091
(dp2092
g401
g402
sg403
g404
sg405
g406
sg407
I0
sg408
I0
sg409
(dp2093
Vcapacity
p2094
I2
ssasg414
I1
sssS'shoot_dist'
p2095
I5
sS'transports'
p2096
Vvehicle
p2097
sS'delay_in'
p2098
I25
sS'num_enemies'
p2099
I4
sS'shield'
p2100
I20
ssssS'card_parameters'
p2101
(dp2102
I200
(lp2103
(dp2104
S'description'
p2105
VEine Gruppe kann in einen Helikopter verladen werden und deshalb 10 pro Runde ziehen.
p2106
sS'num_cards'
p2107
I10
sg1962
(lp2108
sS'title'
p2109
VHelitransport
p2110
sa(dp2111
S'title'
p2112
VGiftgas
p2113
sS'description'
p2114
VAlle Einheiten werden verwundet. Gegnerische staerker als eigene
p2115
sg1087
(lp2116
(dp2117
S'target'
p2118
S'enemy'
p2119
sS'level'
p2120
S'id'
p2121
sS'type'
p2122
S'change'
p2123
sS'random'
p2124
F0.3
sS'num_units'
p2125
S'all'
p2126
sS'changes'
p2127
(dp2128
Vlife
p2129
I-8
ssa(dp2130
g2118
Vown
p2131
sg2120
Vid
p2132
sg2122
Vchange
p2133
sg2124
F0.3
sg2125
Vall
p2134
sg2127
(dp2135
Vlife
p2136
I-2
ssasS'num_cards'
p2137
I7
sa(dp2138
S'num_cards'
p2139
I12
sS'description'
p2140
VDescription
p2141
sS'actions'
p2142
(lp2143
(dp2144
g2118
Vown
p2145
sg2120
Vid
p2146
sg2122
Vchange
p2147
sg2124
F0.2
sg2125
I6
sg2127
(dp2148
Vlife
p2149
I20
ssasS'title'
p2150
VFeldapotheke
p2151
sass.