(dp0
S'building_parameters'
p1
(dp2
I0
(dp3
S'elite_parameters'
p4
(dp5
S'ticks'
p6
(dp7
I0
(lp8
ssS'damage'
p9
(dp10
I0
(lp11
sssS'basic_parameters'
p12
(dp13
S'delay_out'
p14
I10
sS'life'
p15
I800
sS'shop_transporter'
p16
(lp17
sS'capacity'
p18
I25
sS'name'
p19
VHauptquartier
p20
sS'shield_factor'
p21
F0.4
sS'shop_units'
p22
(lp23
I1
aI10
asS'attack_min'
p24
I0
sS'delay_shoot'
p25
I15
sS'delay_in'
p26
I20
sS'price'
p27
I1000
sS'max_life'
p28
I800
sS'max_shield'
p29
I100
sS'actions'
p30
(dp31
VArzneistudium +
p32
(dp33
S'delay'
p34
I0
sS'category'
p35
Vupgrade
p36
sS'price'
p37
I400
sS'actions'
p38
(lp39
(dp40
S'target'
p41
S'self'
p42
sS'level'
p43
S'id'
p44
sS'type'
p45
S'change'
p46
sS'random'
p47
I0
sS'num_units'
p48
I0
sS'changes'
p49
(dp50
Vshop_units
p51
(lp52
I6
assa(dp53
g45
Vnew
p54
sg41
Vown
p55
sS'parameters'
p56
(lp57
I6
asg43
Vgroups
p58
sasS'num_uses'
p59
I1
ssVKommandant +
p60
(dp61
S'delay'
p62
I0
sS'category'
p63
Vupgrade
p64
sS'price'
p65
I500
sS'actions'
p66
(lp67
(dp68
S'target'
p69
S'self'
p70
sS'level'
p71
S'id'
p72
sS'type'
p73
S'change'
p74
sS'random'
p75
I0
sS'num_units'
p76
I0
sS'changes'
p77
(dp78
Vshop_units
p79
(lp80
I8
assa(dp81
S'type'
p82
Vnew
p83
sS'target'
p84
Vown
p85
sS'parameters'
p86
(lp87
I8
asS'level'
p88
Vgroups
p89
sasS'num_uses'
p90
I1
ssVHelikopter-Plattform +
p91
(dp92
S'delay'
p93
I0
sS'category'
p94
Vupgrade
p95
sS'price'
p96
I400
sS'actions'
p97
(lp98
(dp99
S'target'
p100
S'self'
p101
sS'level'
p102
S'id'
p103
sS'type'
p104
S'change'
p105
sS'random'
p106
I0
sS'num_units'
p107
I0
sS'changes'
p108
(dp109
Vshop_transporter
p110
(lp111
I1
assa(dp112
g104
Vnew
p113
sg100
Vown
p114
sS'parameters'
p115
I1
sg102
Vtransporter
p116
sasS'num_uses'
p117
I1
sssS'attack_max'
p118
I0
sS'enter'
p119
Vsoldier
p120
sS'shoot_dist'
p121
I6
sS'elite'
p122
I0
sS'id'
p123
I0
sS'num_enemies'
p124
I4
sS'shield'
p125
I100
sssI1
(dp126
S'elite_parameters'
p127
(dp128
S'ticks'
p129
(dp130
I500
(lp131
ssS'damage'
p132
(dp133
I0
(lp134
sssS'basic_parameters'
p135
(dp136
S'life'
p137
I600
sS'shop_transporter'
p138
(lp139
sS'capacity'
p140
I15
sS'name'
p141
VKaserne
p142
sS'shop_units'
p143
(lp144
I0
asS'attack_min'
p145
I0
sS'shield'
p146
I80
sS'delay_shoot'
p147
I15
sS'id'
p148
I1
sS'price'
p149
I600
sS'delay_in'
p150
I20
sS'max_life'
p151
I600
sg29
I80
sS'actions'
p152
(dp153
VSniper +
p154
(dp155
S'delay'
p156
I0
sS'category'
p157
Vupgrade
p158
sS'price'
p159
I200
sS'actions'
p160
(lp161
(dp162
S'target'
p163
S'self'
p164
sS'level'
p165
S'id'
p166
sS'type'
p167
S'change'
p168
sS'random'
p169
I0
sS'num_units'
p170
I0
sS'changes'
p171
(dp172
Vshop_units
p173
(lp174
I3
assa(dp175
S'type'
p176
Vnew
p177
sS'target'
p178
Vown
p179
sS'parameters'
p180
(lp181
I3
asS'level'
p182
Vgroups
p183
sasS'num_uses'
p184
I1
ssVVerteidigung
p185
(dp186
S'delay'
p187
I20
sS'category'
p188
Vupgrade
p189
sS'price'
p190
I100
sS'actions'
p191
(lp192
(dp193
S'target'
p194
S'self'
p195
sS'level'
p196
S'id'
p197
sS'type'
p198
S'change'
p199
sS'random'
p200
I0
sS'num_units'
p201
I0
sS'changes'
p202
(dp203
Vattack_min
p204
I20
sVattack_max
p205
I40
ssasS'num_uses'
p206
I1
ssVMG-Soldat
p207
(dp208
S'delay'
p209
I0
sS'category'
p210
Vupgrade
p211
sS'price'
p212
I250
sS'actions'
p213
(lp214
(dp215
g194
g195
sg196
g197
sg198
g199
sg200
I0
sg201
I0
sg202
(dp216
Vshop_units
p217
(lp218
I2
asVelite
p219
I1
sS'actions'
p220
(dp221
VCyborg
p222
(dp223
S'delay'
p224
I0
sS'category'
p225
Vupgrade
p226
sS'price'
p227
I200
sg220
(lp228
(dp229
S'target'
p230
S'self'
p231
sS'level'
p232
S'id'
p233
sS'type'
p234
S'change'
p235
sS'random'
p236
I0
sS'num_units'
p237
I0
sS'changes'
p238
(dp239
Vshop_units
p240
(lp241
I7
asVelite
p242
I1
ssasS'num_uses'
p243
I1
ssVMG-Soldat Ausbildung
p244
(dp245
S'delay'
p246
I0
sS'category'
p247
Vequipment
p248
sS'price'
p249
I0
sS'actions'
p250
(lp251
(dp252
S'target'
p253
Vown
p254
sS'level'
p255
Vid
p256
sS'type'
p257
Vchange
p258
sS'random'
p259
F0.0
sS'num_units'
p260
I1
sS'changes'
p261
(dp262
Vshop_units
p263
(lp264
I2
assasS'num_uses'
p265
I-1
ssssasS'num_uses'
p266
I1
ssVJavelin +
p267
(dp268
S'delay'
p269
I0
sS'category'
p270
Vupgrade
p271
sS'price'
p272
I400
sS'actions'
p273
(lp274
(dp275
S'target'
p276
S'self'
p277
sS'level'
p278
S'id'
p279
sS'type'
p280
S'change'
p281
sS'random'
p282
I0
sS'num_units'
p283
I0
sS'changes'
p284
(dp285
Vshop_units
p286
(lp287
I11
asVelite
p288
I1
ssa(dp289
g280
Vnew
p290
sg276
Vown
p291
sS'parameters'
p292
(lp293
I11
asg278
Vgroups
p294
sasS'num_uses'
p295
I1
sssS'attack_max'
p296
I0
sS'enter'
p297
Vsoldier
p298
sS'shoot_dist'
p299
I6
sS'elite'
p300
I0
sS'shield_factor'
p301
F0.4
sS'num_enemies'
p302
I4
sS'delay_out'
p303
I10
sssI2
(dp304
S'elite_parameters'
p305
(dp306
S'ticks'
p307
(dp308
I0
(lp309
ssS'damage'
p310
(dp311
I0
(lp312
sssS'basic_parameters'
p313
(dp314
S'life'
p315
I500
sS'shop_transporter'
p316
(lp317
sS'capacity'
p318
I10
sS'name'
p319
VLazarett
p320
sS'delay_out'
p321
I10
sS'shield_factor'
p322
F0.4
sS'attack_min'
p323
I0
sS'shield'
p324
I75
sS'delay_shoot'
p325
I15
sS'id'
p326
I2
sS'price'
p327
I500
sS'delay_in'
p328
I20
sS'max_life'
p329
I500
sg29
I75
sS'actions'
p330
(dp331
V10x heilen
p332
(dp333
S'delay'
p334
I50
sS'category'
p335
Vstandard
p336
sg327
I400
sg330
(lp337
(dp338
S'target'
p339
Vown
p340
sS'level'
p341
Vid
p342
sS'type'
p343
Vchange
p344
sS'random'
p345
F0.0
sS'num_units'
p346
I0
sS'changes'
p347
(dp348
Vlife
p349
I50
ssasS'num_uses'
p350
I-1
ssV1x heilen
p351
(dp352
g334
I40
sg335
Vstandard
p353
sg327
I70
sg330
(lp354
(dp355
g339
Vown
p356
sg341
Vid
p357
sg343
Vchange
p358
sg345
F0.0
sg346
I1
sg347
(dp359
Vlife
p360
I50
ssasg350
I-1
ssVArztneistudium
p361
(dp362
S'delay'
p363
I0
sS'category'
p364
Vupgrade
p365
sS'price'
p366
I200
sS'actions'
p367
(lp368
(dp369
S'target'
p370
S'self'
p371
sS'level'
p372
S'id'
p373
sS'type'
p374
S'change'
p375
sS'random'
p376
I0
sS'num_units'
p377
I0
sS'changes'
p378
(dp379
Vshop_units
p380
(lp381
I6
assasS'num_uses'
p382
I1
ssV5x heilen
p383
(dp384
g334
I50
sg335
Vstandard
p385
sg327
I200
sg330
(lp386
(dp387
g339
Vown
p388
sg341
Vid
p389
sg343
Vchange
p390
sg345
F0.0
sg346
I5
sg347
(dp391
Vlife
p392
I50
ssasg350
I-1
sssS'enter'
p393
Vsoldier
p394
sS'shoot_dist'
p395
I6
sS'elite'
p396
I0
sS'shop_units'
p397
(lp398
sS'num_enemies'
p399
I4
sS'attack_max'
p400
I0
sssI3
(dp401
g305
(dp402
g307
(dp403
I0
(lp404
ssg310
(dp405
I0
(lp406
sssg313
(dp407
g315
I500
sg316
(lp408
I0
asg318
I10
sg319
VWerkstatt
p409
sg321
I10
sg322
F0.4
sg323
I0
sg324
I80
sg325
I15
sg326
I3
sg327
I700
sg328
I20
sg329
I500
sg29
I80
sg330
(dp410
VFahrzeug Transporter
p411
(dp412
S'delay'
p413
I0
sS'category'
p414
Vupgrade
p415
sS'price'
p416
I150
sS'actions'
p417
(lp418
(dp419
S'target'
p420
S'self'
p421
sS'level'
p422
S'id'
p423
sS'type'
p424
S'change'
p425
sS'random'
p426
I0
sS'num_units'
p427
I0
sS'changes'
p428
(dp429
Vshop_transporter
p430
(lp431
I2
asVelite
p432
I1
ssasS'num_uses'
p433
I1
ssVArtillerie
p434
(dp435
S'delay'
p436
I0
sS'category'
p437
Vupgrade
p438
sS'price'
p439
I300
sS'actions'
p440
(lp441
(dp442
S'target'
p443
S'self'
p444
sS'level'
p445
S'id'
p446
sS'type'
p447
S'change'
p448
sS'random'
p449
I0
sS'num_units'
p450
I0
sS'changes'
p451
(dp452
Vshop_units
p453
(lp454
I5
asVelite
p455
I1
ssasS'num_uses'
p456
I1
ssVVerteidigung
p457
(dp458
S'delay'
p459
I0
sS'category'
p460
Vupgrade
p461
sS'price'
p462
I50
sS'actions'
p463
(lp464
(dp465
g370
g371
sg372
g373
sg374
g375
sg376
I0
sg377
I0
sg378
(dp466
Vattack_min
p467
I30
sVattack_max
p468
I50
ssasS'num_uses'
p469
I1
sssg393
Vvehicle
p470
sg395
I6
sg396
I0
sg397
(lp471
I4
asg399
I4
sg400
I0
sssI4
(dp472
g305
(dp473
g307
(dp474
I0
(lp475
ssg310
(dp476
I0
(lp477
sssg313
(dp478
g315
I600
sg316
(lp479
sg318
I15
sg319
VFlughafen
p480
sg321
I10
sg322
F0.4
sg323
I0
sg324
I50
sg325
I15
sg326
I4
sg327
I400
sg328
I20
sg329
I600
sg29
I50
sg330
(dp481
VFlak & Verteidigung
p482
(dp483
g413
I0
sg414
Vupgrade
p484
sg416
I100
sg417
(lp485
(dp486
g420
g421
sg422
g423
sg424
g425
sg426
I0
sg427
I0
sg428
(dp487
Vshop_units
p488
(lp489
I9
asVattack_min
p490
I30
sVelite
p491
I1
sVattack_max
p492
I50
ssasg433
I1
ssVHelikopter Landeplattform
p493
(dp494
g334
I0
sg335
Vupgrade
p495
sg327
I400
sg330
(lp496
(dp497
g339
S'self'
p498
sg341
g326
sg343
S'change'
p499
sg345
I0
sg346
I0
sg347
(dp500
Vshop_transporter
p501
(lp502
I1
asVelite
p503
I1
sS'actions'
p504
(dp505
VFallschirmspringer
p506
(dp507
S'delay'
p508
I0
sS'category'
p509
S'upgrade'
p510
sS'price'
p511
I0
sS'actions'
p512
(lp513
sS'num_uses'
p514
I-1
ssssasg350
I1
sssg393
Vvehicle
p515
sg395
I6
sg396
I0
sg397
(lp516
sg399
I4
sg400
I0
sssI5
(dp517
S'elite_parameters'
p518
(dp519
S'ticks'
p520
(dp521
I0
(lp522
ssS'damage'
p523
(dp524
I0
(lp525
sssS'basic_parameters'
p526
(dp527
S'life'
p528
I100
sS'shop_transporter'
p529
(lp530
sS'capacity'
p531
I0
sS'name'
p532
Vnix
p533
sS'shield_factor'
p534
F0.6
sS'shop_units'
p535
(lp536
sS'attack_min'
p537
I60
sS'delay_shoot'
p538
I15
sS'delay_in'
p539
I0
sS'price'
p540
I200
sS'actions'
p541
(dp542
Vnix
p543
(dp544
S'delay'
p545
I0
sS'category'
p546
S'upgrade'
p547
sg540
I0
sg541
(lp548
sS'num_uses'
p549
I-1
sssS'max_life'
p550
I100
sg29
I0
sS'delay_out'
p551
I0
sS'attack_max'
p552
I80
sS'enter'
p553
Vsoldier
p554
sS'shoot_dist'
p555
I5
sS'elite'
p556
I0
sS'id'
p557
I5
sS'num_enemies'
p558
I3
sS'shield'
p559
I0
sssI6
(dp560
g518
(dp561
g520
(dp562
I0
(lp563
ssg523
(dp564
I0
(lp565
sssg526
(dp566
g528
I80
sg529
(lp567
sg531
I5
sg532
VMG-Nest
p568
sg534
F0.5
sg535
(lp569
sg537
I20
sg538
I15
sg539
I15
sg540
I100
sg541
(dp570
Vzweites Geschuetz
p571
(dp572
S'delay'
p573
I0
sS'category'
p574
Vupgrade
p575
sS'price'
p576
I50
sS'actions'
p577
(lp578
sS'num_uses'
p579
I1
ssVPanzerabwehr
p580
(dp581
S'delay'
p582
I20
sS'category'
p583
Vupgrade
p584
sS'price'
p585
I150
sS'actions'
p586
(lp587
(dp588
g178
S'self'
p589
sg182
S'id'
p590
sg176
S'change'
p591
sS'random'
p592
I0
sS'num_units'
p593
I0
sS'changes'
p594
(dp595
Vshoot_dist
p596
I1
sVattack_min
p597
I-10
sVelite
p598
I2
sVshield_factor
p599
F2.0
sVattack_max
p600
I-20
ssasS'num_uses'
p601
I1
ssVBetonguss
p602
(dp603
g582
I0
sg583
Vupgrade
p604
sg585
I50
sg586
(lp605
(dp606
g178
g589
sg182
g590
sg176
g591
sg592
I0
sg593
I0
sg594
(dp607
Velite
p608
I1
sVmax_shield
p609
I15
sVshield
p610
I30
ssasg601
I1
sssg550
I80
sg29
I20
sg551
I10
sg552
I35
sg553
Vsoldier
p611
sg555
I6
sg556
I0
sg557
I6
sg558
I4
sg559
I20
ssssS'unit_parameters'
p612
(dp613
I0
(dp614
S'elite_parameters'
p615
(dp616
S'ticks'
p617
(dp618
I1000
(lp619
(dp620
S'target'
p621
S'self'
p622
sS'level'
p623
S'id'
p624
sS'type'
p625
S'change'
p626
sS'random'
p627
I0
sS'num_units'
p628
I0
sS'changes'
p629
(dp630
Vlife
p631
I10
sVelite
p632
I1
sVshield
p633
I15
ssasI500
(lp634
(dp635
g621
g622
sg623
g624
sg625
g626
sg627
I0
sg628
I0
sg629
(dp636
Vlife
p637
I10
sVelite
p638
I1
sVshield
p639
I15
ssassS'damage'
p640
(dp641
I1000
(lp642
(dp643
S'target'
p644
S'self'
p645
sS'level'
p646
S'id'
p647
sS'type'
p648
S'change'
p649
sS'random'
p650
I0
sS'num_units'
p651
I0
sS'changes'
p652
(dp653
Vshoot_dist
p654
I2
sVmax_life
p655
I8
sVelite
p656
I1
sVattack_max
p657
I11
ssasI500
(lp658
(dp659
g621
g622
sg623
g624
sg625
g626
sg627
I0
sg628
I0
sg629
(dp660
Velite
p661
I1
sVattack_max
p662
I8
ssasI750
(lp663
(dp664
g644
g645
sg646
g647
sg648
g649
sg650
I0
sg651
I0
sg652
(dp665
Vattack_min
p666
I8
sVelite
p667
I1
sVattack_max
p668
I10
ssasssS'basic_parameters'
p669
(dp670
S'delay_walk'
p671
I15
sS'life'
p672
I50
sS'walk_dist'
p673
I5
sS'name'
p674
VSoldat
p675
sS'num_enemies'
p676
I4
sS'attack_min'
p677
I10
sS'delay_shoot'
p678
I15
sS'id'
p679
I0
sS'unit_type'
p680
Vsoldier
p681
sS'max_life'
p682
I50
sg29
I0
sS'attack_max'
p683
I20
sS'shoot_dist'
p684
I6
sS'price'
p685
I70
sS'elite'
p686
I0
sS'shield_factor'
p687
F0.5
sS'actions'
p688
(dp689
V3 HG
p690
(dp691
S'delay'
p692
I0
sS'category'
p693
Vequipment
p694
sg149
I70
sg152
(lp695
(dp696
S'target'
p697
S'self'
p698
sS'level'
p699
S'id'
p700
sS'type'
p701
S'change'
p702
sS'random'
p703
I0
sS'num_units'
p704
I0
sS'changes'
p705
(dp706
S'actions'
p707
(dp708
VHG
p709
(dp710
S'delay'
p711
I15
sS'category'
p712
Vstandard
p713
sS'price'
p714
I0
sg707
(lp715
(dp716
g697
Venemy
p717
sg699
Vid
p718
sg701
Vchange
p719
sg703
F0.3
sg704
I3
sg705
(dp720
Vlife
p721
I-10
ssasS'num_uses'
p722
I3
ssssasS'num_uses'
p723
I-1
ssVSchutzweste
p724
(dp725
g334
I0
sg335
Vupgrade
p726
sg327
I30
sg330
(lp727
(dp728
g339
g498
sg341
g326
sg343
g499
sg345
I0
sg346
I0
sg347
(dp729
Vmax_shield
p730
I10
sVshield
p731
I10
sg330
(dp732
VSchild & wenig heilen
p733
(dp734
g334
I0
sg335
Vupgrade
p735
sg327
I50
sg330
(lp736
(dp737
g339
g498
sg341
g326
sg343
g499
sg345
I0
sg346
I0
sg347
(dp738
Vmax_shield
p739
I15
sVlife
p740
I15
sVmax_life
p741
I6
sVelite
p742
I1
sVshield
p743
I15
ssasg350
I1
ssssasg350
I1
ssVneue Schuhe
p744
(dp745
g692
I0
sg693
Vupgrade
p746
sg149
I20
sg152
(lp747
(dp748
S'target'
p749
Vself
p750
sS'level'
p751
Vid
p752
sS'type'
p753
Vchange
p754
sS'random'
p755
F0.0
sS'num_units'
p756
F1.0
sS'changes'
p757
(dp758
Vdelay_walk
p759
I-2
sVwalk_dist
p760
I1
sVelite
p761
I1
sg152
(dp762
ssasg723
I1
ssVneue Munition
p763
(dp764
g692
I0
sg693
Vupgrade
p765
sg149
I20
sg152
(lp766
(dp767
g749
S'self'
p768
sg751
g148
sg753
S'change'
p769
sg755
I0
sg756
I0
sg757
(dp770
Vattack_min
p771
I5
sVattack_max
p772
I5
sg152
(dp773
VSchnellfeuer
p774
(dp775
g692
I0
sg693
Vupgrade
p776
sg149
I30
sg152
(lp777
(dp778
g749
g768
sg751
g148
sg753
g769
sg755
I0
sg756
I0
sg757
(dp779
Vnum_enemies
p780
I2
sVattack_min
p781
I4
sVelite
p782
I1
sVattack_max
p783
I8
sS'actions'
p784
(dp785
VFlammenwerfer
p786
(dp787
g582
I0
sg583
Vupgrade
p788
sg585
I40
sg586
(lp789
(dp790
g178
g589
sg182
g590
sg176
g591
sg592
I0
sg593
I0
sg594
(dp791
Vnum_enemies
p792
I4
sVattack_min
p793
I10
sVelite
p794
I1
sVattack_max
p795
I10
ssasg601
I1
ssVSchildexperte
p796
(dp797
S'delay'
p798
I0
sS'category'
p799
Vupgrade
p800
sS'price'
p801
I0
sg784
(lp802
sS'num_uses'
p803
I0
ssssasg723
I1
ssVSchildexperte
p804
(dp805
g692
I0
sg693
Vupgrade
p806
sg149
I30
sg152
(lp807
(dp808
g749
g768
sg751
g148
sg753
g769
sg755
I0
sg756
I0
sg757
(dp809
Vshield_factor
p810
F0.1
sVattack_min
p811
I6
sVelite
p812
I1
sVattack_max
p813
I4
sg152
(dp814
VSchnellfeuer
p815
(dp816
S'delay'
p817
I0
sS'category'
p818
Vupgrade
p819
sS'price'
p820
I0
sS'actions'
p821
(lp822
sS'num_uses'
p823
I0
ssVPanzerbrecher
p824
(dp825
g582
I0
sg583
Vupgrade
p826
sg585
I40
sg586
(lp827
(dp828
g178
g589
sg182
g590
sg176
g591
sg592
I0
sg593
I0
sg594
(dp829
Vshield_factor
p830
F0.2
sVattack_min
p831
I4
sVelite
p832
I1
sVattack_max
p833
I10
ssasg601
I1
ssssasg723
I1
ssssasg723
I1
sssS'shield'
p834
I0
sssI1
(dp835
g615
(dp836
g617
(dp837
I1000
(lp838
(dp839
g749
g768
sg751
g148
sg753
g769
sg755
I0
sg756
I0
sg757
(dp840
Velite
p841
I1
sVwalk_dist
p842
I1
sVmax_shield
p843
I10
sVshield
p844
I10
ssasI400
(lp845
(dp846
S'target'
p847
S'self'
p848
sS'level'
p849
S'id'
p850
sS'type'
p851
S'change'
p852
sS'random'
p853
I0
sS'num_units'
p854
I0
sS'changes'
p855
(dp856
Vdelay_walk
p857
I-2
sVlife
p858
I20
sVwalk_dist
p859
I1
sVelite
p860
I1
ssasI700
(lp861
(dp862
g847
g848
sg849
g850
sg851
g852
sg853
I0
sg854
I0
sg855
(dp863
Vmax_shield
p864
I8
sVlife
p865
I15
sVmax_life
p866
I10
sVelite
p867
I1
sVshield
p868
I13
ssassg640
(dp869
I0
(lp870
sssg669
(dp871
g671
I15
sg672
I40
sg673
I5
sg674
VIngenieur
p872
sg676
I1
sg677
I3
sg678
I15
sg679
I1
sg680
Vsoldier
p873
sg682
I40
sg29
I0
sg683
I5
sg684
I2
sg685
I100
sg686
I0
sg687
F0.4
sg688
(dp874
VBruecke bauen
p875
(dp876
S'delay'
p877
I40
sS'category'
p878
Vshop
p879
sS'price'
p880
I100
sS'actions'
p881
(lp882
(dp883
S'target'
p884
S'self'
p885
sS'level'
p886
S'id'
p887
sS'type'
p888
S'change'
p889
sS'random'
p890
I0
sS'num_units'
p891
I0
sS'changes'
p892
(dp893
Vlife
p894
I0
ssasS'num_uses'
p895
I-1
ssVMG-Nest
p896
(dp897
S'delay'
p898
I40
sS'category'
p899
Vshop
p900
sS'price'
p901
I70
sS'actions'
p902
(lp903
(dp904
g73
Vnew
p905
sg69
Vown
p906
sS'parameters'
p907
I6
sg71
Vbuildings
p908
sasS'num_uses'
p909
I-1
ssVWerkstatt
p910
(dp911
g363
I60
sg364
Vshop
p912
sg366
I700
sg367
(lp913
(dp914
g374
Vnew
p915
sg370
Vown
p916
sS'parameters'
p917
I3
sg372
Vbuildings
p918
sasg382
I-1
ssVFlugplatz
p919
(dp920
g459
I50
sg460
Vshop
p921
sg462
I400
sg463
(lp922
(dp923
S'type'
p924
Vnew
p925
sS'target'
p926
Vown
p927
sS'parameters'
p928
I4
sS'level'
p929
Vbuildings
p930
sasg469
I-1
ssVLazarett
p931
(dp932
g459
I50
sg460
Vshop
p933
sg462
I500
sg463
(lp934
(dp935
g924
Vnew
p936
sg926
Vown
p937
sg928
I2
sg929
Vbuildings
p938
sasg469
I-1
ssVKaserne
p939
(dp940
g692
I60
sg693
Vshop
p941
sg149
I600
sg152
(lp942
(dp943
g753
Vnew
p944
sg749
Vown
p945
sS'parameters'
p946
I1
sg751
Vbuildings
p947
sasg723
I-1
ssVKampfingenieur
p948
(dp949
g209
I0
sg210
Vupgrade
p950
sg212
I70
sg213
(lp951
(dp952
g194
g195
sg196
g197
sg198
g199
sg200
I0
sg201
I0
sg202
(dp953
Vshield
p954
I8
sVattack_min
p955
I10
sg213
(dp956
V3 Granaten
p957
(dp958
g209
I0
sg210
Vequipment
p959
sg212
I70
sg213
(lp960
(dp961
g194
Vself
p962
sg196
Vid
p963
sg198
Vchange
p964
sg200
F0.4
sg201
I3
sg202
(dp965
g213
(dp966
VGranate
p967
(dp968
g209
I10
sg210
Vstandard
p969
sg212
I0
sg213
(lp970
(dp971
g194
Venemy
p972
sg196
Vid
p973
sg198
Vchange
p974
sg200
F0.4
sg201
I3
sg202
(dp975
Vlife
p976
I-15
ssasg266
I3
ssssasg266
I-1
sssVmax_shield
p977
I8
sVattack_max
p978
I15
sVelite
p979
I1
ssasg266
I1
sssg834
I0
sssI2
(dp980
g615
(dp981
g617
(dp982
I400
(lp983
(dp984
g847
g848
sg849
g850
sg851
g852
sg853
I0
sg854
I0
sg855
(dp985
Vdelay_walk
p986
I-2
sVlife
p987
I15
sVelite
p988
I1
sVshield
p989
I8
ssasI800
(lp990
(dp991
g847
g848
sg849
g850
sg851
g852
sg853
I0
sg854
I0
sg855
(dp992
Vlife
p993
I15
sVmax_life
p994
I10
sVelite
p995
I1
sVshield
p996
I10
sVdelay_shoot
p997
I-2
ssassg640
(dp998
I500
(lp999
(dp1000
S'target'
p1001
S'self'
p1002
sS'level'
p1003
S'id'
p1004
sS'type'
p1005
S'change'
p1006
sS'random'
p1007
I0
sS'num_units'
p1008
I0
sS'changes'
p1009
(dp1010
Vshield_factor
p1011
F0.1
sVattack_min
p1012
I10
sVelite
p1013
I1
sS'actions'
p1014
(dp1015
VSchusstraining
p1016
(dp1017
S'delay'
p1018
I0
sS'category'
p1019
Vupgrade
p1020
sS'price'
p1021
I40
sg1014
(lp1022
(dp1023
g276
g277
sg278
g279
sg280
g281
sg282
I0
sg283
I0
sg284
(dp1024
Vshoot_dist
p1025
I1
sVelite
p1026
I1
sVdelay_shoot
p1027
I-4
ssasS'num_uses'
p1028
I1
ssssasssg669
(dp1029
g671
I18
sg672
I80
sg673
I5
sg674
VMG-Soldat
p1030
sg676
I10
sg677
I20
sg678
I20
sg679
I2
sg680
Vsoldier
p1031
sg682
I80
sg29
I20
sg683
I60
sg684
I7
sg685
I175
sg686
I0
sg687
F0.55
sg688
(dp1032
Vbessere Munition
p1033
(dp1034
g209
I0
sg210
Vupgrade
p1035
sg212
I40
sg213
(lp1036
(dp1037
g194
g195
sg196
g197
sg198
g199
sg200
I0
sg201
I0
sg202
(dp1038
Vattack_min
p1039
I10
sVattack_max
p1040
I5
sg213
(dp1041
VPanzerbrecher
p1042
(dp1043
g209
I0
sg210
Vupgrade
p1044
sg212
I60
sg213
(lp1045
(dp1046
g194
g195
sg196
g197
sg198
g199
sg200
I0
sg201
I0
sg202
(dp1047
Vshield_factor
p1048
F0.1
sVelite
p1049
I1
sVattack_max
p1050
I15
sg213
(dp1051
VBazooka
p1052
(dp1053
g209
I0
sg210
Vupgrade
p1054
sg212
I80
sg213
(lp1055
(dp1056
g194
g195
sg196
g197
sg198
g199
sg200
I0
sg201
I0
sg202
(dp1057
Vshield_factor
p1058
F0.15
sVattack_min
p1059
I15
sVelite
p1060
I1
sVnum_enemies
p1061
I2
sVattack_max
p1062
I10
ssasg266
I1
ssssasg266
I1
ssssasg266
I1
ssVKampfausbildung
p1063
(dp1064
S'delay'
p1065
I0
sS'category'
p1066
Vupgrade
p1067
sS'price'
p1068
I40
sS'actions'
p1069
(lp1070
(dp1071
S'target'
p1072
S'self'
p1073
sS'level'
p1074
S'id'
p1075
sS'type'
p1076
S'change'
p1077
sS'random'
p1078
I0
sS'num_units'
p1079
I0
sS'changes'
p1080
(dp1081
Vshoot_dist
p1082
I1
sVelite
p1083
I1
sVdelay_shoot
p1084
I-5
ssasS'num_uses'
p1085
I1
ssVSpeed I
p1086
(dp1087
g459
I0
sg460
Vupgrade
p1088
sg462
I40
sg463
(lp1089
(dp1090
g194
g195
sg196
g197
sg198
g199
sg200
I0
sg201
I0
sg202
(dp1091
Vdelay_walk
p1092
I-5
sVelite
p1093
I1
sg213
(dp1094
VSpeed II
p1095
(dp1096
g209
I0
sg210
Vupgrade
p1097
sg212
I50
sg213
(lp1098
(dp1099
g194
g195
sg196
g197
sg198
g199
sg200
I0
sg201
I0
sg202
(dp1100
Vdelay_walk
p1101
I-5
sVwalk_dist
p1102
I1
sVelite
p1103
I1
sVdelay_shoot
p1104
I-3
ssasg266
I1
ssssasg469
I1
sssg834
I20
sssI3
(dp1105
g615
(dp1106
g617
(dp1107
I400
(lp1108
(dp1109
g847
g848
sg849
g850
sg851
g852
sg853
I0
sg854
I0
sg855
(dp1110
Vmax_shield
p1111
I8
sVattack_min
p1112
I5
sVelite
p1113
I1
sVshield
p1114
I8
ssasI800
(lp1115
(dp1116
g847
g848
sg849
g850
sg851
g852
sg853
I0
sg854
I0
sg855
(dp1117
Vshield_factor
p1118
F0.1
sVattack_min
p1119
I8
sVelite
p1120
I1
sVattack_max
p1121
I14
ssassg640
(dp1122
I0
(lp1123
sI250
(lp1124
(dp1125
g370
g371
sg372
g373
sg374
g375
sg376
I0
sg377
I0
sg378
(dp1126
Vattack_min
p1127
I8
sVelite
p1128
I1
sVattack_max
p1129
I8
sg367
(dp1130
Vschneller laden
p1131
(dp1132
g363
I0
sg364
Vupgrade
p1133
sg366
I40
sg367
(lp1134
(dp1135
g370
g371
sg372
g373
sg374
g375
sg376
I0
sg377
I0
sg378
(dp1136
Vdelay_shoot
p1137
I-4
ssasg382
I1
ssssasssg669
(dp1138
g671
I15
sg672
I50
sg673
I5
sg674
VSniper
p1139
sg676
I1
sg677
I40
sg678
I20
sg679
I3
sg680
Vsoldier
p1140
sg682
I50
sg29
I0
sg683
I60
sg684
I10
sg685
I200
sg686
I0
sg687
F0.6
sg688
(dp1141
VSchutzweste
p1142
(dp1143
g156
I0
sg157
Vupgrade
p1144
sg159
I30
sg160
(lp1145
(dp1146
g163
g164
sg165
g166
sg167
g168
sg169
I0
sg170
I0
sg171
(dp1147
Vmax_shield
p1148
I10
sVshield
p1149
I10
ssasg184
I1
ssVSpeed I (ziehen und laden)
p1150
(dp1151
g156
I0
sg157
Vupgrade
p1152
sg159
I30
sg160
(lp1153
(dp1154
g163
g164
sg165
g166
sg167
g168
sg169
I0
sg170
I0
sg171
(dp1155
Vwalk_dist
p1156
I1
sVelite
p1157
I1
sVdelay_shoot
p1158
I-2
ssasg184
I1
ssVhoehere Schussweite
p1159
(dp1160
S'delay'
p1161
I0
sS'category'
p1162
Vupgrade
p1163
sS'price'
p1164
I40
sS'actions'
p1165
(lp1166
(dp1167
S'target'
p1168
S'self'
p1169
sS'level'
p1170
S'id'
p1171
sS'type'
p1172
S'change'
p1173
sS'random'
p1174
I0
sS'num_units'
p1175
I0
sS'changes'
p1176
(dp1177
Vshoot_dist
p1178
I1
sVelite
p1179
I1
sg1165
(dp1180
VDistanzexperte
p1181
(dp1182
g1161
I0
sg1162
Vupgrade
p1183
sg1164
I50
sg1165
(lp1184
(dp1185
g1168
g1169
sg1170
g1171
sg1172
g1173
sg1174
I0
sg1175
I0
sg1176
(dp1186
Vshoot_dist
p1187
I1
sVattack_min
p1188
I8
sVelite
p1189
I1
sg1165
(dp1190
ssasS'num_uses'
p1191
I1
ssssasg1191
I1
ssVPraezision
p1192
(dp1193
S'delay'
p1194
I0
sS'category'
p1195
Vupgrade
p1196
sS'price'
p1197
I30
sg504
(lp1198
(dp1199
S'target'
p1200
S'self'
p1201
sS'level'
p1202
S'id'
p1203
sS'type'
p1204
S'change'
p1205
sS'random'
p1206
I0
sS'num_units'
p1207
I0
sS'changes'
p1208
(dp1209
Vattack_min
p1210
I15
sVelite
p1211
I1
sVattack_max
p1212
I8
sg367
(dp1213
Vbessere Munition
p1214
(dp1215
g363
I0
sg364
Vupgrade
p1216
sg366
I40
sg367
(lp1217
(dp1218
g370
g371
sg372
g373
sg374
g375
sg376
I0
sg377
I0
sg378
(dp1219
Vshield_factor
p1220
F0.05
sVattack_min
p1221
I15
sVelite
p1222
I1
sVattack_max
p1223
I10
sg367
(dp1224
VSchildzerstoerer
p1225
(dp1226
g363
I0
sg364
Vupgrade
p1227
sg366
I30
sg367
(lp1228
(dp1229
g370
g371
sg372
g373
sg374
g375
sg376
I0
sg377
I0
sg378
(dp1230
Vshield_factor
p1231
F0.2
sVelite
p1232
I1
sVattack_max
p1233
I8
sg273
(dp1234
VDoppelschuss
p1235
(dp1236
g269
I0
sg270
Vupgrade
p1237
sg272
I0
sg273
(lp1238
sg295
I0
ssssasg382
I1
ssssasg382
I1
ssVDoppelschuss
p1239
(dp1240
g1161
I0
sg1162
Vupgrade
p1241
sg1164
I60
sg1165
(lp1242
(dp1243
g1168
g1169
sg1170
g1171
sg1172
g1173
sg1174
I0
sg1175
I0
sg1176
(dp1244
Vnum_enemies
p1245
I1
sVattack_min
p1246
I8
sVelite
p1247
I1
sVattack_max
p1248
I15
sg273
(dp1249
VSchildzerstoerer
p1250
(dp1251
g269
I0
sg270
Vupgrade
p1252
sg272
I0
sg273
(lp1253
sg295
I0
ssssasg1191
I1
ssssasS'num_uses'
p1254
I1
sssg834
I0
sssI4
(dp1255
g615
(dp1256
g617
(dp1257
I0
(lp1258
sI600
(lp1259
(dp1260
g847
g848
sg849
g850
sg851
g852
sg853
I0
sg854
I0
sg855
(dp1261
Vdelay_walk
p1262
I-3
sVelite
p1263
I1
sVshield
p1264
I30
sVmax_shield
p1265
I15
ssasI300
(lp1266
(dp1267
g847
g848
sg849
g850
sg851
g852
sg853
I0
sg854
I0
sg855
(dp1268
Vdelay_walk
p1269
I-2
sVelite
p1270
I1
sVshield
p1271
I15
sVdelay_shoot
p1272
I-3
ssassg640
(dp1273
I500
(lp1274
(dp1275
g163
g164
sg165
g166
sg167
g168
sg169
I0
sg170
I0
sg171
(dp1276
Vshield_factor
p1277
F0.07
sVattack_min
p1278
I10
sVelite
p1279
I1
sVattack_max
p1280
I5
ssasssg669
(dp1281
g671
I18
sg672
I100
sg673
I5
sg674
VPanzer
p1282
sg676
I8
sg677
I50
sg678
I18
sg679
I4
sg680
Vvehicle
p1283
sg682
I100
sg29
I100
sg683
I90
sg684
I7
sg685
I400
sg686
I0
sg687
F0.6
sg688
(dp1284
VShottpanzerung
p1285
(dp1286
g582
I0
sg583
Vupgrade
p1287
sg585
I70
sg586
(lp1288
(dp1289
g178
g589
sg182
g590
sg176
g591
sg592
I0
sg593
I0
sg594
(dp1290
Vdelay_walk
p1291
I3
sVelite
p1292
I1
sVshield
p1293
I50
sg586
(dp1294
VVerbundpanzerung
p1295
(dp1296
g582
I0
sg583
Vupgrade
p1297
sg585
I40
sg586
(lp1298
(dp1299
g178
g589
sg182
g590
sg176
g591
sg592
I0
sg593
I0
sg594
(dp1300
Vdelay_walk
p1301
I-3
sVlife
p1302
I10
sVelite
p1303
I1
sVshield
p1304
I25
sVmax_shield
p1305
I15
ssasg601
I1
sssVmax_shield
p1306
I30
ssasg601
I1
ssVHartkernmunition
p1307
(dp1308
S'delay'
p1309
I0
sS'category'
p1310
Vupgrade
p1311
sS'price'
p1312
I30
sS'actions'
p1313
(lp1314
(dp1315
S'target'
p1316
Vself
p1317
sS'level'
p1318
Vid
p1319
sS'type'
p1320
Vchange
p1321
sS'random'
p1322
F0.0
sS'num_units'
p1323
I0
sS'changes'
p1324
(dp1325
Vshield_factor
p1326
F0.15
sVelite
p1327
I1
sVattack_max
p1328
I8
sS'actions'
p1329
(dp1330
VUrangeschoss
p1331
(dp1332
S'delay'
p1333
I0
sS'category'
p1334
Vupgrade
p1335
sS'price'
p1336
I80
sg1329
(lp1337
(dp1338
S'target'
p1339
Vself
p1340
sS'level'
p1341
Vid
p1342
sS'type'
p1343
Vchange
p1344
sS'random'
p1345
F0.0
sS'num_units'
p1346
I0
sS'changes'
p1347
(dp1348
Vshield_factor
p1349
F0.2
sVattack_min
p1350
I15
sVelite
p1351
I1
sVattack_max
p1352
I15
ssasS'num_uses'
p1353
I1
ssssasS'num_uses'
p1354
I1
ssVSpeed I
p1355
(dp1356
g459
I0
sg460
Vupgrade
p1357
sg462
I20
sg463
(lp1358
(dp1359
g1316
S'self'
p1360
sg1318
S'id'
p1361
sg1320
S'change'
p1362
sg1322
I0
sg1323
I0
sg1324
(dp1363
Vdelay_walk
p1364
I-2
sg1313
(dp1365
VSpeed II
p1366
(dp1367
g1309
I0
sg1310
Vupgrade
p1368
sg1312
I40
sg1313
(lp1369
(dp1370
g1316
g1360
sg1318
g1361
sg1320
g1362
sg1322
I0
sg1323
I0
sg1324
(dp1371
Vdelay_walk
p1372
I-2
sVwalk_dist
p1373
I1
sVelite
p1374
I1
ssasg1354
I1
ssssasg469
I1
sssg834
I100
sssI5
(dp1375
g615
(dp1376
g617
(dp1377
I0
(lp1378
sI500
(lp1379
(dp1380
S'target'
p1381
S'self'
p1382
sS'level'
p1383
S'id'
p1384
sS'type'
p1385
S'change'
p1386
sS'random'
p1387
I0
sS'num_units'
p1388
I0
sS'changes'
p1389
(dp1390
Vmax_life
p1391
I10
sVelite
p1392
I1
ssassg640
(dp1393
I0
(lp1394
sssg669
(dp1395
g671
I15
sg672
I100
sg673
I5
sg674
VArtillerie
p1396
sg676
I10
sg677
I0
sg678
I35
sg679
I5
sg680
Vvehicle
p1397
sg682
I100
sg29
I70
sg683
I0
sg684
I10
sg685
I600
sg686
I0
sg687
F0.5
sg688
(dp1398
Vgroessere Schussweite I
p1399
(dp1400
g1309
I0
sg1310
Vupgrade
p1401
sg1312
I40
sg1313
(lp1402
(dp1403
g1316
g1360
sg1318
g1361
sg1320
g1362
sg1322
I0
sg1323
I0
sg1324
(dp1404
Vshoot_dist
p1405
I1
sVelite
p1406
I1
sg440
(dp1407
Vgroessere Schussweite II
p1408
(dp1409
g436
I0
sg437
Vupgrade
p1410
sg439
I50
sg440
(lp1411
(dp1412
g443
g444
sg445
g446
sg447
g448
sg449
I0
sg450
I0
sg451
(dp1413
Vshoot_dist
p1414
I1
sVelite
p1415
I1
ssasg456
I1
ssVStreuung erhoehen
p1416
(dp1417
g436
I0
sg437
Vupgrade
p1418
sg439
I40
sg440
(lp1419
(dp1420
g443
g444
sg445
g446
sg447
g448
sg449
I0
sg450
I0
sg451
(dp1421
Vnum_enemies
p1422
I5
sVattack_min
p1423
I15
sVelite
p1424
I1
ssasg456
I1
ssssasg1354
I1
ssVAufbauen
p1425
(dp1426
S'delay'
p1427
I25
sS'category'
p1428
Vstandard
p1429
sS'price'
p1430
I0
sS'actions'
p1431
(lp1432
(dp1433
S'target'
p1434
S'self'
p1435
sS'level'
p1436
S'id'
p1437
sS'type'
p1438
S'change'
p1439
sS'random'
p1440
I0
sS'num_units'
p1441
I0
sS'changes'
p1442
(dp1443
Vattack_min
p1444
I100
sVwalk_dist
p1445
I-5
sVattack_max
p1446
I200
sg1431
(dp1447
VTransport
p1448
(dp1449
S'delay'
p1450
I30
sS'category'
p1451
Vequipment
p1452
sS'price'
p1453
I0
sS'actions'
p1454
(lp1455
(dp1456
S'target'
p1457
S'self'
p1458
sS'level'
p1459
S'id'
p1460
sS'type'
p1461
S'change'
p1462
sS'random'
p1463
I0
sS'num_units'
p1464
I0
sS'changes'
p1465
(dp1466
Vattack_min
p1467
I-100
sVwalk_dist
p1468
I5
sVattack_max
p1469
I-200
sg1454
(dp1470
VAufbau
p1471
(dp1472
g1450
I25
sg1451
Vstandard
p1473
sg1453
I0
sg1454
(lp1474
(dp1475
g1457
g1458
sg1459
g1460
sg1461
g1462
sg1463
I0
sg1464
I0
sg1465
(dp1476
Vattack_min
p1477
I100
sVattack_max
p1478
I200
sVwalk_dist
p1479
I-5
ssasS'num_uses'
p1480
I1
ssssasg1480
I-1
ssssasS'num_uses'
p1481
I1
ssVSpeed I
p1482
(dp1483
g459
I0
sg460
Vupgrade
p1484
sg462
I80
sg463
(lp1485
(dp1486
g443
g444
sg445
g446
sg447
g448
sg449
I0
sg450
I0
sg451
(dp1487
Vdelay_walk
p1488
I-4
sVelite
p1489
I1
sVdelay_shoot
p1490
I-8
sg440
(dp1491
VSpeed II
p1492
(dp1493
g436
I0
sg437
Vupgrade
p1494
sg439
I50
sg440
(lp1495
(dp1496
g443
g444
sg445
g446
sg447
g448
sg449
I0
sg450
I0
sg451
(dp1497
Vdelay_walk
p1498
I-2
sVelite
p1499
I1
sVdelay_shoot
p1500
I-8
ssasg456
I1
ssssasg469
I1
sssg834
I70
sssI6
(dp1501
S'elite_parameters'
p1502
(dp1503
S'ticks'
p1504
(dp1505
I800
(lp1506
(dp1507
g847
g848
sg849
g850
sg851
g852
sg853
I0
sg854
I0
sg855
(dp1508
Vmax_shield
p1509
I8
sVlife
p1510
I100
sVmax_life
p1511
I10
sVelite
p1512
I1
sVshield
p1513
I15
ssasI400
(lp1514
(dp1515
g847
g848
sg849
g850
sg851
g852
sg853
I0
sg854
I0
sg855
(dp1516
Vlife
p1517
I100
sVmax_life
p1518
I8
sVelite
p1519
I1
ssassS'damage'
p1520
(dp1521
I0
(lp1522
sssS'basic_parameters'
p1523
(dp1524
S'delay_walk'
p1525
I15
sS'life'
p1526
I50
sS'walk_dist'
p1527
I5
sS'name'
p1528
VArzt
p1529
sS'num_enemies'
p1530
I3
sS'attack_min'
p1531
I0
sS'delay_shoot'
p1532
I15
sg1004
I6
sS'unit_type'
p1533
Vsoldier
p1534
sS'max_life'
p1535
I50
sg29
I10
sS'attack_max'
p1536
I0
sS'shoot_dist'
p1537
I5
sg1021
I120
sS'elite'
p1538
I0
sS'shield_factor'
p1539
F0.4
sg1014
(dp1540
VMedipack
p1541
(dp1542
g363
I0
sg364
Vshop
p1543
sg366
I60
sg367
(lp1544
(dp1545
g370
g371
sg372
g373
sg374
g375
sg376
I0
sg377
I0
sg378
(dp1546
g367
(dp1547
VSchmerzmittel
p1548
(dp1549
g363
I0
sg364
Vstandard
p1550
sg366
I0
sg367
(lp1551
(dp1552
g370
Vself
p1553
sg372
Vid
p1554
sg374
Vchange
p1555
sg376
F0.3
sg377
I0
sg378
(dp1556
Vlife
p1557
I30
ssasg382
I2
ssssasg382
I-1
ssVSchild-Mech
p1558
(dp1559
g363
I0
sg364
Vupgrade
p1560
sg366
I80
sg367
(lp1561
(dp1562
S'target'
p1563
S'self'
p1564
sS'level'
p1565
S'id'
p1566
sS'type'
p1567
S'change'
p1568
sS'random'
p1569
I0
sS'num_units'
p1570
I0
sS'changes'
p1571
(dp1572
S'actions'
p1573
(dp1574
VSchild reparieren
p1575
(dp1576
S'delay'
p1577
I20
sS'category'
p1578
Vstandard
p1579
sS'price'
p1580
I30
sg1573
(lp1581
(dp1582
g1563
Vown
p1583
sg1565
Vid
p1584
sg1567
Vchange
p1585
sg1569
F0.3
sg1570
I1
sg1571
(dp1586
Vshield
p1587
I10
ssasS'num_uses'
p1588
I-1
ssssasg382
I1
ssVFeldapotheke (andere)
p1589
(dp1590
g363
I0
sg364
Vshop
p1591
sg366
I60
sg367
(lp1592
(dp1593
g370
Vself
p1594
sg372
Vid
p1595
sg374
Vchange
p1596
sg376
F0.0
sg377
I0
sg378
(dp1597
g367
(dp1598
VPflaster
p1599
(dp1600
g363
I0
sg364
Vstandard
p1601
sg366
I0
sg367
(lp1602
(dp1603
g370
Vown
p1604
sg372
Vid
p1605
sg374
Vchange
p1606
sg376
F0.3
sg377
I1
sg378
(dp1607
Vlife
p1608
I10
ssasg382
I3
ssssasg382
I-1
ssVSpeed I
p1609
(dp1610
g363
I0
sg364
Vupgrade
p1611
sg366
I30
sg367
(lp1612
(dp1613
g370
g371
sg372
g373
sg374
g375
sg376
I0
sg377
I0
sg378
(dp1614
Vwalk_dist
p1615
I1
sVelite
p1616
I1
sg367
(dp1617
VSpeed II
p1618
(dp1619
g363
I0
sg364
Vupgrade
p1620
sg366
I50
sg367
(lp1621
(dp1622
g370
g371
sg372
g373
sg374
g375
sg376
I0
sg377
I0
sg378
(dp1623
Vdelay_walk
p1624
I-4
sVwalk_dist
p1625
I2
sVelite
p1626
I1
ssasg382
I1
ssssasg382
I1
sssS'shield'
p1627
I10
sssI7
(dp1628
S'elite_parameters'
p1629
(dp1630
S'ticks'
p1631
(dp1632
I0
(lp1633
ssS'damage'
p1634
(dp1635
I0
(lp1636
sssS'basic_parameters'
p1637
(dp1638
S'delay_walk'
p1639
I15
sS'life'
p1640
I60
sS'walk_dist'
p1641
I5
sS'name'
p1642
VCyborg
p1643
sS'num_enemies'
p1644
I5
sS'attack_min'
p1645
I20
sS'delay_shoot'
p1646
I15
sg166
I7
sS'unit_type'
p1647
Vsoldier
p1648
sS'max_life'
p1649
I60
sg29
I40
sS'attack_max'
p1650
I35
sS'shoot_dist'
p1651
I7
sg159
I120
sS'elite'
p1652
I0
sS'shield_factor'
p1653
F0.6
sg160
(dp1654
VSpeed I
p1655
(dp1656
S'delay'
p1657
I0
sS'category'
p1658
S'upgrade'
p1659
sS'price'
p1660
I0
sS'actions'
p1661
(lp1662
sS'num_uses'
p1663
I-1
sssS'shield'
p1664
I40
sssI8
(dp1665
S'elite_parameters'
p1666
(dp1667
S'ticks'
p1668
(dp1669
I0
(lp1670
sI250
(lp1671
(dp1672
S'target'
p1673
S'self'
p1674
sS'level'
p1675
S'id'
p1676
sS'type'
p1677
S'change'
p1678
sS'random'
p1679
I0
sS'num_units'
p1680
I0
sS'changes'
p1681
(dp1682
Velite
p1683
I1
sVlife
p1684
I20
sVmax_shield
p1685
I5
sVshield
p1686
I10
ssasI500
(lp1687
(dp1688
g1673
g1674
sg1675
g1676
sg1677
g1678
sg1679
I0
sg1680
I0
sg1681
(dp1689
Velite
p1690
I1
sVlife
p1691
I100
sVmax_life
p1692
I10
sVmax_shield
p1693
I5
sVshield
p1694
I20
ssassS'damage'
p1695
(dp1696
I0
(lp1697
sI500
(lp1698
sssS'basic_parameters'
p1699
(dp1700
S'delay_walk'
p1701
I15
sS'life'
p1702
I70
sS'walk_dist'
p1703
I5
sS'name'
p1704
VKommandant
p1705
sS'num_enemies'
p1706
I4
sS'attack_min'
p1707
I20
sS'delay_shoot'
p1708
I15
sg72
I8
sS'unit_type'
p1709
Vsoldier
p1710
sS'max_life'
p1711
I70
sg29
I10
sS'attack_max'
p1712
I30
sS'shoot_dist'
p1713
I6
sg901
I250
sS'elite'
p1714
I4
sS'shield_factor'
p1715
F0.6
sg902
(dp1716
VLuftunterstuetzung
p1717
(dp1718
g898
I40
sg899
Vstandard
p1719
sg901
I150
sg902
(lp1720
(dp1721
g69
Venemy
p1722
sg71
Vid
p1723
sg73
Vchange
p1724
sg75
F0.6
sg76
I7
sg77
(dp1725
Vlife
p1726
I-17
sVshield
p1727
I-12
ssasg909
I-1
ssVDrill Sergent
p1728
(dp1729
S'delay'
p1730
I0
sS'category'
p1731
Vstandard
p1732
sS'price'
p1733
I100
sS'actions'
p1734
(lp1735
(dp1736
S'target'
p1737
Vown
p1738
sS'level'
p1739
Vid
p1740
sS'type'
p1741
Vchange
p1742
sS'random'
p1743
F0.0
sS'num_units'
p1744
I0
sS'changes'
p1745
(dp1746
Vattack_min
p1747
I10
sVattack_max
p1748
I8
sVdelay_shoot
p1749
I-3
ssasS'num_uses'
p1750
I-1
ssVFallschirmspringer
p1751
(dp1752
g798
I20
sg799
Vstandard
p1753
sg801
I450
sg784
(lp1754
(dp1755
g45
Vnew
p1756
sg41
Vown
p1757
sg56
(lp1758
I0
aI0
aI2
asg43
Vgroups
p1759
sasg803
I-1
ssVSpionageausbildung
p1760
(dp1761
S'delay'
p1762
I0
sS'category'
p1763
Vupgrade
p1764
sS'price'
p1765
I170
sS'actions'
p1766
(lp1767
(dp1768
S'target'
p1769
S'self'
p1770
sS'level'
p1771
S'id'
p1772
sS'type'
p1773
S'change'
p1774
sS'random'
p1775
I0
sS'num_units'
p1776
I0
sS'changes'
p1777
(dp1778
Velite
p1779
I1
sg1766
(dp1780
VWirtschafts-Spionage
p1781
(dp1782
g1762
I40
sg1763
Vupgrade
p1783
sg1765
I80
sg1766
(lp1784
(dp1785
g1769
g1770
sg1771
g1772
sg1773
g1774
sg1775
I0
sg1776
I0
sg1777
(dp1786
g1766
(dp1787
VDieb
p1788
(dp1789
g1762
I60
sg1763
Vequipment
p1790
sg1765
I200
sg1766
(lp1791
(dp1792
g1773
Vchange
p1793
sg1775
F0.5
sg1777
(dp1794
Vaccount
p1795
I-150
ssg1769
Venemy
p1796
sg1771
Vplayer
p1797
sa(dp1798
g1773
Vchange
p1799
sg1775
F0.7
sg1777
(dp1800
Vaccount
p1801
I80
ssg1769
Vown
p1802
sg1771
Vplayer
p1803
sasS'num_uses'
p1804
I-1
ssssasg1804
I-1
ssVID-Spionage
p1805
(dp1806
g1762
I40
sg1763
Vequipment
p1807
sg1765
I70
sg1766
(lp1808
sg1804
I-1
ssssasg1804
I1
sssS'shield'
p1809
I10
sssI9
(dp1810
S'elite_parameters'
p1811
(dp1812
S'ticks'
p1813
(dp1814
I0
(lp1815
ssS'damage'
p1816
(dp1817
I0
(lp1818
sssS'basic_parameters'
p1819
(dp1820
S'delay_walk'
p1821
I0
sS'life'
p1822
I100
sS'walk_dist'
p1823
I0
sS'name'
p1824
VFlak
p1825
sS'num_enemies'
p1826
I3
sS'attack_min'
p1827
I60
sS'delay_shoot'
p1828
I15
sS'id'
p1829
I9
sS'unit_type'
p1830
Vvehicle
p1831
sS'max_life'
p1832
I100
sg29
I0
sS'attack_max'
p1833
I80
sS'shoot_dist'
p1834
I5
sS'price'
p1835
I200
sS'elite'
p1836
I0
sS'shield_factor'
p1837
F0.6
sS'actions'
p1838
(dp1839
Vnix
p1840
(dp1841
S'delay'
p1842
I0
sS'category'
p1843
S'upgrade'
p1844
sg1835
I0
sg1838
(lp1845
sS'num_uses'
p1846
I-1
sssS'shield'
p1847
I0
sssI10
(dp1848
S'elite_parameters'
p1849
(dp1850
S'ticks'
p1851
(dp1852
I0
(lp1853
(dp1854
g847
g848
sg849
g850
sg851
g852
sg853
I0
sg854
I0
sg855
(dp1855
sasI400
(lp1856
(dp1857
g847
g848
sg849
g850
sg851
g852
sg853
I0
sg854
I0
sg855
(dp1858
Vdelay_walk
p1859
I-2
sVelite
p1860
I1
ssassS'damage'
p1861
(dp1862
I0
(lp1863
sssS'basic_parameters'
p1864
(dp1865
S'delay_walk'
p1866
I11
sS'life'
p1867
I40
sS'walk_dist'
p1868
I6
sS'name'
p1869
VMotorrad
p1870
sS'num_enemies'
p1871
I4
sS'attack_min'
p1872
I5
sS'delay_shoot'
p1873
I15
sS'id'
p1874
I10
sS'unit_type'
p1875
Vvehicle
p1876
sS'max_life'
p1877
I40
sg29
I0
sS'attack_max'
p1878
I10
sS'shoot_dist'
p1879
I5
sg1733
I40
sS'elite'
p1880
I0
sS'shield_factor'
p1881
F0.45
sg1734
(dp1882
VSchutzweste
p1883
(dp1884
g1730
I0
sg1731
Vupgrade
p1885
sg1733
I30
sg1734
(lp1886
(dp1887
g1737
S'self'
p1888
sg1739
g1874
sg1741
S'change'
p1889
sg1743
I0
sg1744
I0
sg1745
(dp1890
Vmax_shield
p1891
I8
sVshield
p1892
I8
ssasg1750
I1
ssVneue Reifen
p1893
(dp1894
g1730
I0
sg1731
Vupgrade
p1895
sg1733
I20
sg1734
(lp1896
(dp1897
g1737
g1888
sg1739
g1874
sg1741
g1889
sg1743
I0
sg1744
I0
sg1745
(dp1898
Vwalk_dist
p1899
I1
sVelite
p1900
I1
sg1734
(dp1901
Vleichteres Motorrad
p1902
(dp1903
g1730
I0
sg1731
Vupgrade
p1904
sg1733
I30
sg1734
(lp1905
(dp1906
g1737
g1888
sg1739
g1874
sg1741
g1889
sg1743
I0
sg1744
I0
sg1745
(dp1907
Vdelay_walk
p1908
I-1
sVwalk_dist
p1909
I1
sVelite
p1910
I1
ssasg1750
I1
ssssasg1750
I1
ssVDrive by lernen
p1911
(dp1912
g1730
I0
sg1731
Vupgrade
p1913
sg1733
I30
sg1734
(lp1914
(dp1915
g1737
g1888
sg1739
g1874
sg1741
g1889
sg1743
I0
sg1744
I0
sg1745
(dp1916
Vattack_min
p1917
I7
sVelite
p1918
I1
sVattack_max
p1919
I5
ssasg1750
I1
sssS'shield'
p1920
I0
sssI11
(dp1921
S'elite_parameters'
p1922
(dp1923
S'ticks'
p1924
(dp1925
I0
(lp1926
ssS'damage'
p1927
(dp1928
I0
(lp1929
sssS'basic_parameters'
p1930
(dp1931
S'delay_walk'
p1932
I18
sS'life'
p1933
I80
sS'walk_dist'
p1934
I5
sS'name'
p1935
VJavelin
p1936
sS'num_enemies'
p1937
I2
sS'attack_min'
p1938
I8
sS'delay_shoot'
p1939
I20
sg1075
I11
sS'unit_type'
p1940
Vsoldier
p1941
sS'max_life'
p1942
I80
sg29
I50
sS'attack_max'
p1943
I12
sS'shoot_dist'
p1944
I9
sg1068
I200
sS'elite'
p1945
I0
sS'shield_factor'
p1946
F2.5
sg1069
(dp1947
Vschneller ziehen
p1948
(dp1949
g269
I0
sg270
Vupgrade
p1950
sg272
I30
sg273
(lp1951
(dp1952
g276
g277
sg278
g279
sg280
g281
sg282
I0
sg283
I0
sg284
(dp1953
Vdelay_walk
p1954
I-3
sVelite
p1955
I1
ssasg295
I1
ssVschneller laden
p1956
(dp1957
S'delay'
p1958
I0
sS'category'
p1959
Vupgrade
p1960
sS'price'
p1961
I40
sS'actions'
p1962
(lp1963
(dp1964
S'target'
p1965
S'self'
p1966
sS'level'
p1967
S'id'
p1968
sS'type'
p1969
S'change'
p1970
sS'random'
p1971
I0
sS'num_units'
p1972
I0
sS'changes'
p1973
(dp1974
Velite
p1975
I1
sVdelay_shoot
p1976
I-4
ssasS'num_uses'
p1977
I1
ssVgroessere Sprengkraft
p1978
(dp1979
g1958
I0
sg1959
Vupgrade
p1980
sg1961
I30
sg1962
(lp1981
(dp1982
g1965
g1966
sg1967
g1968
sg1969
g1970
sg1971
I0
sg1972
I0
sg1973
(dp1983
Vnum_enemies
p1984
I2
sVattack_min
p1985
I2
sVelite
p1986
I1
sVattack_max
p1987
I3
sg1962
(dp1988
Vneue Sprengtechnologie
p1989
(dp1990
g1958
I0
sg1959
Vupgrade
p1991
sg1961
I40
sg1962
(lp1992
(dp1993
g1965
g1966
sg1967
g1968
sg1969
g1970
sg1971
I0
sg1972
I0
sg1973
(dp1994
Vshield_factor
p1995
F0.4
sVelite
p1996
I1
ssasg1977
I1
ssssasg1977
I1
sssS'shield'
p1997
I50
ssssS'engine_parameters'
p1998
(dp1999
S'max_victory_diff'
p2000
F200.0
sS'start_account'
p2001
F200.0
sS'all_sectors'
p2002
(dp2003
I1
(dp2004
S'victory'
p2005
I1
sS'weight'
p2006
F1.0
ssI2
(dp2007
g2005
I0
sg2006
F1.0
ssI3
(dp2008
g2005
I0
sg2006
F2.0
ssI4
(dp2009
g2005
I0
sg2006
F1.0
ssI5
(dp2010
g2005
I0
sg2006
F1.0
ssI6
(dp2011
g2005
I0
sg2006
F1.5
ssI7
(dp2012
g2005
I0
sg2006
F1.5
ssI8
(dp2013
g2005
I1
sg2006
F1.0
ssI9
(dp2014
g2005
I0
sg2006
F1.0
ssI10
(dp2015
g2005
I0
sg2006
F1.0
ssI11
(dp2016
g2005
I0
sg2006
F1.0
ssI12
(dp2017
g2005
I1
sg2006
F1.0
ssI13
(dp2018
g2005
I0
sg2006
F2.0
ssI14
(dp2019
g2005
I0
sg2006
F1.0
ssI15
(dp2020
g2005
I0
sg2006
F1.0
sssS'delay_damage'
p2021
F0.5
sS'extra_shoot_dist'
p2022
F2.0
sS'per_sector_per_tick'
p2023
F1.0
sS'take_over_factor'
p2024
F1.3
sS'tick_duration'
p2025
F11.0
sS'protection_effect'
p2026
F0.4
sS'protection_in'
p2027
F18.0
sS'sector_takeover'
p2028
F170.0
sS'protection_out'
p2029
F10.0
sS'constant_per_tick'
p2030
F4.0
ssS'transport_parameters'
p2031
(dp2032
I0
(dp2033
g127
(dp2034
g129
(dp2035
I0
(lp2036
ssg132
(dp2037
I0
(lp2038
sssg135
(dp2039
S'delay_walk'
p2040
I15
sg137
I100
sS'walk_dist'
p2041
I10
sg140
I10
sg141
VTransporter
p2042
sS'transports'
p2043
Vsoldier
p2044
sg301
F0.4
sg145
I0
sg146
I25
sg147
I20
sg150
I10
sg149
I200
sg151
I100
sg29
I25
sg303
I7
sg299
I5
sg152
(dp2045
VPanzerung
p2046
(dp2047
S'delay'
p2048
I0
sS'category'
p2049
Vupgrade
p2050
sS'price'
p2051
I50
sS'actions'
p2052
(lp2053
(dp2054
g621
g622
sg623
g624
sg625
g626
sg627
I0
sg628
I0
sg629
(dp2055
Vdelay_walk
p2056
I3
sVelite
p2057
I1
sVshield
p2058
I40
sg2052
(dp2059
VCasspir
p2060
(dp2061
g2048
I0
sg2049
Vupgrade
p2062
sg2051
I70
sg2052
(lp2063
(dp2064
g621
g622
sg623
g624
sg625
g626
sg627
I0
sg628
I0
sg629
(dp2065
Vdelay_walk
p2066
I-5
sVelite
p2067
I1
sVshield
p2068
I50
sVmax_shield
p2069
I40
ssasS'num_uses'
p2070
I1
sssVmax_shield
p2071
I30
ssasg2070
I1
ssVMG
p2072
(dp2073
g2048
I0
sg2049
Vupgrade
p2074
sg2051
I40
sg2052
(lp2075
(dp2076
g621
Vself
p2077
sg623
Vid
p2078
sg625
Vchange
p2079
sg627
F0.0
sg628
I0
sg629
(dp2080
Vattack_min
p2081
I20
sVelite
p2082
I1
sVattack_max
p2083
I40
sg2052
(dp2084
VKampfmaschine
p2085
(dp2086
g2048
I0
sg2049
Vupgrade
p2087
sg2051
I80
sg2052
(lp2088
(dp2089
g621
g622
sg623
g624
sg625
g626
sg627
I0
sg628
I0
sg629
(dp2090
Vshield_factor
p2091
F0.2
sVattack_min
p2092
I30
sVelite
p2093
I1
sVattack_max
p2094
I30
ssasg2070
I1
ssssasg2070
I1
ssVSpeed up (laden & ziehen)
p2095
(dp2096
g582
I0
sg583
Vupgrade
p2097
sg585
I30
sg586
(lp2098
(dp2099
g178
g589
sg182
g590
sg176
g591
sg592
I0
sg593
I0
sg594
(dp2100
Vdelay_walk
p2101
I-2
sVelite
p2102
I1
sVdelay_shoot
p2103
I-2
sg586
(dp2104
VSpeed up (nur ziehen)
p2105
(dp2106
g582
I0
sg583
Vupgrade
p2107
sg585
I40
sg586
(lp2108
(dp2109
g178
g589
sg182
g590
sg176
g591
sg592
I0
sg593
I0
sg594
(dp2110
Vdelay_walk
p2111
I-2
sVwalk_dist
p2112
I1
sVelite
p2113
I1
ssasg601
I1
ssssasg601
I1
ssVmehr Platz I
p2114
(dp2115
g2048
I0
sg2049
Vupgrade
p2116
sg2051
I30
sg2052
(lp2117
(dp2118
g621
g622
sg623
g624
sg625
g626
sg627
I0
sg628
I0
sg629
(dp2119
Velite
p2120
I1
sVcapacity
p2121
I5
sg2052
(dp2122
Vmehr Platz II
p2123
(dp2124
g2048
I0
sg2049
Vupgrade
p2125
sg2051
I40
sg2052
(lp2126
(dp2127
g621
g622
sg623
g624
sg625
g626
sg627
I0
sg628
I0
sg629
(dp2128
Velite
p2129
I1
sVcapacity
p2130
I8
ssasg2070
I1
ssssasg2070
I1
sssg300
I0
sg148
I0
sg302
I4
sg296
I0
sssI1
(dp2131
g305
(dp2132
g307
(dp2133
I0
(lp2134
ssg310
(dp2135
I0
(lp2136
sssg313
(dp2137
S'delay_walk'
p2138
I15
sg315
I100
sS'walk_dist'
p2139
I10
sg318
I10
sg319
VHelikopter
p2140
sS'transports'
p2141
Vsoldier
p2142
sg322
F0.4
sg323
I0
sg324
I50
sg325
I20
sg328
I10
sg327
I200
sg329
I100
sg29
I50
sg321
I8
sg395
I6
sg330
(dp2143
VBombe abwerfen
p2144
(dp2145
g334
I15
sg335
Vstandard
p2146
sg327
I80
sg330
(lp2147
(dp2148
g339
Venemy
p2149
sg341
Vid
p2150
sg343
Vchange
p2151
sg345
F0.3
sg346
I7
sg347
(dp2152
Vlife
p2153
I-6
sg330
(dp2154
ssasg350
I-1
ssVschneller fliegen
p2155
(dp2156
S'delay'
p2157
I0
sS'category'
p2158
Vupgrade
p2159
sS'price'
p2160
I30
sS'actions'
p2161
(lp2162
(dp2163
S'target'
p2164
S'self'
p2165
sS'level'
p2166
S'id'
p2167
sS'type'
p2168
S'change'
p2169
sS'random'
p2170
I0
sS'num_units'
p2171
I0
sS'changes'
p2172
(dp2173
Vdelay_walk
p2174
I-3
sg2161
(dp2175
Vsuper Speed
p2176
(dp2177
g2157
I0
sg2158
Vupgrade
p2178
sg2160
I50
sg2161
(lp2179
(dp2180
g2164
g2165
sg2166
g2167
sg2168
g2169
sg2170
I0
sg2171
I0
sg2172
(dp2181
Vdelay_walk
p2182
I-2
sVwalk_dist
p2183
I1
ssasS'num_uses'
p2184
I1
ssssasg2184
I1
sssg396
I0
sg326
I1
sg399
I4
sg400
I0
sssI2
(dp2185
S'elite_parameters'
p2186
(dp2187
S'ticks'
p2188
(dp2189
I0
(lp2190
ssS'damage'
p2191
(dp2192
I0
(lp2193
sssS'basic_parameters'
p2194
(dp2195
S'delay_walk'
p2196
I18
sS'life'
p2197
I150
sS'walk_dist'
p2198
I9
sS'capacity'
p2199
I3
sS'name'
p2200
VFahrzeug Transporter
p2201
sS'elite'
p2202
I0
sS'shield_factor'
p2203
F0.4
sS'attack_min'
p2204
I0
sS'delay_shoot'
p2205
I15
sg423
I2
sg416
I300
sS'max_life'
p2206
I150
sg29
I20
sS'delay_out'
p2207
I15
sS'attack_max'
p2208
I0
sg417
(dp2209
Vmehr Platz
p2210
(dp2211
g413
I0
sg414
Vupgrade
p2212
sg416
I50
sg417
(lp2213
(dp2214
g420
g421
sg422
g423
sg424
g425
sg426
I0
sg427
I0
sg428
(dp2215
Vcapacity
p2216
I2
ssasg433
I1
sssS'shoot_dist'
p2217
I5
sS'transports'
p2218
Vvehicle
p2219
sS'delay_in'
p2220
I25
sS'num_enemies'
p2221
I4
sS'shield'
p2222
I20
ssssS'card_parameters'
p2223
(dp2224
I200
(lp2225
(dp2226
S'description'
p2227
VEine Gruppe kann in einen Helikopter verladen werden und deshalb 10 pro Runde ziehen.
p2228
sS'num_cards'
p2229
I10
sg2052
(lp2230
(dp2231
S'target'
p2232
S'self'
p2233
sS'level'
p2234
S'id'
p2235
sS'type'
p2236
S'change'
p2237
sS'random'
p2238
F0.0
sS'num_units'
p2239
I0
sS'changes'
p2240
(dp2241
sasS'title'
p2242
VHelitransport
p2243
sa(dp2244
S'title'
p2245
VGiftgas
p2246
sS'description'
p2247
VAlle Einheiten werden verwundet. Gegnerische staerker als eigene
p2248
sg1165
(lp2249
(dp2250
S'target'
p2251
S'enemy'
p2252
sS'level'
p2253
S'id'
p2254
sS'type'
p2255
S'change'
p2256
sS'random'
p2257
F0.3
sS'num_units'
p2258
S'all'
p2259
sS'changes'
p2260
(dp2261
Vlife
p2262
I-8
ssa(dp2263
g2251
Vown
p2264
sg2253
Vid
p2265
sg2255
Vchange
p2266
sg2257
F0.3
sg2258
Vall
p2267
sg2260
(dp2268
Vlife
p2269
I-2
ssasS'num_cards'
p2270
I7
sa(dp2271
S'num_cards'
p2272
I12
sS'description'
p2273
VDescription
p2274
sS'actions'
p2275
(lp2276
(dp2277
g2251
Vown
p2278
sg2253
Vid
p2279
sg2255
Vchange
p2280
sg2257
F0.2
sg2258
I6
sg2260
(dp2281
Vlife
p2282
I20
ssasS'title'
p2283
VFeldapotheke
p2284
sa(dp2285
S'description'
p2286
VDescription
p2287
sS'num_cards'
p2288
I1
sS'actions'
p2289
(lp2290
(dp2291
g2236
S'new'
p2292
sg2232
S'own'
p2293
sS'parameters'
p2294
I0
sg2234
S'buildings'
p2295
sa(dp2296
g2232
S'self'
p2297
sg2234
S'id'
p2298
sg2236
S'change'
p2299
sg2238
F0.0
sg2239
I0
sg2240
(dp2300
Vlife
p2301
I0
ssasS'title'
p2302
VUnnamed Card
p2303
sa(dp2304
S'num_cards'
p2305
I4
sS'description'
p2306
Veine eigene Gruppe kann geheilt werden
p2307
sS'actions'
p2308
(lp2309
(dp2310
S'target'
p2311
S'self'
p2312
sS'level'
p2313
S'id'
p2314
sS'type'
p2315
S'change'
p2316
sS'random'
p2317
I0
sS'num_units'
p2318
S''
p2319
sS'changes'
p2320
(dp2321
Vlife
p2322
I0
ssasS'title'
p2323
Vmittleres Heilen
p2324
sass.