(dp0
S'building_parameters'
p1
(dp2
I0
(dp3
S'elite_parameters'
p4
(dp5
S'ticks'
p6
(dp7
I0
(lp8
ssS'damage'
p9
(dp10
I0
(lp11
sssS'basic_parameters'
p12
(dp13
S'shop_units'
p14
(lp15
I1
aI10
asS'life'
p16
I800
sS'shop_transporter'
p17
(lp18
sS'capacity'
p19
I25
sS'name'
p20
VHauptquartier
p21
sS'shield_factor'
p22
F0.4
sS'attack_min'
p23
I0
sS'delay_shoot'
p24
I15
sS'id'
p25
I0
sS'price'
p26
I1000
sS'max_life'
p27
I800
sS'max_shield'
p28
I100
sS'delay_out'
p29
I10
sS'attack_max'
p30
I0
sS'enter'
p31
Vsoldier
p32
sS'shoot_dist'
p33
I6
sS'num_enemies'
p34
I4
sS'elite'
p35
I0
sS'delay_in'
p36
I20
sS'actions'
p37
(dp38
VArzneistudium +
p39
(dp40
S'delay'
p41
I0
sS'category'
p42
Vupgrade
p43
sS'price'
p44
I400
sS'actions'
p45
(lp46
(dp47
S'target'
p48
S'self'
p49
sS'level'
p50
S'id'
p51
sS'type'
p52
S'change'
p53
sS'random'
p54
I0
sS'num_units'
p55
I0
sS'changes'
p56
(dp57
Vshop_units
p58
(lp59
I6
assa(dp60
g52
Vnew
p61
sg48
Vown
p62
sS'parameters'
p63
(lp64
I6
asg50
Vgroups
p65
sasS'num_uses'
p66
I1
ssVKommandant +
p67
(dp68
S'delay'
p69
I0
sS'category'
p70
Vupgrade
p71
sS'price'
p72
I500
sS'actions'
p73
(lp74
(dp75
S'target'
p76
S'self'
p77
sS'level'
p78
S'id'
p79
sS'type'
p80
S'change'
p81
sS'random'
p82
I0
sS'num_units'
p83
I0
sS'changes'
p84
(dp85
Vshop_units
p86
(lp87
I8
assa(dp88
S'type'
p89
Vnew
p90
sS'target'
p91
Vown
p92
sS'parameters'
p93
(lp94
I8
asS'level'
p95
Vgroups
p96
sasS'num_uses'
p97
I1
ssVHelikopter-Plattform +
p98
(dp99
S'delay'
p100
I0
sS'category'
p101
Vupgrade
p102
sS'price'
p103
I400
sS'actions'
p104
(lp105
(dp106
S'target'
p107
S'self'
p108
sS'level'
p109
S'id'
p110
sS'type'
p111
S'change'
p112
sS'random'
p113
I0
sS'num_units'
p114
I0
sS'changes'
p115
(dp116
Vshop_transporter
p117
(lp118
I1
assa(dp119
g111
Vnew
p120
sg107
Vown
p121
sS'parameters'
p122
I1
sg109
Vtransporter
p123
sasS'num_uses'
p124
I1
sssS'shield'
p125
I100
sssI1
(dp126
S'elite_parameters'
p127
(dp128
S'ticks'
p129
(dp130
I500
(lp131
ssS'damage'
p132
(dp133
I0
(lp134
sssS'basic_parameters'
p135
(dp136
S'life'
p137
I600
sS'shop_transporter'
p138
(lp139
sS'capacity'
p140
I15
sS'name'
p141
VKaserne
p142
sS'shield_factor'
p143
F0.4
sS'attack_min'
p144
I0
sS'shield'
p145
I80
sS'delay_shoot'
p146
I15
sS'delay_in'
p147
I20
sS'price'
p148
I600
sS'max_life'
p149
I600
sg28
I80
sS'delay_out'
p150
I10
sS'enter'
p151
Vsoldier
p152
sS'id'
p153
I1
sS'shoot_dist'
p154
I6
sS'actions'
p155
(dp156
VSniper +
p157
(dp158
S'delay'
p159
I0
sS'category'
p160
Vupgrade
p161
sS'price'
p162
I200
sS'actions'
p163
(lp164
(dp165
S'target'
p166
S'self'
p167
sS'level'
p168
S'id'
p169
sS'type'
p170
S'change'
p171
sS'random'
p172
I0
sS'num_units'
p173
I0
sS'changes'
p174
(dp175
Vshop_units
p176
(lp177
I3
assa(dp178
S'type'
p179
Vnew
p180
sS'target'
p181
Vown
p182
sS'parameters'
p183
(lp184
I3
asS'level'
p185
Vgroups
p186
sasS'num_uses'
p187
I1
ssVVerteidigung
p188
(dp189
S'delay'
p190
I20
sS'category'
p191
Vupgrade
p192
sS'price'
p193
I100
sS'actions'
p194
(lp195
(dp196
S'target'
p197
S'self'
p198
sS'level'
p199
S'id'
p200
sS'type'
p201
S'change'
p202
sS'random'
p203
I0
sS'num_units'
p204
I0
sS'changes'
p205
(dp206
Vattack_min
p207
I20
sVattack_max
p208
I40
ssasS'num_uses'
p209
I1
ssVMG-Soldat
p210
(dp211
S'delay'
p212
I0
sS'category'
p213
Vupgrade
p214
sS'price'
p215
I250
sS'actions'
p216
(lp217
(dp218
g197
g198
sg199
g200
sg201
g202
sg203
I0
sg204
I0
sg205
(dp219
Vshop_units
p220
(lp221
I2
asVelite
p222
I1
sS'actions'
p223
(dp224
VCyborg
p225
(dp226
S'delay'
p227
I0
sS'category'
p228
Vupgrade
p229
sS'price'
p230
I200
sg223
(lp231
(dp232
S'target'
p233
S'self'
p234
sS'level'
p235
S'id'
p236
sS'type'
p237
S'change'
p238
sS'random'
p239
I0
sS'num_units'
p240
I0
sS'changes'
p241
(dp242
Vshop_units
p243
(lp244
I7
asVelite
p245
I1
ssasS'num_uses'
p246
I1
ssVMG-Soldat Ausbildung
p247
(dp248
S'delay'
p249
I0
sS'category'
p250
Vequipment
p251
sS'price'
p252
I0
sS'actions'
p253
(lp254
(dp255
S'target'
p256
Vown
p257
sS'level'
p258
Vid
p259
sS'type'
p260
Vchange
p261
sS'random'
p262
F0.0
sS'num_units'
p263
I1
sS'changes'
p264
(dp265
Vshop_units
p266
(lp267
I2
assasS'num_uses'
p268
I-1
ssssasS'num_uses'
p269
I1
ssVJavelin +
p270
(dp271
S'delay'
p272
I0
sS'category'
p273
Vupgrade
p274
sS'price'
p275
I400
sS'actions'
p276
(lp277
(dp278
S'target'
p279
S'self'
p280
sS'level'
p281
S'id'
p282
sS'type'
p283
S'change'
p284
sS'random'
p285
I0
sS'num_units'
p286
I0
sS'changes'
p287
(dp288
Vshop_units
p289
(lp290
I11
asVelite
p291
I1
ssa(dp292
g283
Vnew
p293
sg279
Vown
p294
sS'parameters'
p295
(lp296
I11
asg281
Vgroups
p297
sasS'num_uses'
p298
I1
sssS'elite'
p299
I0
sS'shop_units'
p300
(lp301
I0
asS'num_enemies'
p302
I4
sS'attack_max'
p303
I0
sssI2
(dp304
S'elite_parameters'
p305
(dp306
S'ticks'
p307
(dp308
I0
(lp309
ssS'damage'
p310
(dp311
I0
(lp312
sssS'basic_parameters'
p313
(dp314
S'life'
p315
I500
sS'shop_transporter'
p316
(lp317
sS'capacity'
p318
I10
sS'name'
p319
VLazarett
p320
sS'shop_units'
p321
(lp322
sS'attack_min'
p323
I0
sS'shield'
p324
I75
sS'delay_shoot'
p325
I15
sS'delay_in'
p326
I20
sS'price'
p327
I500
sS'max_life'
p328
I500
sg28
I75
sS'delay_out'
p329
I10
sS'enter'
p330
Vsoldier
p331
sS'id'
p332
I2
sS'shoot_dist'
p333
I6
sS'num_enemies'
p334
I4
sS'elite'
p335
I0
sS'shield_factor'
p336
F0.4
sS'actions'
p337
(dp338
V10x heilen
p339
(dp340
S'delay'
p341
I50
sS'category'
p342
Vstandard
p343
sg327
I400
sg337
(lp344
(dp345
S'target'
p346
Vown
p347
sS'level'
p348
Vid
p349
sS'type'
p350
Vchange
p351
sS'random'
p352
F0.0
sS'num_units'
p353
I0
sS'changes'
p354
(dp355
Vlife
p356
I50
ssasS'num_uses'
p357
I-1
ssV1x heilen
p358
(dp359
g341
I40
sg342
Vstandard
p360
sg327
I70
sg337
(lp361
(dp362
g346
Vown
p363
sg348
Vid
p364
sg350
Vchange
p365
sg352
F0.0
sg353
I1
sg354
(dp366
Vlife
p367
I50
ssasg357
I-1
ssVArztneistudium
p368
(dp369
S'delay'
p370
I0
sS'category'
p371
Vupgrade
p372
sS'price'
p373
I200
sS'actions'
p374
(lp375
(dp376
S'target'
p377
S'self'
p378
sS'level'
p379
S'id'
p380
sS'type'
p381
S'change'
p382
sS'random'
p383
I0
sS'num_units'
p384
I0
sS'changes'
p385
(dp386
Vshop_units
p387
(lp388
I6
assasS'num_uses'
p389
I1
ssV5x heilen
p390
(dp391
g341
I50
sg342
Vstandard
p392
sg327
I200
sg337
(lp393
(dp394
g346
Vown
p395
sg348
Vid
p396
sg350
Vchange
p397
sg352
F0.0
sg353
I5
sg354
(dp398
Vlife
p399
I50
ssasg357
I-1
sssS'attack_max'
p400
I0
sssI3
(dp401
g305
(dp402
g307
(dp403
I0
(lp404
ssg310
(dp405
I0
(lp406
sssg313
(dp407
g315
I500
sg316
(lp408
I0
asg318
I10
sg319
VWerkstatt
p409
sg321
(lp410
I4
asg323
I0
sg324
I80
sg325
I15
sg326
I20
sg327
I700
sg328
I500
sg28
I80
sg329
I10
sg330
Vvehicle
p411
sg332
I3
sg333
I6
sg334
I4
sg335
I0
sg336
F0.4
sg337
(dp412
VFahrzeug Transporter
p413
(dp414
S'delay'
p415
I0
sS'category'
p416
Vupgrade
p417
sS'price'
p418
I150
sS'actions'
p419
(lp420
(dp421
S'target'
p422
S'self'
p423
sS'level'
p424
S'id'
p425
sS'type'
p426
S'change'
p427
sS'random'
p428
I0
sS'num_units'
p429
I0
sS'changes'
p430
(dp431
Vshop_transporter
p432
(lp433
I2
asVelite
p434
I1
ssasS'num_uses'
p435
I1
ssVArtillerie
p436
(dp437
S'delay'
p438
I0
sS'category'
p439
Vupgrade
p440
sS'price'
p441
I300
sS'actions'
p442
(lp443
(dp444
S'target'
p445
S'self'
p446
sS'level'
p447
S'id'
p448
sS'type'
p449
S'change'
p450
sS'random'
p451
I0
sS'num_units'
p452
I0
sS'changes'
p453
(dp454
Vshop_units
p455
(lp456
I5
asVelite
p457
I1
ssasS'num_uses'
p458
I1
ssVVerteidigung
p459
(dp460
S'delay'
p461
I0
sS'category'
p462
Vupgrade
p463
sS'price'
p464
I50
sS'actions'
p465
(lp466
(dp467
g377
g378
sg379
g380
sg381
g382
sg383
I0
sg384
I0
sg385
(dp468
Vattack_min
p469
I30
sVattack_max
p470
I50
ssasS'num_uses'
p471
I1
sssg400
I0
sssI4
(dp472
g305
(dp473
g307
(dp474
I0
(lp475
ssg310
(dp476
I0
(lp477
sssg313
(dp478
g315
I600
sg316
(lp479
sg318
I15
sg319
VFlughafen
p480
sg321
(lp481
sg323
I0
sg324
I50
sg325
I15
sg326
I20
sg327
I400
sg328
I600
sg28
I50
sg329
I10
sg330
Vvehicle
p482
sg332
I4
sg333
I6
sg334
I4
sg335
I0
sg336
F0.4
sg337
(dp483
VFlak & Verteidigung
p484
(dp485
g415
I0
sg416
Vupgrade
p486
sg418
I100
sg419
(lp487
(dp488
g422
g423
sg424
g425
sg426
g427
sg428
I0
sg429
I0
sg430
(dp489
Vshop_units
p490
(lp491
I9
asVattack_min
p492
I30
sVelite
p493
I1
sVattack_max
p494
I50
ssasg435
I1
ssVHelikopter Landeplattform
p495
(dp496
g341
I0
sg342
Vupgrade
p497
sg327
I400
sg337
(lp498
(dp499
g346
S'self'
p500
sg348
g332
sg350
S'change'
p501
sg352
I0
sg353
I0
sg354
(dp502
Vshop_transporter
p503
(lp504
I1
asVelite
p505
I1
sS'actions'
p506
(dp507
VFallschirmspringer
p508
(dp509
S'delay'
p510
I0
sS'category'
p511
S'upgrade'
p512
sS'price'
p513
I0
sS'actions'
p514
(lp515
sS'num_uses'
p516
I-1
ssssasg357
I1
sssg400
I0
sssI5
(dp517
S'elite_parameters'
p518
(dp519
S'ticks'
p520
(dp521
I0
(lp522
ssS'damage'
p523
(dp524
I0
(lp525
sssS'basic_parameters'
p526
(dp527
S'delay_out'
p528
I0
sS'life'
p529
I100
sS'shop_transporter'
p530
(lp531
sS'capacity'
p532
I0
sS'name'
p533
Vnix
p534
sS'shield_factor'
p535
F0.6
sS'shop_units'
p536
(lp537
sS'attack_min'
p538
I60
sS'delay_shoot'
p539
I15
sS'id'
p540
I5
sS'price'
p541
I200
sS'max_life'
p542
I100
sg28
I0
sS'actions'
p543
(dp544
Vnix
p545
(dp546
S'delay'
p547
I0
sS'category'
p548
S'upgrade'
p549
sg541
I0
sg543
(lp550
sS'num_uses'
p551
I-1
sssS'attack_max'
p552
I80
sS'enter'
p553
Vsoldier
p554
sS'shoot_dist'
p555
I5
sS'elite'
p556
I0
sS'delay_in'
p557
I0
sS'num_enemies'
p558
I3
sS'shield'
p559
I0
sssI6
(dp560
g518
(dp561
g520
(dp562
I0
(lp563
ssg523
(dp564
I0
(lp565
sssg526
(dp566
g528
I10
sg529
I80
sg530
(lp567
sg532
I5
sg533
VMG-Nest
p568
sg535
F0.5
sg536
(lp569
sg538
I20
sg539
I15
sg540
I6
sg541
I100
sg542
I80
sg28
I20
sg543
(dp570
Vzweites Geschuetz
p571
(dp572
S'delay'
p573
I0
sS'category'
p574
Vupgrade
p575
sS'price'
p576
I50
sS'actions'
p577
(lp578
sS'num_uses'
p579
I1
ssVPanzerabwehr
p580
(dp581
S'delay'
p582
I20
sS'category'
p583
Vupgrade
p584
sS'price'
p585
I150
sS'actions'
p586
(lp587
(dp588
g181
S'self'
p589
sg185
S'id'
p590
sg179
S'change'
p591
sS'random'
p592
I0
sS'num_units'
p593
I0
sS'changes'
p594
(dp595
Vshoot_dist
p596
I1
sVattack_min
p597
I-10
sVelite
p598
I2
sVshield_factor
p599
F2.0
sVattack_max
p600
I-20
ssasS'num_uses'
p601
I1
ssVBetonguss
p602
(dp603
g582
I0
sg583
Vupgrade
p604
sg585
I50
sg586
(lp605
(dp606
g181
g589
sg185
g590
sg179
g591
sg592
I0
sg593
I0
sg594
(dp607
Velite
p608
I1
sVmax_shield
p609
I15
sVshield
p610
I30
ssasg601
I1
sssg552
I35
sg553
Vsoldier
p611
sg555
I6
sg556
I0
sg557
I15
sg558
I4
sg559
I20
ssssS'unit_parameters'
p612
(dp613
I0
(dp614
S'elite_parameters'
p615
(dp616
S'ticks'
p617
(dp618
I1000
(lp619
(dp620
S'target'
p621
S'self'
p622
sS'level'
p623
S'id'
p624
sS'type'
p625
S'change'
p626
sS'random'
p627
I0
sS'num_units'
p628
I0
sS'changes'
p629
(dp630
Vlife
p631
I10
sVelite
p632
I1
sVshield
p633
I15
ssasI500
(lp634
(dp635
g621
g622
sg623
g624
sg625
g626
sg627
I0
sg628
I0
sg629
(dp636
Vlife
p637
I10
sVelite
p638
I1
sVshield
p639
I15
ssassS'damage'
p640
(dp641
I1000
(lp642
(dp643
S'target'
p644
S'self'
p645
sS'level'
p646
S'id'
p647
sS'type'
p648
S'change'
p649
sS'random'
p650
I0
sS'num_units'
p651
I0
sS'changes'
p652
(dp653
Vshoot_dist
p654
I2
sVmax_life
p655
I8
sVelite
p656
I1
sVattack_max
p657
I11
ssasI500
(lp658
(dp659
g621
g622
sg623
g624
sg625
g626
sg627
I0
sg628
I0
sg629
(dp660
Velite
p661
I1
sVattack_max
p662
I8
ssasI750
(lp663
(dp664
g644
g645
sg646
g647
sg648
g649
sg650
I0
sg651
I0
sg652
(dp665
Vattack_min
p666
I8
sVelite
p667
I1
sVattack_max
p668
I10
ssasssS'basic_parameters'
p669
(dp670
S'delay_walk'
p671
I15
sS'life'
p672
I50
sS'walk_dist'
p673
I5
sS'name'
p674
VSoldat
p675
sS'num_enemies'
p676
I4
sS'attack_min'
p677
I10
sS'delay_shoot'
p678
I15
sS'id'
p679
I0
sS'unit_type'
p680
Vsoldier
p681
sS'max_life'
p682
I50
sg28
I0
sS'attack_max'
p683
I20
sS'shoot_dist'
p684
I6
sS'price'
p685
I70
sS'elite'
p686
I0
sS'shield_factor'
p687
F0.5
sS'actions'
p688
(dp689
V3 HG
p690
(dp691
S'delay'
p692
I0
sS'category'
p693
Vequipment
p694
sg148
I70
sg155
(lp695
(dp696
S'target'
p697
S'self'
p698
sS'level'
p699
S'id'
p700
sS'type'
p701
S'change'
p702
sS'random'
p703
I0
sS'num_units'
p704
I0
sS'changes'
p705
(dp706
S'actions'
p707
(dp708
VHG
p709
(dp710
S'delay'
p711
I15
sS'category'
p712
Vstandard
p713
sS'price'
p714
I0
sg707
(lp715
(dp716
g697
Venemy
p717
sg699
Vid
p718
sg701
Vchange
p719
sg703
F0.3
sg704
I3
sg705
(dp720
Vlife
p721
I-10
ssasS'num_uses'
p722
I3
ssssasS'num_uses'
p723
I-1
ssVSchutzweste
p724
(dp725
g341
I0
sg342
Vupgrade
p726
sg327
I30
sg337
(lp727
(dp728
g346
g500
sg348
g332
sg350
g501
sg352
I0
sg353
I0
sg354
(dp729
Vmax_shield
p730
I10
sVshield
p731
I10
sg337
(dp732
VSchild & wenig heilen
p733
(dp734
g341
I0
sg342
Vupgrade
p735
sg327
I50
sg337
(lp736
(dp737
g346
g500
sg348
g332
sg350
g501
sg352
I0
sg353
I0
sg354
(dp738
Vmax_shield
p739
I15
sVlife
p740
I15
sVmax_life
p741
I6
sVelite
p742
I1
sVshield
p743
I15
ssasg357
I1
ssssasg357
I1
ssVneue Munition
p744
(dp745
g692
I0
sg693
Vupgrade
p746
sg148
I20
sg155
(lp747
(dp748
S'target'
p749
S'self'
p750
sS'level'
p751
g153
sS'type'
p752
S'change'
p753
sS'random'
p754
I0
sS'num_units'
p755
I0
sS'changes'
p756
(dp757
Vattack_min
p758
I5
sVattack_max
p759
I5
sg155
(dp760
VSchnellfeuer
p761
(dp762
g692
I0
sg693
Vupgrade
p763
sg148
I30
sg155
(lp764
(dp765
g749
g750
sg751
g153
sg752
g753
sg754
I0
sg755
I0
sg756
(dp766
Vnum_enemies
p767
I2
sVattack_min
p768
I4
sVelite
p769
I1
sVattack_max
p770
I8
sS'actions'
p771
(dp772
VFlammenwerfer
p773
(dp774
g582
I0
sg583
Vupgrade
p775
sg585
I40
sg586
(lp776
(dp777
g181
g589
sg185
g590
sg179
g591
sg592
I0
sg593
I0
sg594
(dp778
Vnum_enemies
p779
I4
sVattack_min
p780
I10
sVelite
p781
I1
sVattack_max
p782
I10
ssasg601
I1
ssVSchildexperte
p783
(dp784
S'delay'
p785
I0
sS'category'
p786
Vupgrade
p787
sS'price'
p788
I0
sg771
(lp789
sS'num_uses'
p790
I0
ssssasg723
I1
ssVSchildexperte
p791
(dp792
g692
I0
sg693
Vupgrade
p793
sg148
I30
sg155
(lp794
(dp795
g749
g750
sg751
g153
sg752
g753
sg754
I0
sg755
I0
sg756
(dp796
Vshield_factor
p797
F0.1
sVattack_min
p798
I6
sVelite
p799
I1
sVattack_max
p800
I4
sg155
(dp801
VSchnellfeuer
p802
(dp803
S'delay'
p804
I0
sS'category'
p805
Vupgrade
p806
sS'price'
p807
I0
sS'actions'
p808
(lp809
sS'num_uses'
p810
I0
ssVPanzerbrecher
p811
(dp812
g582
I0
sg583
Vupgrade
p813
sg585
I40
sg586
(lp814
(dp815
g181
g589
sg185
g590
sg179
g591
sg592
I0
sg593
I0
sg594
(dp816
Vshield_factor
p817
F0.2
sVattack_min
p818
I4
sVelite
p819
I1
sVattack_max
p820
I10
ssasg601
I1
ssssasg723
I1
ssssasg723
I1
ssVneue Schuhe
p821
(dp822
g692
I0
sg693
Vupgrade
p823
sg148
I20
sg155
(lp824
(dp825
g749
Vself
p826
sg751
Vid
p827
sg752
Vchange
p828
sg754
F0.0
sg755
F1.0
sg756
(dp829
Vdelay_walk
p830
I-2
sVwalk_dist
p831
I1
sVelite
p832
I1
sg155
(dp833
ssasg723
I1
sssS'shield'
p834
I0
sssI1
(dp835
g615
(dp836
g617
(dp837
I1000
(lp838
(dp839
g749
g750
sg751
g153
sg752
g753
sg754
I0
sg755
I0
sg756
(dp840
Velite
p841
I1
sVwalk_dist
p842
I1
sVmax_shield
p843
I10
sVshield
p844
I10
ssasI400
(lp845
(dp846
S'target'
p847
S'self'
p848
sS'level'
p849
S'id'
p850
sS'type'
p851
S'change'
p852
sS'random'
p853
I0
sS'num_units'
p854
I0
sS'changes'
p855
(dp856
Vdelay_walk
p857
I-2
sVlife
p858
I20
sVwalk_dist
p859
I1
sVelite
p860
I1
ssasI700
(lp861
(dp862
g847
g848
sg849
g850
sg851
g852
sg853
I0
sg854
I0
sg855
(dp863
Vmax_shield
p864
I8
sVlife
p865
I15
sVmax_life
p866
I10
sVelite
p867
I1
sVshield
p868
I13
ssassg640
(dp869
I0
(lp870
sssg669
(dp871
g671
I15
sg672
I40
sg673
I5
sg674
VIngenieur
p872
sg676
I1
sg677
I3
sg678
I15
sg679
I1
sg680
Vsoldier
p873
sg682
I40
sg28
I0
sg683
I5
sg684
I2
sg685
I100
sg686
I0
sg687
F0.4
sg688
(dp874
VBruecke bauen
p875
(dp876
S'delay'
p877
I40
sS'category'
p878
Vshop
p879
sS'price'
p880
I100
sS'actions'
p881
(lp882
(dp883
S'target'
p884
S'self'
p885
sS'level'
p886
S'id'
p887
sS'type'
p888
S'change'
p889
sS'random'
p890
I0
sS'num_units'
p891
I0
sS'changes'
p892
(dp893
Vlife
p894
I0
ssasS'num_uses'
p895
I-1
ssVMG-Nest
p896
(dp897
S'delay'
p898
I40
sS'category'
p899
Vshop
p900
sS'price'
p901
I70
sS'actions'
p902
(lp903
(dp904
g80
Vnew
p905
sg76
Vown
p906
sS'parameters'
p907
I6
sg78
Vbuildings
p908
sasS'num_uses'
p909
I-1
ssVWerkstatt
p910
(dp911
g370
I60
sg371
Vshop
p912
sg373
I700
sg374
(lp913
(dp914
g381
Vnew
p915
sg377
Vown
p916
sS'parameters'
p917
I3
sg379
Vbuildings
p918
sasg389
I-1
ssVFlugplatz
p919
(dp920
g461
I50
sg462
Vshop
p921
sg464
I400
sg465
(lp922
(dp923
S'type'
p924
Vnew
p925
sS'target'
p926
Vown
p927
sS'parameters'
p928
I4
sS'level'
p929
Vbuildings
p930
sasg471
I-1
ssVLazarett
p931
(dp932
g461
I50
sg462
Vshop
p933
sg464
I500
sg465
(lp934
(dp935
g924
Vnew
p936
sg926
Vown
p937
sg928
I2
sg929
Vbuildings
p938
sasg471
I-1
ssVKaserne
p939
(dp940
g692
I60
sg693
Vshop
p941
sg148
I600
sg155
(lp942
(dp943
g752
Vnew
p944
sg749
Vown
p945
sS'parameters'
p946
I1
sg751
Vbuildings
p947
sasg723
I-1
ssVKampfingenieur
p948
(dp949
g212
I0
sg213
Vupgrade
p950
sg215
I70
sg216
(lp951
(dp952
g197
g198
sg199
g200
sg201
g202
sg203
I0
sg204
I0
sg205
(dp953
Vshield
p954
I8
sVattack_min
p955
I10
sg216
(dp956
V3 Granaten
p957
(dp958
g212
I0
sg213
Vequipment
p959
sg215
I70
sg216
(lp960
(dp961
g197
Vself
p962
sg199
Vid
p963
sg201
Vchange
p964
sg203
F0.4
sg204
I3
sg205
(dp965
g216
(dp966
VGranate
p967
(dp968
g212
I10
sg213
Vstandard
p969
sg215
I0
sg216
(lp970
(dp971
g197
Venemy
p972
sg199
Vid
p973
sg201
Vchange
p974
sg203
F0.4
sg204
I3
sg205
(dp975
Vlife
p976
I-15
ssasg269
I3
ssssasg269
I-1
sssVmax_shield
p977
I8
sVattack_max
p978
I15
sVelite
p979
I1
ssasg269
I1
sssg834
I0
sssI2
(dp980
g615
(dp981
g617
(dp982
I400
(lp983
(dp984
g847
g848
sg849
g850
sg851
g852
sg853
I0
sg854
I0
sg855
(dp985
Vdelay_walk
p986
I-2
sVlife
p987
I15
sVelite
p988
I1
sVshield
p989
I8
ssasI800
(lp990
(dp991
g847
g848
sg849
g850
sg851
g852
sg853
I0
sg854
I0
sg855
(dp992
Vlife
p993
I15
sVmax_life
p994
I10
sVelite
p995
I1
sVshield
p996
I10
sVdelay_shoot
p997
I-2
ssassg640
(dp998
I500
(lp999
(dp1000
S'target'
p1001
S'self'
p1002
sS'level'
p1003
S'id'
p1004
sS'type'
p1005
S'change'
p1006
sS'random'
p1007
I0
sS'num_units'
p1008
I0
sS'changes'
p1009
(dp1010
Vshield_factor
p1011
F0.1
sVattack_min
p1012
I10
sVelite
p1013
I1
sS'actions'
p1014
(dp1015
VSchusstraining
p1016
(dp1017
S'delay'
p1018
I0
sS'category'
p1019
Vupgrade
p1020
sS'price'
p1021
I40
sg1014
(lp1022
(dp1023
g279
g280
sg281
g282
sg283
g284
sg285
I0
sg286
I0
sg287
(dp1024
Vshoot_dist
p1025
I1
sVelite
p1026
I1
sVdelay_shoot
p1027
I-4
ssasS'num_uses'
p1028
I1
ssssasssg669
(dp1029
g671
I18
sg672
I80
sg673
I5
sg674
VMG-Soldat
p1030
sg676
I10
sg677
I20
sg678
I20
sg679
I2
sg680
Vsoldier
p1031
sg682
I80
sg28
I20
sg683
I60
sg684
I7
sg685
I175
sg686
I0
sg687
F0.55
sg688
(dp1032
Vbessere Munition
p1033
(dp1034
g212
I0
sg213
Vupgrade
p1035
sg215
I40
sg216
(lp1036
(dp1037
g197
g198
sg199
g200
sg201
g202
sg203
I0
sg204
I0
sg205
(dp1038
Vattack_min
p1039
I10
sVattack_max
p1040
I5
sg216
(dp1041
VPanzerbrecher
p1042
(dp1043
g212
I0
sg213
Vupgrade
p1044
sg215
I60
sg216
(lp1045
(dp1046
g197
g198
sg199
g200
sg201
g202
sg203
I0
sg204
I0
sg205
(dp1047
Vshield_factor
p1048
F0.1
sVelite
p1049
I1
sVattack_max
p1050
I15
sg216
(dp1051
VBazooka
p1052
(dp1053
g212
I0
sg213
Vupgrade
p1054
sg215
I80
sg216
(lp1055
(dp1056
g197
g198
sg199
g200
sg201
g202
sg203
I0
sg204
I0
sg205
(dp1057
Vshield_factor
p1058
F0.15
sVattack_min
p1059
I15
sVelite
p1060
I1
sVnum_enemies
p1061
I2
sVattack_max
p1062
I10
ssasg269
I1
ssssasg269
I1
ssssasg269
I1
ssVKampfausbildung
p1063
(dp1064
S'delay'
p1065
I0
sS'category'
p1066
Vupgrade
p1067
sS'price'
p1068
I40
sS'actions'
p1069
(lp1070
(dp1071
S'target'
p1072
S'self'
p1073
sS'level'
p1074
S'id'
p1075
sS'type'
p1076
S'change'
p1077
sS'random'
p1078
I0
sS'num_units'
p1079
I0
sS'changes'
p1080
(dp1081
Vshoot_dist
p1082
I1
sVelite
p1083
I1
sVdelay_shoot
p1084
I-5
ssasS'num_uses'
p1085
I1
ssVSpeed I
p1086
(dp1087
g461
I0
sg462
Vupgrade
p1088
sg464
I40
sg465
(lp1089
(dp1090
g197
g198
sg199
g200
sg201
g202
sg203
I0
sg204
I0
sg205
(dp1091
Vdelay_walk
p1092
I-5
sVelite
p1093
I1
sg216
(dp1094
VSpeed II
p1095
(dp1096
g212
I0
sg213
Vupgrade
p1097
sg215
I50
sg216
(lp1098
(dp1099
g197
g198
sg199
g200
sg201
g202
sg203
I0
sg204
I0
sg205
(dp1100
Vdelay_walk
p1101
I-5
sVwalk_dist
p1102
I1
sVelite
p1103
I1
sVdelay_shoot
p1104
I-3
ssasg269
I1
ssssasg471
I1
sssg834
I20
sssI3
(dp1105
g615
(dp1106
g617
(dp1107
I400
(lp1108
(dp1109
g847
g848
sg849
g850
sg851
g852
sg853
I0
sg854
I0
sg855
(dp1110
Vmax_shield
p1111
I8
sVattack_min
p1112
I5
sVelite
p1113
I1
sVshield
p1114
I8
ssasI800
(lp1115
(dp1116
g847
g848
sg849
g850
sg851
g852
sg853
I0
sg854
I0
sg855
(dp1117
Vshield_factor
p1118
F0.1
sVattack_min
p1119
I8
sVelite
p1120
I1
sVattack_max
p1121
I14
ssassg640
(dp1122
I0
(lp1123
sI250
(lp1124
(dp1125
g377
g378
sg379
g380
sg381
g382
sg383
I0
sg384
I0
sg385
(dp1126
Vattack_min
p1127
I8
sVelite
p1128
I1
sVattack_max
p1129
I8
sg374
(dp1130
Vschneller laden
p1131
(dp1132
g370
I0
sg371
Vupgrade
p1133
sg373
I40
sg374
(lp1134
(dp1135
g377
g378
sg379
g380
sg381
g382
sg383
I0
sg384
I0
sg385
(dp1136
Vdelay_shoot
p1137
I-4
ssasg389
I1
ssssasssg669
(dp1138
g671
I15
sg672
I50
sg673
I5
sg674
VSniper
p1139
sg676
I1
sg677
I40
sg678
I20
sg679
I3
sg680
Vsoldier
p1140
sg682
I50
sg28
I0
sg683
I60
sg684
I10
sg685
I200
sg686
I0
sg687
F0.6
sg688
(dp1141
VSchutzweste
p1142
(dp1143
g159
I0
sg160
Vupgrade
p1144
sg162
I30
sg163
(lp1145
(dp1146
g166
g167
sg168
g169
sg170
g171
sg172
I0
sg173
I0
sg174
(dp1147
Vmax_shield
p1148
I10
sVshield
p1149
I10
ssasg187
I1
ssVSpeed I (ziehen und laden)
p1150
(dp1151
g159
I0
sg160
Vupgrade
p1152
sg162
I30
sg163
(lp1153
(dp1154
g166
g167
sg168
g169
sg170
g171
sg172
I0
sg173
I0
sg174
(dp1155
Vwalk_dist
p1156
I1
sVelite
p1157
I1
sVdelay_shoot
p1158
I-2
ssasg187
I1
ssVhoehere Schussweite
p1159
(dp1160
S'delay'
p1161
I0
sS'category'
p1162
Vupgrade
p1163
sS'price'
p1164
I40
sS'actions'
p1165
(lp1166
(dp1167
S'target'
p1168
S'self'
p1169
sS'level'
p1170
S'id'
p1171
sS'type'
p1172
S'change'
p1173
sS'random'
p1174
I0
sS'num_units'
p1175
I0
sS'changes'
p1176
(dp1177
Vshoot_dist
p1178
I1
sVelite
p1179
I1
sg1165
(dp1180
VDistanzexperte
p1181
(dp1182
g1161
I0
sg1162
Vupgrade
p1183
sg1164
I50
sg1165
(lp1184
(dp1185
g1168
g1169
sg1170
g1171
sg1172
g1173
sg1174
I0
sg1175
I0
sg1176
(dp1186
Vshoot_dist
p1187
I1
sVattack_min
p1188
I8
sVelite
p1189
I1
sg1165
(dp1190
ssasS'num_uses'
p1191
I1
ssssasg1191
I1
ssVPraezision
p1192
(dp1193
S'delay'
p1194
I0
sS'category'
p1195
Vupgrade
p1196
sS'price'
p1197
I30
sg506
(lp1198
(dp1199
S'target'
p1200
S'self'
p1201
sS'level'
p1202
S'id'
p1203
sS'type'
p1204
S'change'
p1205
sS'random'
p1206
I0
sS'num_units'
p1207
I0
sS'changes'
p1208
(dp1209
Vattack_min
p1210
I15
sVelite
p1211
I1
sVattack_max
p1212
I8
sg374
(dp1213
Vbessere Munition
p1214
(dp1215
g370
I0
sg371
Vupgrade
p1216
sg373
I40
sg374
(lp1217
(dp1218
g377
g378
sg379
g380
sg381
g382
sg383
I0
sg384
I0
sg385
(dp1219
Vshield_factor
p1220
F0.05
sVattack_min
p1221
I15
sVelite
p1222
I1
sVattack_max
p1223
I10
sg374
(dp1224
VSchildzerstoerer
p1225
(dp1226
g370
I0
sg371
Vupgrade
p1227
sg373
I30
sg374
(lp1228
(dp1229
g377
g378
sg379
g380
sg381
g382
sg383
I0
sg384
I0
sg385
(dp1230
Vshield_factor
p1231
F0.2
sVelite
p1232
I1
sVattack_max
p1233
I8
sg276
(dp1234
VDoppelschuss
p1235
(dp1236
g272
I0
sg273
Vupgrade
p1237
sg275
I0
sg276
(lp1238
sg298
I0
ssssasg389
I1
ssssasg389
I1
ssVDoppelschuss
p1239
(dp1240
g1161
I0
sg1162
Vupgrade
p1241
sg1164
I60
sg1165
(lp1242
(dp1243
g1168
g1169
sg1170
g1171
sg1172
g1173
sg1174
I0
sg1175
I0
sg1176
(dp1244
Vnum_enemies
p1245
I1
sVattack_min
p1246
I8
sVelite
p1247
I1
sVattack_max
p1248
I15
sg276
(dp1249
VSchildzerstoerer
p1250
(dp1251
g272
I0
sg273
Vupgrade
p1252
sg275
I0
sg276
(lp1253
sg298
I0
ssssasg1191
I1
ssssasS'num_uses'
p1254
I1
sssg834
I0
sssI4
(dp1255
g615
(dp1256
g617
(dp1257
I0
(lp1258
sI600
(lp1259
(dp1260
g847
g848
sg849
g850
sg851
g852
sg853
I0
sg854
I0
sg855
(dp1261
Vdelay_walk
p1262
I-3
sVelite
p1263
I1
sVshield
p1264
I30
sVmax_shield
p1265
I15
ssasI300
(lp1266
(dp1267
g847
g848
sg849
g850
sg851
g852
sg853
I0
sg854
I0
sg855
(dp1268
Vdelay_walk
p1269
I-2
sVelite
p1270
I1
sVshield
p1271
I15
sVdelay_shoot
p1272
I-3
ssassg640
(dp1273
I500
(lp1274
(dp1275
g166
g167
sg168
g169
sg170
g171
sg172
I0
sg173
I0
sg174
(dp1276
Vshield_factor
p1277
F0.07
sVattack_min
p1278
I10
sVelite
p1279
I1
sVattack_max
p1280
I5
ssasssg669
(dp1281
g671
I18
sg672
I100
sg673
I5
sg674
VPanzer
p1282
sg676
I8
sg677
I50
sg678
I18
sg679
I4
sg680
Vvehicle
p1283
sg682
I100
sg28
I100
sg683
I90
sg684
I7
sg685
I400
sg686
I0
sg687
F0.6
sg688
(dp1284
VShottpanzerung
p1285
(dp1286
g582
I0
sg583
Vupgrade
p1287
sg585
I70
sg586
(lp1288
(dp1289
g181
g589
sg185
g590
sg179
g591
sg592
I0
sg593
I0
sg594
(dp1290
Vdelay_walk
p1291
I3
sVelite
p1292
I1
sVshield
p1293
I50
sg586
(dp1294
VVerbundpanzerung
p1295
(dp1296
g582
I0
sg583
Vupgrade
p1297
sg585
I40
sg586
(lp1298
(dp1299
g181
g589
sg185
g590
sg179
g591
sg592
I0
sg593
I0
sg594
(dp1300
Vdelay_walk
p1301
I-3
sVlife
p1302
I10
sVelite
p1303
I1
sVshield
p1304
I25
sVmax_shield
p1305
I15
ssasg601
I1
sssVmax_shield
p1306
I30
ssasg601
I1
ssVHartkernmunition
p1307
(dp1308
S'delay'
p1309
I0
sS'category'
p1310
Vupgrade
p1311
sS'price'
p1312
I30
sS'actions'
p1313
(lp1314
(dp1315
S'target'
p1316
Vself
p1317
sS'level'
p1318
Vid
p1319
sS'type'
p1320
Vchange
p1321
sS'random'
p1322
F0.0
sS'num_units'
p1323
I0
sS'changes'
p1324
(dp1325
Vshield_factor
p1326
F0.15
sVelite
p1327
I1
sVattack_max
p1328
I8
sS'actions'
p1329
(dp1330
VUrangeschoss
p1331
(dp1332
S'delay'
p1333
I0
sS'category'
p1334
Vupgrade
p1335
sS'price'
p1336
I80
sg1329
(lp1337
(dp1338
S'target'
p1339
Vself
p1340
sS'level'
p1341
Vid
p1342
sS'type'
p1343
Vchange
p1344
sS'random'
p1345
F0.0
sS'num_units'
p1346
I0
sS'changes'
p1347
(dp1348
Vshield_factor
p1349
F0.2
sVattack_min
p1350
I15
sVelite
p1351
I1
sVattack_max
p1352
I15
ssasS'num_uses'
p1353
I1
ssssasS'num_uses'
p1354
I1
ssVSpeed I
p1355
(dp1356
g461
I0
sg462
Vupgrade
p1357
sg464
I20
sg465
(lp1358
(dp1359
g1316
S'self'
p1360
sg1318
S'id'
p1361
sg1320
S'change'
p1362
sg1322
I0
sg1323
I0
sg1324
(dp1363
Vdelay_walk
p1364
I-2
sg1313
(dp1365
VSpeed II
p1366
(dp1367
g1309
I0
sg1310
Vupgrade
p1368
sg1312
I40
sg1313
(lp1369
(dp1370
g1316
g1360
sg1318
g1361
sg1320
g1362
sg1322
I0
sg1323
I0
sg1324
(dp1371
Vdelay_walk
p1372
I-2
sVwalk_dist
p1373
I1
sVelite
p1374
I1
ssasg1354
I1
ssssasg471
I1
sssg834
I100
sssI5
(dp1375
g615
(dp1376
g617
(dp1377
I0
(lp1378
sI500
(lp1379
(dp1380
S'target'
p1381
S'self'
p1382
sS'level'
p1383
S'id'
p1384
sS'type'
p1385
S'change'
p1386
sS'random'
p1387
I0
sS'num_units'
p1388
I0
sS'changes'
p1389
(dp1390
Vmax_life
p1391
I10
sVelite
p1392
I1
ssassg640
(dp1393
I0
(lp1394
sssg669
(dp1395
g671
I15
sg672
I100
sg673
I5
sg674
VArtillerie
p1396
sg676
I10
sg677
I0
sg678
I35
sg679
I5
sg680
Vvehicle
p1397
sg682
I100
sg28
I70
sg683
I0
sg684
I10
sg685
I600
sg686
I0
sg687
F0.5
sg688
(dp1398
Vgroessere Schussweite I
p1399
(dp1400
g1309
I0
sg1310
Vupgrade
p1401
sg1312
I40
sg1313
(lp1402
(dp1403
g1316
g1360
sg1318
g1361
sg1320
g1362
sg1322
I0
sg1323
I0
sg1324
(dp1404
Vshoot_dist
p1405
I1
sVelite
p1406
I1
sg442
(dp1407
Vgroessere Schussweite II
p1408
(dp1409
g438
I0
sg439
Vupgrade
p1410
sg441
I50
sg442
(lp1411
(dp1412
g445
g446
sg447
g448
sg449
g450
sg451
I0
sg452
I0
sg453
(dp1413
Vshoot_dist
p1414
I1
sVelite
p1415
I1
ssasg458
I1
ssVStreuung erhoehen
p1416
(dp1417
g438
I0
sg439
Vupgrade
p1418
sg441
I40
sg442
(lp1419
(dp1420
g445
g446
sg447
g448
sg449
g450
sg451
I0
sg452
I0
sg453
(dp1421
Vnum_enemies
p1422
I5
sVattack_min
p1423
I15
sVelite
p1424
I1
ssasg458
I1
ssssasg1354
I1
ssVAufbauen
p1425
(dp1426
S'delay'
p1427
I25
sS'category'
p1428
Vstandard
p1429
sS'price'
p1430
I0
sS'actions'
p1431
(lp1432
(dp1433
S'target'
p1434
S'self'
p1435
sS'level'
p1436
S'id'
p1437
sS'type'
p1438
S'change'
p1439
sS'random'
p1440
I0
sS'num_units'
p1441
I0
sS'changes'
p1442
(dp1443
Vwalk_dist
p1444
I-5
sVattack_min
p1445
I100
sVattack_max
p1446
I200
sg1431
(dp1447
VTransport
p1448
(dp1449
S'delay'
p1450
I30
sS'category'
p1451
Vequipment
p1452
sS'price'
p1453
I0
sS'actions'
p1454
(lp1455
(dp1456
S'target'
p1457
S'self'
p1458
sS'level'
p1459
S'id'
p1460
sS'type'
p1461
S'change'
p1462
sS'random'
p1463
I0
sS'num_units'
p1464
I0
sS'changes'
p1465
(dp1466
Vwalk_dist
p1467
I5
sVattack_min
p1468
I-100
sVattack_max
p1469
I-200
sg1454
(dp1470
VAufbau
p1471
(dp1472
g1450
I25
sg1451
Vstandard
p1473
sg1453
I0
sg1454
(lp1474
(dp1475
g1457
g1458
sg1459
g1460
sg1461
g1462
sg1463
I0
sg1464
I0
sg1465
(dp1476
Vattack_min
p1477
I100
sVattack_max
p1478
I200
sVwalk_dist
p1479
I-5
ssasS'num_uses'
p1480
I1
ssssasg1480
I-1
ssssasS'num_uses'
p1481
I1
ssVSpeed I
p1482
(dp1483
g461
I0
sg462
Vupgrade
p1484
sg464
I80
sg465
(lp1485
(dp1486
g445
g446
sg447
g448
sg449
g450
sg451
I0
sg452
I0
sg453
(dp1487
Vdelay_walk
p1488
I-4
sVelite
p1489
I1
sVdelay_shoot
p1490
I-8
sg442
(dp1491
VSpeed II
p1492
(dp1493
g438
I0
sg439
Vupgrade
p1494
sg441
I50
sg442
(lp1495
(dp1496
g445
g446
sg447
g448
sg449
g450
sg451
I0
sg452
I0
sg453
(dp1497
Vdelay_walk
p1498
I-2
sVelite
p1499
I1
sVdelay_shoot
p1500
I-8
ssasg458
I1
ssssasg471
I1
sssg834
I70
sssI6
(dp1501
S'elite_parameters'
p1502
(dp1503
S'ticks'
p1504
(dp1505
I800
(lp1506
(dp1507
g847
g848
sg849
g850
sg851
g852
sg853
I0
sg854
I0
sg855
(dp1508
Vmax_shield
p1509
I8
sVlife
p1510
I100
sVmax_life
p1511
I10
sVelite
p1512
I1
sVshield
p1513
I15
ssasI400
(lp1514
(dp1515
g847
g848
sg849
g850
sg851
g852
sg853
I0
sg854
I0
sg855
(dp1516
Vlife
p1517
I100
sVmax_life
p1518
I8
sVelite
p1519
I1
ssassS'damage'
p1520
(dp1521
I0
(lp1522
sssS'basic_parameters'
p1523
(dp1524
S'delay_walk'
p1525
I15
sS'life'
p1526
I50
sS'walk_dist'
p1527
I5
sS'name'
p1528
VArzt
p1529
sS'num_enemies'
p1530
I3
sS'attack_min'
p1531
I0
sS'delay_shoot'
p1532
I15
sg1004
I6
sS'unit_type'
p1533
Vsoldier
p1534
sS'max_life'
p1535
I50
sg28
I10
sS'attack_max'
p1536
I0
sS'shoot_dist'
p1537
I5
sg1021
I120
sS'elite'
p1538
I0
sS'shield_factor'
p1539
F0.4
sg1014
(dp1540
VMedipack
p1541
(dp1542
g370
I0
sg371
Vshop
p1543
sg373
I60
sg374
(lp1544
(dp1545
g377
g378
sg379
g380
sg381
g382
sg383
I0
sg384
I0
sg385
(dp1546
g374
(dp1547
VSchmerzmittel
p1548
(dp1549
g370
I0
sg371
Vstandard
p1550
sg373
I0
sg374
(lp1551
(dp1552
g377
Vself
p1553
sg379
Vid
p1554
sg381
Vchange
p1555
sg383
F0.3
sg384
I0
sg385
(dp1556
Vlife
p1557
I30
ssasg389
I2
ssssasg389
I-1
ssVSchild-Mech
p1558
(dp1559
g370
I0
sg371
Vupgrade
p1560
sg373
I80
sg374
(lp1561
(dp1562
S'target'
p1563
S'self'
p1564
sS'level'
p1565
S'id'
p1566
sS'type'
p1567
S'change'
p1568
sS'random'
p1569
I0
sS'num_units'
p1570
I0
sS'changes'
p1571
(dp1572
S'actions'
p1573
(dp1574
VSchild reparieren
p1575
(dp1576
S'delay'
p1577
I20
sS'category'
p1578
Vstandard
p1579
sS'price'
p1580
I30
sg1573
(lp1581
(dp1582
g1563
Vown
p1583
sg1565
Vid
p1584
sg1567
Vchange
p1585
sg1569
F0.3
sg1570
I1
sg1571
(dp1586
Vshield
p1587
I10
ssasS'num_uses'
p1588
I-1
ssssasg389
I1
ssVFeldapotheke (andere)
p1589
(dp1590
g370
I0
sg371
Vshop
p1591
sg373
I60
sg374
(lp1592
(dp1593
g377
Vself
p1594
sg379
Vid
p1595
sg381
Vchange
p1596
sg383
F0.0
sg384
I0
sg385
(dp1597
g374
(dp1598
VPflaster
p1599
(dp1600
g370
I0
sg371
Vstandard
p1601
sg373
I0
sg374
(lp1602
(dp1603
g377
Vown
p1604
sg379
Vid
p1605
sg381
Vchange
p1606
sg383
F0.3
sg384
I1
sg385
(dp1607
Vlife
p1608
I10
ssasg389
I3
ssssasg389
I-1
ssVSpeed I
p1609
(dp1610
g370
I0
sg371
Vupgrade
p1611
sg373
I30
sg374
(lp1612
(dp1613
g377
g378
sg379
g380
sg381
g382
sg383
I0
sg384
I0
sg385
(dp1614
Vwalk_dist
p1615
I1
sVelite
p1616
I1
sg374
(dp1617
VSpeed II
p1618
(dp1619
g370
I0
sg371
Vupgrade
p1620
sg373
I50
sg374
(lp1621
(dp1622
g377
g378
sg379
g380
sg381
g382
sg383
I0
sg384
I0
sg385
(dp1623
Vdelay_walk
p1624
I-4
sVwalk_dist
p1625
I2
sVelite
p1626
I1
ssasg389
I1
ssssasg389
I1
sssS'shield'
p1627
I10
sssI7
(dp1628
S'elite_parameters'
p1629
(dp1630
S'ticks'
p1631
(dp1632
I0
(lp1633
ssS'damage'
p1634
(dp1635
I0
(lp1636
sssS'basic_parameters'
p1637
(dp1638
S'delay_walk'
p1639
I15
sS'life'
p1640
I60
sS'walk_dist'
p1641
I5
sS'name'
p1642
VCyborg
p1643
sS'num_enemies'
p1644
I5
sS'attack_min'
p1645
I20
sS'delay_shoot'
p1646
I15
sg169
I7
sS'unit_type'
p1647
Vsoldier
p1648
sS'max_life'
p1649
I60
sg28
I40
sS'attack_max'
p1650
I35
sS'shoot_dist'
p1651
I7
sg162
I120
sS'elite'
p1652
I0
sS'shield_factor'
p1653
F0.6
sg163
(dp1654
VSpeed I
p1655
(dp1656
S'delay'
p1657
I0
sS'category'
p1658
S'upgrade'
p1659
sS'price'
p1660
I0
sS'actions'
p1661
(lp1662
sS'num_uses'
p1663
I-1
sssS'shield'
p1664
I40
sssI8
(dp1665
S'elite_parameters'
p1666
(dp1667
S'ticks'
p1668
(dp1669
I0
(lp1670
sI250
(lp1671
(dp1672
S'target'
p1673
S'self'
p1674
sS'level'
p1675
S'id'
p1676
sS'type'
p1677
S'change'
p1678
sS'random'
p1679
I0
sS'num_units'
p1680
I0
sS'changes'
p1681
(dp1682
Velite
p1683
I1
sVlife
p1684
I20
sVmax_shield
p1685
I5
sVshield
p1686
I10
ssasI500
(lp1687
(dp1688
g1673
g1674
sg1675
g1676
sg1677
g1678
sg1679
I0
sg1680
I0
sg1681
(dp1689
Velite
p1690
I1
sVlife
p1691
I100
sVmax_life
p1692
I10
sVmax_shield
p1693
I5
sVshield
p1694
I20
ssassS'damage'
p1695
(dp1696
I0
(lp1697
sI500
(lp1698
sssS'basic_parameters'
p1699
(dp1700
S'delay_walk'
p1701
I15
sS'life'
p1702
I70
sS'walk_dist'
p1703
I5
sS'name'
p1704
VKommandant
p1705
sS'num_enemies'
p1706
I4
sS'attack_min'
p1707
I20
sS'delay_shoot'
p1708
I15
sg79
I8
sS'unit_type'
p1709
Vsoldier
p1710
sS'max_life'
p1711
I70
sg28
I10
sS'attack_max'
p1712
I30
sS'shoot_dist'
p1713
I6
sg901
I250
sS'elite'
p1714
I4
sS'shield_factor'
p1715
F0.6
sg902
(dp1716
VLuftunterstuetzung
p1717
(dp1718
g898
I40
sg899
Vstandard
p1719
sg901
I150
sg902
(lp1720
(dp1721
g76
Venemy
p1722
sg78
Vid
p1723
sg80
Vchange
p1724
sg82
F0.6
sg83
I7
sg84
(dp1725
Vlife
p1726
I-17
sVshield
p1727
I-12
ssasg909
I-1
ssVDrill Sergent
p1728
(dp1729
S'delay'
p1730
I0
sS'category'
p1731
Vstandard
p1732
sS'price'
p1733
I100
sS'actions'
p1734
(lp1735
(dp1736
S'target'
p1737
Vown
p1738
sS'level'
p1739
Vid
p1740
sS'type'
p1741
Vchange
p1742
sS'random'
p1743
F0.0
sS'num_units'
p1744
I0
sS'changes'
p1745
(dp1746
Vattack_min
p1747
I10
sVattack_max
p1748
I8
sVdelay_shoot
p1749
I-3
ssasS'num_uses'
p1750
I-1
ssVFallschirmspringer
p1751
(dp1752
g785
I20
sg786
Vstandard
p1753
sg788
I450
sg771
(lp1754
(dp1755
g52
Vnew
p1756
sg48
Vown
p1757
sg63
(lp1758
I0
aI0
aI2
asg50
Vgroups
p1759
sasg790
I-1
ssVSpionageausbildung
p1760
(dp1761
S'delay'
p1762
I0
sS'category'
p1763
Vupgrade
p1764
sS'price'
p1765
I170
sS'actions'
p1766
(lp1767
(dp1768
S'target'
p1769
S'self'
p1770
sS'level'
p1771
S'id'
p1772
sS'type'
p1773
S'change'
p1774
sS'random'
p1775
I0
sS'num_units'
p1776
I0
sS'changes'
p1777
(dp1778
Velite
p1779
I1
sg1766
(dp1780
VWirtschafts-Spionage
p1781
(dp1782
g1762
I40
sg1763
Vupgrade
p1783
sg1765
I80
sg1766
(lp1784
(dp1785
g1769
g1770
sg1771
g1772
sg1773
g1774
sg1775
I0
sg1776
I0
sg1777
(dp1786
g1766
(dp1787
VDieb
p1788
(dp1789
g1762
I60
sg1763
Vequipment
p1790
sg1765
I200
sg1766
(lp1791
(dp1792
g1773
Vchange
p1793
sg1775
F0.5
sg1777
(dp1794
Vaccount
p1795
I-150
ssg1769
Venemy
p1796
sg1771
Vplayer
p1797
sa(dp1798
g1773
Vchange
p1799
sg1775
F0.7
sg1777
(dp1800
Vaccount
p1801
I80
ssg1769
Vown
p1802
sg1771
Vplayer
p1803
sasS'num_uses'
p1804
I-1
ssssasg1804
I-1
ssVID-Spionage
p1805
(dp1806
g1762
I40
sg1763
Vequipment
p1807
sg1765
I70
sg1766
(lp1808
sg1804
I-1
ssssasg1804
I1
sssS'shield'
p1809
I10
sssI9
(dp1810
S'elite_parameters'
p1811
(dp1812
S'ticks'
p1813
(dp1814
I0
(lp1815
ssS'damage'
p1816
(dp1817
I0
(lp1818
sssS'basic_parameters'
p1819
(dp1820
S'delay_walk'
p1821
I0
sS'life'
p1822
I100
sS'walk_dist'
p1823
I0
sS'name'
p1824
VFlak
p1825
sS'num_enemies'
p1826
I3
sS'attack_min'
p1827
I60
sS'delay_shoot'
p1828
I15
sS'id'
p1829
I9
sS'unit_type'
p1830
Vvehicle
p1831
sS'max_life'
p1832
I100
sg28
I0
sS'attack_max'
p1833
I80
sS'shoot_dist'
p1834
I5
sS'price'
p1835
I200
sS'elite'
p1836
I0
sS'shield_factor'
p1837
F0.6
sS'actions'
p1838
(dp1839
Vnix
p1840
(dp1841
S'delay'
p1842
I0
sS'category'
p1843
S'upgrade'
p1844
sg1835
I0
sg1838
(lp1845
sS'num_uses'
p1846
I-1
sssS'shield'
p1847
I0
sssI10
(dp1848
S'elite_parameters'
p1849
(dp1850
S'ticks'
p1851
(dp1852
I0
(lp1853
(dp1854
g847
g848
sg849
g850
sg851
g852
sg853
I0
sg854
I0
sg855
(dp1855
sasI400
(lp1856
(dp1857
g847
g848
sg849
g850
sg851
g852
sg853
I0
sg854
I0
sg855
(dp1858
Vdelay_walk
p1859
I-2
sVelite
p1860
I1
ssassS'damage'
p1861
(dp1862
I0
(lp1863
sssS'basic_parameters'
p1864
(dp1865
S'delay_walk'
p1866
I11
sS'life'
p1867
I40
sS'walk_dist'
p1868
I6
sS'name'
p1869
VMotorrad
p1870
sS'num_enemies'
p1871
I4
sS'attack_min'
p1872
I5
sS'delay_shoot'
p1873
I15
sS'id'
p1874
I10
sS'unit_type'
p1875
Vvehicle
p1876
sS'max_life'
p1877
I40
sg28
I0
sS'attack_max'
p1878
I10
sS'shoot_dist'
p1879
I5
sg1733
I40
sS'elite'
p1880
I0
sS'shield_factor'
p1881
F0.45
sg1734
(dp1882
VSchutzweste
p1883
(dp1884
g1730
I0
sg1731
Vupgrade
p1885
sg1733
I30
sg1734
(lp1886
(dp1887
g1737
S'self'
p1888
sg1739
g1874
sg1741
S'change'
p1889
sg1743
I0
sg1744
I0
sg1745
(dp1890
Vmax_shield
p1891
I8
sVshield
p1892
I8
ssasg1750
I1
ssVneue Reifen
p1893
(dp1894
g1730
I0
sg1731
Vupgrade
p1895
sg1733
I20
sg1734
(lp1896
(dp1897
g1737
g1888
sg1739
g1874
sg1741
g1889
sg1743
I0
sg1744
I0
sg1745
(dp1898
Vwalk_dist
p1899
I1
sVelite
p1900
I1
sg1734
(dp1901
Vleichteres Motorrad
p1902
(dp1903
g1730
I0
sg1731
Vupgrade
p1904
sg1733
I30
sg1734
(lp1905
(dp1906
g1737
g1888
sg1739
g1874
sg1741
g1889
sg1743
I0
sg1744
I0
sg1745
(dp1907
Vdelay_walk
p1908
I-1
sVwalk_dist
p1909
I1
sVelite
p1910
I1
ssasg1750
I1
ssssasg1750
I1
ssVDrive by lernen
p1911
(dp1912
g1730
I0
sg1731
Vupgrade
p1913
sg1733
I30
sg1734
(lp1914
(dp1915
g1737
g1888
sg1739
g1874
sg1741
g1889
sg1743
I0
sg1744
I0
sg1745
(dp1916
Vattack_min
p1917
I7
sVelite
p1918
I1
sVattack_max
p1919
I5
ssasg1750
I1
sssS'shield'
p1920
I0
sssI11
(dp1921
S'elite_parameters'
p1922
(dp1923
S'ticks'
p1924
(dp1925
I0
(lp1926
ssS'damage'
p1927
(dp1928
I0
(lp1929
sssS'basic_parameters'
p1930
(dp1931
S'delay_walk'
p1932
I18
sS'life'
p1933
I80
sS'walk_dist'
p1934
I5
sS'name'
p1935
VJavelin
p1936
sS'num_enemies'
p1937
I2
sS'attack_min'
p1938
I8
sS'delay_shoot'
p1939
I20
sg1075
I11
sS'unit_type'
p1940
Vsoldier
p1941
sS'max_life'
p1942
I80
sg28
I50
sS'attack_max'
p1943
I12
sS'shoot_dist'
p1944
I9
sg1068
I200
sS'elite'
p1945
I0
sS'shield_factor'
p1946
F2.5
sg1069
(dp1947
Vschneller ziehen
p1948
(dp1949
g272
I0
sg273
Vupgrade
p1950
sg275
I30
sg276
(lp1951
(dp1952
g279
g280
sg281
g282
sg283
g284
sg285
I0
sg286
I0
sg287
(dp1953
Vdelay_walk
p1954
I-3
sVelite
p1955
I1
ssasg298
I1
ssVschneller laden
p1956
(dp1957
S'delay'
p1958
I0
sS'category'
p1959
Vupgrade
p1960
sS'price'
p1961
I40
sS'actions'
p1962
(lp1963
(dp1964
S'target'
p1965
S'self'
p1966
sS'level'
p1967
S'id'
p1968
sS'type'
p1969
S'change'
p1970
sS'random'
p1971
I0
sS'num_units'
p1972
I0
sS'changes'
p1973
(dp1974
Velite
p1975
I1
sVdelay_shoot
p1976
I-4
ssasS'num_uses'
p1977
I1
ssVgroessere Sprengkraft
p1978
(dp1979
g1958
I0
sg1959
Vupgrade
p1980
sg1961
I30
sg1962
(lp1981
(dp1982
g1965
g1966
sg1967
g1968
sg1969
g1970
sg1971
I0
sg1972
I0
sg1973
(dp1983
Vnum_enemies
p1984
I2
sVattack_min
p1985
I2
sVelite
p1986
I1
sVattack_max
p1987
I3
sg1962
(dp1988
Vneue Sprengtechnologie
p1989
(dp1990
g1958
I0
sg1959
Vupgrade
p1991
sg1961
I40
sg1962
(lp1992
(dp1993
g1965
g1966
sg1967
g1968
sg1969
g1970
sg1971
I0
sg1972
I0
sg1973
(dp1994
Vshield_factor
p1995
F0.4
sVelite
p1996
I1
ssasg1977
I1
ssssasg1977
I1
sssS'shield'
p1997
I50
ssssS'engine_parameters'
p1998
(dp1999
S'constant_per_tick'
p2000
F4.0
sS'all_sectors'
p2001
(dp2002
I1
(dp2003
S'victory'
p2004
I0
sS'weight'
p2005
F1.0
ssI2
(dp2006
g2004
I0
sg2005
F1.0
ssI3
(dp2007
g2004
I0
sg2005
F1.0
ssI4
(dp2008
g2004
I0
sg2005
F1.0
ssI5
(dp2009
g2004
I0
sg2005
F1.0
ssI6
(dp2010
g2004
I0
sg2005
F1.0
ssI7
(dp2011
g2004
I0
sg2005
F1.0
ssI8
(dp2012
g2004
I0
sg2005
F2.0
ssI9
(dp2013
g2004
I0
sg2005
F1.0
ssI10
(dp2014
g2004
I0
sg2005
F1.0
ssI11
(dp2015
g2004
I0
sg2005
F1.0
ssI12
(dp2016
g2004
I0
sg2005
F1.0
ssI13
(dp2017
g2004
I0
sg2005
F1.0
ssI14
(dp2018
g2004
I0
sg2005
F1.0
ssI15
(dp2019
g2004
I0
sg2005
F2.0
ssI16
(dp2020
g2004
I0
sg2005
F1.0
ssI17
(dp2021
g2004
I0
sg2005
F1.0
ssI18
(dp2022
g2004
I0
sg2005
F1.0
ssI19
(dp2023
g2004
I0
sg2005
F1.0
ssI20
(dp2024
g2004
I0
sg2005
F1.0
ssI21
(dp2025
g2004
I0
sg2005
F1.0
ssI22
(dp2026
g2004
I0
sg2005
F1.0
sssS'delay_damage'
p2027
F0.5
sS'start_account'
p2028
F200.0
sS'extra_shoot_dist'
p2029
F2.0
sS'per_sector_per_tick'
p2030
F1.0
sS'take_over_factor'
p2031
F1.3
sS'tick_duration'
p2032
F11.0
sS'protection_effect'
p2033
F0.4
sS'protection_in'
p2034
F18.0
sS'sector_takeover'
p2035
F100.0
sS'protection_out'
p2036
F10.0
sS'max_victory_diff'
p2037
F200.0
ssS'transport_parameters'
p2038
(dp2039
I0
(dp2040
g127
(dp2041
g129
(dp2042
I0
(lp2043
ssg132
(dp2044
I0
(lp2045
sssg135
(dp2046
S'delay_walk'
p2047
I15
sg137
I100
sS'walk_dist'
p2048
I10
sg140
I10
sg141
VTransporter
p2049
sS'transports'
p2050
Vsoldier
p2051
sg143
F0.4
sg144
I0
sg145
I25
sg146
I20
sg147
I10
sg148
I200
sg149
I100
sg28
I25
sg150
I8
sg155
(dp2052
VPanzerung
p2053
(dp2054
S'delay'
p2055
I0
sS'category'
p2056
Vupgrade
p2057
sS'price'
p2058
I50
sS'actions'
p2059
(lp2060
(dp2061
g621
g622
sg623
g624
sg625
g626
sg627
I0
sg628
I0
sg629
(dp2062
Vdelay_walk
p2063
I3
sVelite
p2064
I1
sVshield
p2065
I40
sg2059
(dp2066
VCasspir
p2067
(dp2068
g2055
I0
sg2056
Vupgrade
p2069
sg2058
I70
sg2059
(lp2070
(dp2071
g621
g622
sg623
g624
sg625
g626
sg627
I0
sg628
I0
sg629
(dp2072
Vdelay_walk
p2073
I-5
sVelite
p2074
I1
sVshield
p2075
I50
sVmax_shield
p2076
I40
ssasS'num_uses'
p2077
I1
sssVmax_shield
p2078
I30
ssasg2077
I1
ssVMG
p2079
(dp2080
g2055
I0
sg2056
Vupgrade
p2081
sg2058
I40
sg2059
(lp2082
(dp2083
g621
Vself
p2084
sg623
Vid
p2085
sg625
Vchange
p2086
sg627
F0.0
sg628
I0
sg629
(dp2087
Vattack_min
p2088
I20
sVelite
p2089
I1
sVattack_max
p2090
I40
sg2059
(dp2091
VKampfmaschine
p2092
(dp2093
g2055
I0
sg2056
Vupgrade
p2094
sg2058
I80
sg2059
(lp2095
(dp2096
g621
g622
sg623
g624
sg625
g626
sg627
I0
sg628
I0
sg629
(dp2097
Vshield_factor
p2098
F0.2
sVattack_min
p2099
I30
sVelite
p2100
I1
sVattack_max
p2101
I30
ssasg2077
I1
ssssasg2077
I1
ssVSpeed up (laden & ziehen)
p2102
(dp2103
g582
I0
sg583
Vupgrade
p2104
sg585
I30
sg586
(lp2105
(dp2106
g181
g589
sg185
g590
sg179
g591
sg592
I0
sg593
I0
sg594
(dp2107
Vdelay_walk
p2108
I-2
sVelite
p2109
I1
sVdelay_shoot
p2110
I-2
sg586
(dp2111
VSpeed up (nur ziehen)
p2112
(dp2113
g582
I0
sg583
Vupgrade
p2114
sg585
I40
sg586
(lp2115
(dp2116
g181
g589
sg185
g590
sg179
g591
sg592
I0
sg593
I0
sg594
(dp2117
Vdelay_walk
p2118
I-2
sVwalk_dist
p2119
I1
sVelite
p2120
I1
ssasg601
I1
ssssasg601
I1
ssVmehr Platz I
p2121
(dp2122
g2055
I0
sg2056
Vupgrade
p2123
sg2058
I30
sg2059
(lp2124
(dp2125
g621
g622
sg623
g624
sg625
g626
sg627
I0
sg628
I0
sg629
(dp2126
Velite
p2127
I1
sVcapacity
p2128
I5
sg2059
(dp2129
Vmehr Platz II
p2130
(dp2131
g2055
I0
sg2056
Vupgrade
p2132
sg2058
I40
sg2059
(lp2133
(dp2134
g621
g622
sg623
g624
sg625
g626
sg627
I0
sg628
I0
sg629
(dp2135
Velite
p2136
I1
sVcapacity
p2137
I8
ssasg2077
I1
ssssasg2077
I1
sssg154
I5
sg299
I0
sg153
I0
sg302
I4
sg303
I0
sssI1
(dp2138
g305
(dp2139
g307
(dp2140
I0
(lp2141
ssg310
(dp2142
I0
(lp2143
sssg313
(dp2144
S'delay_walk'
p2145
I15
sg315
I100
sS'walk_dist'
p2146
I10
sg318
I10
sg319
VHelikopter
p2147
sS'transports'
p2148
Vsoldier
p2149
sg336
F0.4
sg323
I0
sg324
I50
sg325
I20
sg326
I10
sg327
I200
sg328
I100
sg28
I50
sg329
I8
sg337
(dp2150
VBombe abwerfen
p2151
(dp2152
g341
I15
sg342
Vstandard
p2153
sg327
I80
sg337
(lp2154
(dp2155
g346
Venemy
p2156
sg348
Vid
p2157
sg350
Vchange
p2158
sg352
F0.3
sg353
I7
sg354
(dp2159
Vlife
p2160
I-6
sg337
(dp2161
ssasg357
I-1
ssVschneller fliegen
p2162
(dp2163
S'delay'
p2164
I0
sS'category'
p2165
Vupgrade
p2166
sS'price'
p2167
I30
sS'actions'
p2168
(lp2169
(dp2170
S'target'
p2171
S'self'
p2172
sS'level'
p2173
S'id'
p2174
sS'type'
p2175
S'change'
p2176
sS'random'
p2177
I0
sS'num_units'
p2178
I0
sS'changes'
p2179
(dp2180
Vdelay_walk
p2181
I-3
sg2168
(dp2182
Vsuper Speed
p2183
(dp2184
g2164
I0
sg2165
Vupgrade
p2185
sg2167
I50
sg2168
(lp2186
(dp2187
g2171
g2172
sg2173
g2174
sg2175
g2176
sg2177
I0
sg2178
I0
sg2179
(dp2188
Vdelay_walk
p2189
I-2
sVwalk_dist
p2190
I1
ssasS'num_uses'
p2191
I1
ssssasg2191
I1
sssg333
I6
sg335
I0
sg332
I1
sg334
I4
sg400
I0
sssI2
(dp2192
S'elite_parameters'
p2193
(dp2194
S'ticks'
p2195
(dp2196
I0
(lp2197
ssS'damage'
p2198
(dp2199
I0
(lp2200
sssS'basic_parameters'
p2201
(dp2202
S'delay_walk'
p2203
I18
sS'life'
p2204
I150
sS'walk_dist'
p2205
I9
sS'capacity'
p2206
I3
sS'name'
p2207
VFahrzeug Transporter
p2208
sS'elite'
p2209
I0
sS'shield_factor'
p2210
F0.4
sS'attack_min'
p2211
I0
sS'delay_shoot'
p2212
I15
sg425
I2
sg418
I300
sS'max_life'
p2213
I150
sg28
I20
sS'delay_out'
p2214
I15
sS'attack_max'
p2215
I0
sS'shoot_dist'
p2216
I5
sS'num_enemies'
p2217
I4
sS'transports'
p2218
Vvehicle
p2219
sS'delay_in'
p2220
I25
sg419
(dp2221
Vmehr Platz
p2222
(dp2223
g415
I0
sg416
Vupgrade
p2224
sg418
I50
sg419
(lp2225
(dp2226
g422
g423
sg424
g425
sg426
g427
sg428
I0
sg429
I0
sg430
(dp2227
Vcapacity
p2228
I2
ssasg435
I1
sssS'shield'
p2229
I20
ssssS'card_parameters'
p2230
(dp2231
I200
(lp2232
(dp2233
S'num_cards'
p2234
I10
sS'description'
p2235
VEine Gruppe kann in einen Helikopter verladen werden und deshalb 10 pro Runde ziehen.
p2236
sg2059
(lp2237
(dp2238
S'target'
p2239
S'self'
p2240
sS'level'
p2241
S'id'
p2242
sS'type'
p2243
S'change'
p2244
sS'random'
p2245
F0.0
sS'num_units'
p2246
I0
sS'changes'
p2247
(dp2248
sasS'title'
p2249
VHelitransport
p2250
sa(dp2251
S'title'
p2252
VGiftgas
p2253
sS'num_cards'
p2254
I7
sg1165
(lp2255
(dp2256
S'target'
p2257
S'enemy'
p2258
sS'level'
p2259
S'id'
p2260
sS'type'
p2261
S'change'
p2262
sS'random'
p2263
F0.3
sS'num_units'
p2264
S'all'
p2265
sS'changes'
p2266
(dp2267
Vlife
p2268
I-8
ssa(dp2269
g2257
Vown
p2270
sg2259
Vid
p2271
sg2261
Vchange
p2272
sg2263
F0.3
sg2264
Vall
p2273
sg2266
(dp2274
Vlife
p2275
I-2
ssasS'description'
p2276
VAlle Einheiten werden verwundet. Gegnerische staerker als eigene
p2277
sa(dp2278
S'description'
p2279
VDescription
p2280
sS'num_cards'
p2281
I12
sS'actions'
p2282
(lp2283
(dp2284
g2257
Vown
p2285
sg2259
Vid
p2286
sg2261
Vchange
p2287
sg2263
F0.2
sg2264
I6
sg2266
(dp2288
Vlife
p2289
I20
ssasS'title'
p2290
VFeldapotheke
p2291
sa(dp2292
S'num_cards'
p2293
I1
sS'description'
p2294
VDescription
p2295
sS'actions'
p2296
(lp2297
(dp2298
g2243
S'new'
p2299
sg2239
S'own'
p2300
sS'parameters'
p2301
I0
sg2241
S'buildings'
p2302
sa(dp2303
g2239
S'self'
p2304
sg2241
S'id'
p2305
sg2243
S'change'
p2306
sg2245
F0.0
sg2246
I0
sg2247
(dp2307
Vlife
p2308
I0
ssasS'title'
p2309
VUnnamed Card
p2310
sa(dp2311
S'description'
p2312
Veine eigene Gruppe kann geheilt werden
p2313
sS'num_cards'
p2314
I4
sS'actions'
p2315
(lp2316
(dp2317
S'target'
p2318
S'self'
p2319
sS'level'
p2320
S'id'
p2321
sS'type'
p2322
S'change'
p2323
sS'random'
p2324
I0
sS'num_units'
p2325
S''
p2326
sS'changes'
p2327
(dp2328
Vlife
p2329
I0
ssasS'title'
p2330
Vmittleres Heilen
p2331
sass.