(dp0
S'building_parameters'
p1
(dp2
I0
(dp3
S'elite_parameters'
p4
(dp5
S'ticks'
p6
(dp7
I0
(lp8
sI150
(lp9
(dp10
S'target'
p11
S'self'
p12
sS'level'
p13
S'id'
p14
sS'type'
p15
S'change'
p16
sS'random'
p17
I0
sS'num_units'
p18
I0
sS'changes'
p19
(dp20
S'actions'
p21
(dp22
VWerkstatt bauen
p23
(dp24
S'delay'
p25
I0
sS'category'
p26
Vshop
p27
sS'price'
p28
I600
sg21
(lp29
(dp30
g15
Vnew
p31
sg11
Vown
p32
sS'parameters'
p33
I3
sg13
Vbuildings
p34
sasS'num_uses'
p35
I-1
ssssassS'damage'
p36
(dp37
I0
(lp38
sssS'basic_parameters'
p39
(dp40
S'life'
p41
I800
sS'shop_transporter'
p42
(lp43
I0
asS'capacity'
p44
I25
sS'name'
p45
VHauptquartier
p46
sS'shield_factor'
p47
F0.4
sS'elite'
p48
I0
sS'shop_units'
p49
(lp50
I1
aI10
asS'attack_min'
p51
I0
sS'delay_shoot'
p52
I15
sS'id'
p53
I0
sS'price'
p54
I1000
sS'max_life'
p55
I800
sS'max_shield'
p56
I100
sS'actions'
p57
(dp58
VArzneistudium +
p59
(dp60
S'delay'
p61
I0
sS'category'
p62
Vupgrade
p63
sS'price'
p64
I400
sS'actions'
p65
(lp66
(dp67
S'target'
p68
S'self'
p69
sS'level'
p70
S'id'
p71
sS'type'
p72
S'change'
p73
sS'random'
p74
I0
sS'num_units'
p75
I0
sS'changes'
p76
(dp77
Vshop_units
p78
(lp79
I6
assa(dp80
g72
Vnew
p81
sg68
Vown
p82
sS'parameters'
p83
(lp84
I6
asg70
Vgroups
p85
sasS'num_uses'
p86
I1
ssVKommandant +
p87
(dp88
S'delay'
p89
I0
sS'category'
p90
Vupgrade
p91
sS'price'
p92
I500
sS'actions'
p93
(lp94
(dp95
S'target'
p96
S'self'
p97
sS'level'
p98
S'id'
p99
sS'type'
p100
S'change'
p101
sS'random'
p102
I0
sS'num_units'
p103
I0
sS'changes'
p104
(dp105
Vshop_units
p106
(lp107
I8
assa(dp108
S'type'
p109
Vnew
p110
sS'target'
p111
Vown
p112
sS'parameters'
p113
(lp114
I8
asS'level'
p115
Vgroups
p116
sasS'num_uses'
p117
I1
ssVHelikopter-Plattform +
p118
(dp119
S'delay'
p120
I0
sS'category'
p121
Vupgrade
p122
sS'price'
p123
I400
sS'actions'
p124
(lp125
(dp126
S'target'
p127
S'self'
p128
sS'level'
p129
S'id'
p130
sS'type'
p131
S'change'
p132
sS'random'
p133
I0
sS'num_units'
p134
I0
sS'changes'
p135
(dp136
Vshop_transporter
p137
(lp138
I1
assa(dp139
g131
Vnew
p140
sg127
Vown
p141
sS'parameters'
p142
I1
sg129
Vtransporter
p143
sasS'num_uses'
p144
I1
sssS'attack_max'
p145
I0
sS'enter'
p146
Vsoldier
p147
sS'shoot_dist'
p148
I6
sS'delay_out'
p149
I10
sS'delay_in'
p150
I20
sS'num_enemies'
p151
I4
sS'shield'
p152
I100
sssI1
(dp153
S'elite_parameters'
p154
(dp155
S'ticks'
p156
(dp157
I500
(lp158
ssS'damage'
p159
(dp160
I0
(lp161
sssS'basic_parameters'
p162
(dp163
S'life'
p164
I600
sS'shop_transporter'
p165
(lp166
sS'capacity'
p167
I15
sS'name'
p168
VKaserne
p169
sS'shop_units'
p170
(lp171
I0
asS'attack_min'
p172
I0
sS'shield'
p173
I80
sS'delay_shoot'
p174
I15
sS'delay_in'
p175
I20
sS'price'
p176
I600
sS'actions'
p177
(dp178
VSniper +
p179
(dp180
S'delay'
p181
I0
sS'category'
p182
Vupgrade
p183
sS'price'
p184
I200
sS'actions'
p185
(lp186
(dp187
S'target'
p188
S'self'
p189
sS'level'
p190
S'id'
p191
sS'type'
p192
S'change'
p193
sS'random'
p194
I0
sS'num_units'
p195
I0
sS'changes'
p196
(dp197
Vshop_units
p198
(lp199
I3
assa(dp200
S'type'
p201
Vnew
p202
sS'target'
p203
Vown
p204
sS'parameters'
p205
(lp206
I3
asS'level'
p207
Vgroups
p208
sasS'num_uses'
p209
I1
ssVVerteidigung
p210
(dp211
S'delay'
p212
I20
sS'category'
p213
Vupgrade
p214
sS'price'
p215
I100
sS'actions'
p216
(lp217
(dp218
S'target'
p219
S'self'
p220
sS'level'
p221
S'id'
p222
sS'type'
p223
S'change'
p224
sS'random'
p225
I0
sS'num_units'
p226
I0
sS'changes'
p227
(dp228
Vattack_min
p229
I20
sVattack_max
p230
I40
ssasS'num_uses'
p231
I1
ssVMG-Soldat
p232
(dp233
S'delay'
p234
I0
sS'category'
p235
Vupgrade
p236
sS'price'
p237
I250
sS'actions'
p238
(lp239
(dp240
g219
g220
sg221
g222
sg223
g224
sg225
I0
sg226
I0
sg227
(dp241
Vshop_units
p242
(lp243
I2
asVelite
p244
I1
sS'actions'
p245
(dp246
VMG-Soldat Ausbildung
p247
(dp248
S'delay'
p249
I0
sS'category'
p250
Vequipment
p251
sS'price'
p252
I0
sS'actions'
p253
(lp254
(dp255
S'target'
p256
Vown
p257
sS'level'
p258
Vid
p259
sS'type'
p260
Vchange
p261
sS'random'
p262
F0.0
sS'num_units'
p263
I1
sS'changes'
p264
(dp265
Vshop_units
p266
(lp267
I2
assasS'num_uses'
p268
I-1
ssssasS'num_uses'
p269
I1
ssVJavelin +
p270
(dp271
S'delay'
p272
I0
sS'category'
p273
Vupgrade
p274
sS'price'
p275
I400
sS'actions'
p276
(lp277
(dp278
S'target'
p279
S'self'
p280
sS'level'
p281
S'id'
p282
sS'type'
p283
S'change'
p284
sS'random'
p285
I0
sS'num_units'
p286
I0
sS'changes'
p287
(dp288
Vshop_units
p289
(lp290
I11
asVelite
p291
I1
ssa(dp292
g283
Vnew
p293
sg279
Vown
p294
sS'parameters'
p295
(lp296
I11
asg281
Vgroups
p297
sasS'num_uses'
p298
I1
ssVCyborg
p299
(dp300
S'delay'
p301
I0
sS'category'
p302
Vupgrade
p303
sS'price'
p304
I200
sS'actions'
p305
(lp306
(dp307
S'target'
p308
S'self'
p309
sS'level'
p310
S'id'
p311
sS'type'
p312
S'change'
p313
sS'random'
p314
I0
sS'num_units'
p315
I0
sS'changes'
p316
(dp317
Vshop_units
p318
(lp319
I7
asVelite
p320
I1
ssasS'num_uses'
p321
I1
sssS'max_life'
p322
I600
sg56
I80
sS'delay_out'
p323
I10
sS'enter'
p324
Vsoldier
p325
sS'id'
p326
I1
sS'shoot_dist'
p327
I6
sS'elite'
p328
I0
sS'shield_factor'
p329
F0.4
sS'num_enemies'
p330
I4
sS'attack_max'
p331
I0
sssI2
(dp332
S'elite_parameters'
p333
(dp334
S'ticks'
p335
(dp336
I0
(lp337
ssS'damage'
p338
(dp339
I0
(lp340
sssS'basic_parameters'
p341
(dp342
S'life'
p343
I500
sS'shop_transporter'
p344
(lp345
sS'capacity'
p346
I10
sS'name'
p347
VLazarett
p348
sS'shop_units'
p349
(lp350
sS'attack_min'
p351
I0
sS'shield'
p352
I75
sS'delay_shoot'
p353
I15
sS'delay_in'
p354
I20
sS'price'
p355
I500
sS'max_life'
p356
I500
sg56
I75
sS'actions'
p357
(dp358
V10x heilen
p359
(dp360
S'delay'
p361
I50
sS'category'
p362
Vstandard
p363
sg355
I400
sg357
(lp364
(dp365
S'target'
p366
Vown
p367
sS'level'
p368
Vid
p369
sS'type'
p370
Vchange
p371
sS'random'
p372
F0.0
sS'num_units'
p373
I0
sS'changes'
p374
(dp375
Vlife
p376
I50
ssasS'num_uses'
p377
I-1
ssV1x heilen
p378
(dp379
g361
I40
sg362
Vstandard
p380
sg355
I70
sg357
(lp381
(dp382
g366
Vown
p383
sg368
Vid
p384
sg370
Vchange
p385
sg372
F0.0
sg373
I1
sg374
(dp386
Vlife
p387
I50
ssasg377
I-1
ssVArztneistudium
p388
(dp389
S'delay'
p390
I0
sS'category'
p391
Vupgrade
p392
sS'price'
p393
I200
sS'actions'
p394
(lp395
(dp396
S'target'
p397
S'self'
p398
sS'level'
p399
S'id'
p400
sS'type'
p401
S'change'
p402
sS'random'
p403
I0
sS'num_units'
p404
I0
sS'changes'
p405
(dp406
Vshop_units
p407
(lp408
I6
assasS'num_uses'
p409
I1
ssV5x heilen
p410
(dp411
g361
I50
sg362
Vstandard
p412
sg355
I200
sg357
(lp413
(dp414
g366
Vown
p415
sg368
Vid
p416
sg370
Vchange
p417
sg372
F0.0
sg373
I5
sg374
(dp418
Vlife
p419
I50
ssasg377
I-1
sssS'attack_max'
p420
I0
sS'enter'
p421
Vsoldier
p422
sS'id'
p423
I2
sS'shoot_dist'
p424
I6
sS'elite'
p425
I0
sS'shield_factor'
p426
F0.4
sS'num_enemies'
p427
I4
sS'delay_out'
p428
I10
sssI3
(dp429
g333
(dp430
g335
(dp431
I0
(lp432
ssg338
(dp433
I0
(lp434
sssg341
(dp435
g343
I500
sg344
(lp436
I0
asg346
I10
sg347
VWerkstatt
p437
sg349
(lp438
I4
asg351
I0
sg352
I80
sg353
I15
sg354
I20
sg355
I700
sg356
I500
sg56
I80
sg357
(dp439
VFahrzeug Transporter
p440
(dp441
S'delay'
p442
I0
sS'category'
p443
Vupgrade
p444
sS'price'
p445
I150
sS'actions'
p446
(lp447
(dp448
S'target'
p449
S'self'
p450
sS'level'
p451
S'id'
p452
sS'type'
p453
S'change'
p454
sS'random'
p455
I0
sS'num_units'
p456
I0
sS'changes'
p457
(dp458
Vshop_transporter
p459
(lp460
I2
asVelite
p461
I1
ssasS'num_uses'
p462
I1
ssVArtillerie
p463
(dp464
S'delay'
p465
I0
sS'category'
p466
Vupgrade
p467
sS'price'
p468
I300
sS'actions'
p469
(lp470
(dp471
S'target'
p472
S'self'
p473
sS'level'
p474
S'id'
p475
sS'type'
p476
S'change'
p477
sS'random'
p478
I0
sS'num_units'
p479
I0
sS'changes'
p480
(dp481
Vshop_units
p482
(lp483
I5
asVelite
p484
I1
ssasS'num_uses'
p485
I1
ssVVerteidigung
p486
(dp487
S'delay'
p488
I0
sS'category'
p489
Vupgrade
p490
sS'price'
p491
I50
sS'actions'
p492
(lp493
(dp494
g397
g398
sg399
g400
sg401
g402
sg403
I0
sg404
I0
sg405
(dp495
Vattack_min
p496
I30
sVattack_max
p497
I50
ssasS'num_uses'
p498
I1
sssg420
I0
sg421
Vvehicle
p499
sg423
I3
sg424
I6
sg425
I0
sg426
F0.4
sg427
I4
sg428
I10
sssI4
(dp500
g333
(dp501
g335
(dp502
I0
(lp503
ssg338
(dp504
I0
(lp505
sssg341
(dp506
g343
I600
sg344
(lp507
sg346
I15
sg347
VFlughafen
p508
sg349
(lp509
sg351
I0
sg352
I50
sg353
I15
sg354
I20
sg355
I400
sg356
I600
sg56
I50
sg357
(dp510
VFlak & Verteidigung
p511
(dp512
g442
I0
sg443
Vupgrade
p513
sg445
I100
sg446
(lp514
(dp515
g449
g450
sg451
g452
sg453
g454
sg455
I0
sg456
I0
sg457
(dp516
Vshop_units
p517
(lp518
I9
asVattack_min
p519
I30
sVelite
p520
I1
sVattack_max
p521
I50
ssasg462
I1
ssVHelikopter Landeplattform
p522
(dp523
g361
I0
sg362
Vupgrade
p524
sg355
I400
sg357
(lp525
(dp526
g366
S'self'
p527
sg368
g423
sg370
S'change'
p528
sg372
I0
sg373
I0
sg374
(dp529
Vshop_transporter
p530
(lp531
I1
asVelite
p532
I1
sS'actions'
p533
(dp534
VFallschirmspringer
p535
(dp536
S'delay'
p537
I0
sS'category'
p538
S'upgrade'
p539
sS'price'
p540
I0
sS'actions'
p541
(lp542
sS'num_uses'
p543
I-1
ssssasg377
I1
sssg420
I0
sg421
Vvehicle
p544
sg423
I4
sg424
I6
sg425
I0
sg426
F0.4
sg427
I4
sg428
I10
sssI5
(dp545
S'elite_parameters'
p546
(dp547
S'ticks'
p548
(dp549
I0
(lp550
ssS'damage'
p551
(dp552
I0
(lp553
sssS'basic_parameters'
p554
(dp555
S'shop_units'
p556
(lp557
sS'life'
p558
I100
sS'shop_transporter'
p559
(lp560
sS'capacity'
p561
I0
sS'name'
p562
Vnix
p563
sS'shield_factor'
p564
F0.6
sS'attack_min'
p565
I60
sS'delay_shoot'
p566
I15
sS'id'
p567
I5
sS'price'
p568
I200
sS'max_life'
p569
I100
sg56
I0
sS'delay_out'
p570
I0
sS'attack_max'
p571
I80
sS'enter'
p572
Vsoldier
p573
sS'shoot_dist'
p574
I5
sS'num_enemies'
p575
I3
sS'elite'
p576
I0
sS'delay_in'
p577
I0
sS'actions'
p578
(dp579
Vnix
p580
(dp581
S'delay'
p582
I0
sS'category'
p583
S'upgrade'
p584
sg568
I0
sg578
(lp585
sS'num_uses'
p586
I-1
sssS'shield'
p587
I0
sssI6
(dp588
g546
(dp589
g548
(dp590
I0
(lp591
ssg551
(dp592
I0
(lp593
sssg554
(dp594
g556
(lp595
sg558
I80
sg559
(lp596
sg561
I5
sg562
VMG-Nest
p597
sg564
F0.5
sg565
I20
sg566
I15
sg567
I6
sg568
I70
sg569
I80
sg56
I20
sg570
I10
sg571
I35
sg572
Vsoldier
p598
sg574
I6
sg575
I4
sg576
I0
sg577
I15
sg578
(dp599
Vzweites Geschuetz
p600
(dp601
S'delay'
p602
I0
sS'category'
p603
Vupgrade
p604
sS'price'
p605
I50
sS'actions'
p606
(lp607
sS'num_uses'
p608
I1
ssVPanzerabwehr
p609
(dp610
S'delay'
p611
I10
sS'category'
p612
Vupgrade
p613
sS'price'
p614
I150
sS'actions'
p615
(lp616
(dp617
g203
S'self'
p618
sg207
S'id'
p619
sg201
S'change'
p620
sS'random'
p621
I0
sS'num_units'
p622
I0
sS'changes'
p623
(dp624
Vshield_factor
p625
F2.0
sVattack_min
p626
I-10
sS'actions'
p627
(dp628
VMoerser
p629
(dp630
S'delay'
p631
I0
sS'category'
p632
Vupgrade
p633
sS'price'
p634
I0
sg627
(lp635
sS'num_uses'
p636
I0
sssVattack_max
p637
I-20
sVshoot_dist
p638
I1
sVelite
p639
I2
ssasS'num_uses'
p640
I1
ssVBetonguss
p641
(dp642
g611
I0
sg612
Vupgrade
p643
sg614
I50
sg615
(lp644
(dp645
g203
g618
sg207
g619
sg201
g620
sg621
I0
sg622
I0
sg623
(dp646
Velite
p647
I1
sVmax_shield
p648
I15
sVshield
p649
I30
ssasg640
I1
ssVMoerser
p650
(dp651
S'delay'
p652
I10
sS'category'
p653
Vupgrade
p654
sS'price'
p655
I150
sS'actions'
p656
(lp657
(dp658
S'target'
p659
S'self'
p660
sS'level'
p661
S'id'
p662
sS'type'
p663
S'change'
p664
sS'random'
p665
I0
sS'num_units'
p666
I0
sS'changes'
p667
(dp668
Vnum_enemies
p669
I4
sVattack_min
p670
I10
sVdelay_shoot
p671
I10
sg627
(dp672
VPanzerabwehr
p673
(dp674
g631
I0
sg632
Vupgrade
p675
sg634
I0
sg627
(lp676
sg636
I0
sssVshoot_dist
p677
I3
sVattack_max
p678
I55
ssasS'num_uses'
p679
I1
sssg587
I20
ssssS'unit_parameters'
p680
(dp681
I0
(dp682
S'elite_parameters'
p683
(dp684
S'ticks'
p685
(dp686
I1000
(lp687
(dp688
S'target'
p689
S'self'
p690
sS'level'
p691
S'id'
p692
sS'type'
p693
S'change'
p694
sS'random'
p695
I0
sS'num_units'
p696
I0
sS'changes'
p697
(dp698
Vlife
p699
I10
sVelite
p700
I1
sVshield
p701
I15
ssasI500
(lp702
(dp703
g689
g690
sg691
g692
sg693
g694
sg695
I0
sg696
I0
sg697
(dp704
Vlife
p705
I10
sVelite
p706
I1
sVshield
p707
I15
ssassS'damage'
p708
(dp709
I1000
(lp710
(dp711
S'target'
p712
S'self'
p713
sS'level'
p714
S'id'
p715
sS'type'
p716
S'change'
p717
sS'random'
p718
I0
sS'num_units'
p719
I0
sS'changes'
p720
(dp721
Vshoot_dist
p722
I2
sVmax_life
p723
I8
sVelite
p724
I1
sVattack_max
p725
I11
ssasI500
(lp726
(dp727
g689
g690
sg691
g692
sg693
g694
sg695
I0
sg696
I0
sg697
(dp728
Velite
p729
I1
sVattack_max
p730
I8
ssasI750
(lp731
(dp732
g712
g713
sg714
g715
sg716
g717
sg718
I0
sg719
I0
sg720
(dp733
Vattack_min
p734
I8
sVelite
p735
I1
sVattack_max
p736
I10
ssasssS'basic_parameters'
p737
(dp738
S'delay_walk'
p739
I15
sS'life'
p740
I50
sS'walk_dist'
p741
I5
sS'name'
p742
VSoldat
p743
sS'num_enemies'
p744
I4
sS'attack_min'
p745
I10
sS'delay_shoot'
p746
I15
sS'id'
p747
I0
sS'unit_type'
p748
Vsoldier
p749
sS'max_life'
p750
I50
sg56
I0
sS'attack_max'
p751
I20
sS'shoot_dist'
p752
I6
sS'price'
p753
I70
sS'elite'
p754
I0
sS'shield_factor'
p755
F0.5
sS'actions'
p756
(dp757
VSchutzweste
p758
(dp759
g361
I0
sg362
Vupgrade
p760
sg355
I30
sg357
(lp761
(dp762
g366
g527
sg368
g423
sg370
g528
sg372
I0
sg373
I0
sg374
(dp763
Vmax_shield
p764
I10
sVshield
p765
I10
sg357
(dp766
VSchild & wenig heilen
p767
(dp768
g361
I0
sg362
Vupgrade
p769
sg355
I50
sg357
(lp770
(dp771
g366
g527
sg368
g423
sg370
g528
sg372
I0
sg373
I0
sg374
(dp772
Vmax_shield
p773
I15
sVlife
p774
I15
sVmax_life
p775
I6
sVelite
p776
I1
sVshield
p777
I15
ssasg377
I1
ssssasg377
I1
ssV2 HG
p778
(dp779
S'delay'
p780
I0
sS'category'
p781
Vequipment
p782
sg176
I70
sg177
(lp783
(dp784
S'target'
p785
S'self'
p786
sS'level'
p787
S'id'
p788
sS'type'
p789
S'change'
p790
sS'random'
p791
I0
sS'num_units'
p792
I0
sS'changes'
p793
(dp794
S'actions'
p795
(dp796
VHG
p797
(dp798
S'delay'
p799
I7
sS'category'
p800
Vstandard
p801
sS'price'
p802
I0
sg795
(lp803
(dp804
g785
Venemy
p805
sg787
Vid
p806
sg789
Vchange
p807
sg791
F0.25
sg792
I3
sg793
(dp808
Vlife
p809
I-10
ssasS'num_uses'
p810
I2
ssssasS'num_uses'
p811
I-1
ssVneue Schuhe
p812
(dp813
g780
I0
sg781
Vupgrade
p814
sg176
I20
sg177
(lp815
(dp816
S'target'
p817
Vself
p818
sS'level'
p819
Vid
p820
sS'type'
p821
Vchange
p822
sS'random'
p823
F0.0
sS'num_units'
p824
F1.0
sS'changes'
p825
(dp826
Vdelay_walk
p827
I-2
sVwalk_dist
p828
I1
sVelite
p829
I1
sg177
(dp830
ssasg811
I1
ssVneue Munition
p831
(dp832
g780
I0
sg781
Vupgrade
p833
sg176
I20
sg177
(lp834
(dp835
g817
S'self'
p836
sg819
g326
sg821
S'change'
p837
sg823
I0
sg824
I0
sg825
(dp838
Vattack_min
p839
I5
sVattack_max
p840
I5
sg177
(dp841
VSchnellfeuer
p842
(dp843
g780
I0
sg781
Vupgrade
p844
sg176
I30
sg177
(lp845
(dp846
g817
g836
sg819
g326
sg821
g837
sg823
I0
sg824
I0
sg825
(dp847
Vnum_enemies
p848
I2
sVattack_min
p849
I4
sVelite
p850
I1
sVattack_max
p851
I8
sS'actions'
p852
(dp853
VFlammenwerfer
p854
(dp855
g611
I0
sg612
Vupgrade
p856
sg614
I40
sg615
(lp857
(dp858
g203
g618
sg207
g619
sg201
g620
sg621
I0
sg622
I0
sg623
(dp859
Vnum_enemies
p860
I4
sVattack_min
p861
I10
sVelite
p862
I1
sVattack_max
p863
I10
ssasg640
I1
ssVSchildexperte
p864
(dp865
S'delay'
p866
I0
sS'category'
p867
Vupgrade
p868
sS'price'
p869
I0
sg852
(lp870
sS'num_uses'
p871
I0
ssssasg811
I1
ssVSchildexperte
p872
(dp873
g780
I0
sg781
Vupgrade
p874
sg176
I30
sg177
(lp875
(dp876
g817
g836
sg819
g326
sg821
g837
sg823
I0
sg824
I0
sg825
(dp877
Vshield_factor
p878
F0.1
sVattack_min
p879
I6
sVelite
p880
I1
sVattack_max
p881
I4
sg177
(dp882
VSchnellfeuer
p883
(dp884
S'delay'
p885
I0
sS'category'
p886
Vupgrade
p887
sS'price'
p888
I0
sS'actions'
p889
(lp890
sS'num_uses'
p891
I0
ssVPanzerbrecher
p892
(dp893
g611
I0
sg612
Vupgrade
p894
sg614
I40
sg615
(lp895
(dp896
g203
g618
sg207
g619
sg201
g620
sg621
I0
sg622
I0
sg623
(dp897
Vshield_factor
p898
F0.2
sVattack_min
p899
I4
sVelite
p900
I1
sVattack_max
p901
I10
ssasg640
I1
ssssasg811
I1
ssssasg811
I1
sssS'shield'
p902
I0
sssI1
(dp903
g683
(dp904
g685
(dp905
I1000
(lp906
(dp907
g817
g836
sg819
g326
sg821
g837
sg823
I0
sg824
I0
sg825
(dp908
Velite
p909
I1
sVwalk_dist
p910
I1
sVmax_shield
p911
I10
sVshield
p912
I10
ssasI400
(lp913
(dp914
S'target'
p915
S'self'
p916
sS'level'
p917
S'id'
p918
sS'type'
p919
S'change'
p920
sS'random'
p921
I0
sS'num_units'
p922
I0
sS'changes'
p923
(dp924
Vdelay_walk
p925
I-2
sVlife
p926
I20
sVwalk_dist
p927
I1
sVelite
p928
I1
ssasI700
(lp929
(dp930
g915
g916
sg917
g918
sg919
g920
sg921
I0
sg922
I0
sg923
(dp931
Vmax_shield
p932
I8
sVlife
p933
I15
sVmax_life
p934
I10
sVelite
p935
I1
sVshield
p936
I13
ssassg708
(dp937
I0
(lp938
sssg737
(dp939
g739
I15
sg740
I40
sg741
I5
sg742
VIngenieur
p940
sg744
I1
sg745
I3
sg746
I15
sg747
I1
sg748
Vsoldier
p941
sg750
I40
sg56
I0
sg751
I5
sg752
I2
sg753
I100
sg754
I0
sg755
F0.4
sg756
(dp942
VSchild-Mech
p943
(dp944
g652
I8
sg653
Vupgrade
p945
sg655
I80
sg656
(lp946
(dp947
g659
Vown
p948
sg661
Vid
p949
sg663
Vchange
p950
sg665
F0.0
sg666
I0
sg667
(dp951
Vshield
p952
I10
ssa(dp953
g659
g660
sg661
g662
sg663
g664
sg665
I0
sg666
I0
sg667
(dp954
g656
(dp955
Vreparieren 3x10
p956
(dp957
g652
I7
sg653
Vstandard
p958
sg655
I50
sg656
(lp959
(dp960
g659
Vown
p961
sg661
Vid
p962
sg663
Vchange
p963
sg665
F0.2
sg666
I3
sg667
(dp964
Vshield
p965
I10
ssasg679
I-1
ssVTeile ersetzen 6x10
p966
(dp967
g652
I7
sg653
Vstandard
p968
sg655
I90
sg656
(lp969
(dp970
g659
Vown
p971
sg661
Vid
p972
sg663
Vchange
p973
sg665
F0.1
sg666
I6
sg667
(dp974
Vshield
p975
I10
ssasg679
I-1
ssssasg679
I1
ssVBruecke bauen
p976
(dp977
S'delay'
p978
I40
sS'category'
p979
Vshop
p980
sS'price'
p981
I100
sS'actions'
p982
(lp983
(dp984
S'target'
p985
S'self'
p986
sS'level'
p987
S'id'
p988
sS'type'
p989
S'change'
p990
sS'random'
p991
I0
sS'num_units'
p992
I0
sS'changes'
p993
(dp994
Vlife
p995
I0
ssasS'num_uses'
p996
I-1
ssVMG-Nest
p997
(dp998
S'delay'
p999
I30
sS'category'
p1000
Vshop
p1001
sS'price'
p1002
I70
sS'actions'
p1003
(lp1004
(dp1005
g100
Vnew
p1006
sg96
Vown
p1007
sS'parameters'
p1008
I6
sg98
Vbuildings
p1009
sasS'num_uses'
p1010
I-1
ssVleichtere Ausruestung
p1011
(dp1012
g652
I0
sg653
Vupgrade
p1013
sg655
I30
sg656
(lp1014
(dp1015
g659
g660
sg661
g662
sg663
g664
sg665
I0
sg666
I0
sg667
(dp1016
Vdelay_walk
p1017
I-2
sVwalk_dist
p1018
I1
sVelite
p1019
I1
ssasg679
I1
ssVWerkstatt
p1020
(dp1021
g390
I60
sg391
Vshop
p1022
sg393
I700
sg394
(lp1023
(dp1024
g401
Vnew
p1025
sg397
Vown
p1026
sS'parameters'
p1027
I3
sg399
Vbuildings
p1028
sasg409
I-1
ssVFlugplatz
p1029
(dp1030
g488
I50
sg489
Vshop
p1031
sg491
I400
sg492
(lp1032
(dp1033
S'type'
p1034
Vnew
p1035
sS'target'
p1036
Vown
p1037
sS'parameters'
p1038
I4
sS'level'
p1039
Vbuildings
p1040
sasg498
I-1
ssVLazarett
p1041
(dp1042
g488
I50
sg489
Vshop
p1043
sg491
I500
sg492
(lp1044
(dp1045
g1034
Vnew
p1046
sg1036
Vown
p1047
sg1038
I2
sg1039
Vbuildings
p1048
sasg498
I-1
ssVKaserne
p1049
(dp1050
g780
I60
sg781
Vshop
p1051
sg176
I600
sg177
(lp1052
(dp1053
g821
Vnew
p1054
sg817
Vown
p1055
sS'parameters'
p1056
I1
sg819
Vbuildings
p1057
sasg811
I-1
ssVKampfingenieur
p1058
(dp1059
g234
I0
sg235
Vupgrade
p1060
sg237
I70
sg238
(lp1061
(dp1062
g219
g220
sg221
g222
sg223
g224
sg225
I0
sg226
I0
sg227
(dp1063
Vshield
p1064
I8
sVattack_min
p1065
I10
sg238
(dp1066
V3 Granaten
p1067
(dp1068
g234
I0
sg235
Vequipment
p1069
sg237
I70
sg238
(lp1070
(dp1071
g219
Vself
p1072
sg221
Vid
p1073
sg223
Vchange
p1074
sg225
F0.4
sg226
I3
sg227
(dp1075
g238
(dp1076
VGranate
p1077
(dp1078
g234
I10
sg235
Vstandard
p1079
sg237
I0
sg238
(lp1080
(dp1081
g219
Venemy
p1082
sg221
Vid
p1083
sg223
Vchange
p1084
sg225
F0.4
sg226
I3
sg227
(dp1085
Vlife
p1086
I-15
ssasg269
I3
ssssasg269
I-1
sssVmax_shield
p1087
I8
sVattack_max
p1088
I15
sVelite
p1089
I1
ssasg269
I1
sssg902
I0
sssI2
(dp1090
g683
(dp1091
g685
(dp1092
I400
(lp1093
(dp1094
g915
g916
sg917
g918
sg919
g920
sg921
I0
sg922
I0
sg923
(dp1095
Vdelay_walk
p1096
I-2
sVlife
p1097
I15
sVelite
p1098
I1
sVshield
p1099
I8
ssasI800
(lp1100
(dp1101
g915
g916
sg917
g918
sg919
g920
sg921
I0
sg922
I0
sg923
(dp1102
Vlife
p1103
I15
sVmax_life
p1104
I10
sVelite
p1105
I1
sVshield
p1106
I10
sVdelay_shoot
p1107
I-2
ssassg708
(dp1108
I500
(lp1109
(dp1110
S'target'
p1111
S'self'
p1112
sS'level'
p1113
S'id'
p1114
sS'type'
p1115
S'change'
p1116
sS'random'
p1117
I0
sS'num_units'
p1118
I0
sS'changes'
p1119
(dp1120
Vshield_factor
p1121
F0.1
sVattack_min
p1122
I10
sVelite
p1123
I1
sS'actions'
p1124
(dp1125
VSchusstraining
p1126
(dp1127
S'delay'
p1128
I0
sS'category'
p1129
Vupgrade
p1130
sS'price'
p1131
I40
sg1124
(lp1132
(dp1133
g279
g280
sg281
g282
sg283
g284
sg285
I0
sg286
I0
sg287
(dp1134
Vshoot_dist
p1135
I1
sVelite
p1136
I1
sVdelay_shoot
p1137
I-4
ssasS'num_uses'
p1138
I1
ssssasssg737
(dp1139
g739
I18
sg740
I80
sg741
I5
sg742
VMG-Soldat
p1140
sg744
I10
sg745
I20
sg746
I20
sg747
I2
sg748
Vsoldier
p1141
sg750
I80
sg56
I20
sg751
I60
sg752
I7
sg753
I175
sg754
I0
sg755
F0.55
sg756
(dp1142
Vbessere Munition
p1143
(dp1144
g234
I0
sg235
Vupgrade
p1145
sg237
I40
sg238
(lp1146
(dp1147
g219
g220
sg221
g222
sg223
g224
sg225
I0
sg226
I0
sg227
(dp1148
Vattack_min
p1149
I10
sVattack_max
p1150
I5
sg238
(dp1151
VPanzerbrecher
p1152
(dp1153
g234
I0
sg235
Vupgrade
p1154
sg237
I60
sg238
(lp1155
(dp1156
g219
g220
sg221
g222
sg223
g224
sg225
I0
sg226
I0
sg227
(dp1157
Vshield_factor
p1158
F0.1
sVelite
p1159
I1
sVattack_max
p1160
I15
sg238
(dp1161
VBazooka
p1162
(dp1163
g234
I0
sg235
Vupgrade
p1164
sg237
I80
sg238
(lp1165
(dp1166
g219
g220
sg221
g222
sg223
g224
sg225
I0
sg226
I0
sg227
(dp1167
Vshield_factor
p1168
F0.15
sVattack_min
p1169
I15
sVelite
p1170
I1
sVnum_enemies
p1171
I2
sVattack_max
p1172
I10
ssasg269
I1
ssssasg269
I1
ssssasg269
I1
ssVKampfausbildung
p1173
(dp1174
S'delay'
p1175
I0
sS'category'
p1176
Vupgrade
p1177
sS'price'
p1178
I40
sS'actions'
p1179
(lp1180
(dp1181
S'target'
p1182
S'self'
p1183
sS'level'
p1184
S'id'
p1185
sS'type'
p1186
S'change'
p1187
sS'random'
p1188
I0
sS'num_units'
p1189
I0
sS'changes'
p1190
(dp1191
Vshoot_dist
p1192
I1
sVelite
p1193
I1
sVdelay_shoot
p1194
I-5
ssasS'num_uses'
p1195
I1
ssVSpeed I
p1196
(dp1197
g488
I0
sg489
Vupgrade
p1198
sg491
I40
sg492
(lp1199
(dp1200
g219
g220
sg221
g222
sg223
g224
sg225
I0
sg226
I0
sg227
(dp1201
Vdelay_walk
p1202
I-5
sVelite
p1203
I1
sg238
(dp1204
VSpeed II
p1205
(dp1206
g234
I0
sg235
Vupgrade
p1207
sg237
I50
sg238
(lp1208
(dp1209
g219
g220
sg221
g222
sg223
g224
sg225
I0
sg226
I0
sg227
(dp1210
Vdelay_walk
p1211
I-5
sVwalk_dist
p1212
I1
sVelite
p1213
I1
sVdelay_shoot
p1214
I-3
ssasg269
I1
ssssasg498
I1
sssg902
I20
sssI3
(dp1215
g683
(dp1216
g685
(dp1217
I400
(lp1218
(dp1219
g915
g916
sg917
g918
sg919
g920
sg921
I0
sg922
I0
sg923
(dp1220
Vmax_shield
p1221
I8
sVattack_min
p1222
I5
sVelite
p1223
I1
sVshield
p1224
I8
ssasI800
(lp1225
(dp1226
g915
g916
sg917
g918
sg919
g920
sg921
I0
sg922
I0
sg923
(dp1227
Vshield_factor
p1228
F0.1
sVattack_min
p1229
I8
sVelite
p1230
I1
sVattack_max
p1231
I14
ssassg708
(dp1232
I0
(lp1233
sI250
(lp1234
(dp1235
g397
g398
sg399
g400
sg401
g402
sg403
I0
sg404
I0
sg405
(dp1236
Vattack_min
p1237
I8
sVelite
p1238
I1
sVattack_max
p1239
I8
sg394
(dp1240
Vschneller laden
p1241
(dp1242
g390
I0
sg391
Vupgrade
p1243
sg393
I40
sg394
(lp1244
(dp1245
g397
g398
sg399
g400
sg401
g402
sg403
I0
sg404
I0
sg405
(dp1246
Vdelay_shoot
p1247
I-4
ssasg409
I1
ssssasssg737
(dp1248
g739
I15
sg740
I50
sg741
I5
sg742
VSniper
p1249
sg744
I1
sg745
I40
sg746
I20
sg747
I3
sg748
Vsoldier
p1250
sg750
I50
sg56
I0
sg751
I60
sg752
I10
sg753
I200
sg754
I0
sg755
F0.6
sg756
(dp1251
VSchutzweste
p1252
(dp1253
g181
I0
sg182
Vupgrade
p1254
sg184
I30
sg185
(lp1255
(dp1256
g188
g189
sg190
g191
sg192
g193
sg194
I0
sg195
I0
sg196
(dp1257
Vmax_shield
p1258
I10
sVshield
p1259
I10
ssasg209
I1
ssVSpeed I (ziehen und laden)
p1260
(dp1261
g181
I0
sg182
Vupgrade
p1262
sg184
I30
sg185
(lp1263
(dp1264
g188
g189
sg190
g191
sg192
g193
sg194
I0
sg195
I0
sg196
(dp1265
Vwalk_dist
p1266
I1
sVelite
p1267
I1
sVdelay_shoot
p1268
I-2
ssasg209
I1
ssVhoehere Schussweite
p1269
(dp1270
S'delay'
p1271
I0
sS'category'
p1272
Vupgrade
p1273
sS'price'
p1274
I40
sS'actions'
p1275
(lp1276
(dp1277
S'target'
p1278
S'self'
p1279
sS'level'
p1280
S'id'
p1281
sS'type'
p1282
S'change'
p1283
sS'random'
p1284
I0
sS'num_units'
p1285
I0
sS'changes'
p1286
(dp1287
Vshoot_dist
p1288
I1
sVelite
p1289
I1
sg1275
(dp1290
VDistanzexperte
p1291
(dp1292
g1271
I0
sg1272
Vupgrade
p1293
sg1274
I50
sg1275
(lp1294
(dp1295
g1278
g1279
sg1280
g1281
sg1282
g1283
sg1284
I0
sg1285
I0
sg1286
(dp1296
Vshoot_dist
p1297
I1
sVattack_min
p1298
I8
sVelite
p1299
I1
sg1275
(dp1300
ssasS'num_uses'
p1301
I1
ssssasg1301
I1
ssVPraezision
p1302
(dp1303
S'delay'
p1304
I0
sS'category'
p1305
Vupgrade
p1306
sS'price'
p1307
I30
sg533
(lp1308
(dp1309
S'target'
p1310
S'self'
p1311
sS'level'
p1312
S'id'
p1313
sS'type'
p1314
S'change'
p1315
sS'random'
p1316
I0
sS'num_units'
p1317
I0
sS'changes'
p1318
(dp1319
Vattack_min
p1320
I15
sVelite
p1321
I1
sVattack_max
p1322
I8
sg394
(dp1323
Vbessere Munition
p1324
(dp1325
g390
I0
sg391
Vupgrade
p1326
sg393
I40
sg394
(lp1327
(dp1328
g397
g398
sg399
g400
sg401
g402
sg403
I0
sg404
I0
sg405
(dp1329
Vshield_factor
p1330
F0.05
sVattack_min
p1331
I15
sVelite
p1332
I1
sVattack_max
p1333
I10
sg394
(dp1334
VSchildzerstoerer
p1335
(dp1336
g390
I0
sg391
Vupgrade
p1337
sg393
I30
sg394
(lp1338
(dp1339
g397
g398
sg399
g400
sg401
g402
sg403
I0
sg404
I0
sg405
(dp1340
Vshield_factor
p1341
F0.2
sVelite
p1342
I1
sVattack_max
p1343
I8
sg276
(dp1344
VDoppelschuss
p1345
(dp1346
g272
I0
sg273
Vupgrade
p1347
sg275
I0
sg276
(lp1348
sg298
I0
ssssasg409
I1
ssssasg409
I1
ssVDoppelschuss
p1349
(dp1350
g1271
I0
sg1272
Vupgrade
p1351
sg1274
I60
sg1275
(lp1352
(dp1353
g1278
g1279
sg1280
g1281
sg1282
g1283
sg1284
I0
sg1285
I0
sg1286
(dp1354
Vnum_enemies
p1355
I1
sVattack_min
p1356
I8
sVelite
p1357
I1
sVattack_max
p1358
I15
sg276
(dp1359
VSchildzerstoerer
p1360
(dp1361
g272
I0
sg273
Vupgrade
p1362
sg275
I0
sg276
(lp1363
sg298
I0
ssssasg1301
I1
ssssasS'num_uses'
p1364
I1
sssg902
I0
sssI4
(dp1365
g683
(dp1366
g685
(dp1367
I0
(lp1368
sI600
(lp1369
(dp1370
g915
g916
sg917
g918
sg919
g920
sg921
I0
sg922
I0
sg923
(dp1371
Vdelay_walk
p1372
I-3
sVelite
p1373
I1
sVshield
p1374
I30
sVmax_shield
p1375
I15
ssasI300
(lp1376
(dp1377
g915
g916
sg917
g918
sg919
g920
sg921
I0
sg922
I0
sg923
(dp1378
Vdelay_walk
p1379
I-2
sVelite
p1380
I1
sVshield
p1381
I15
sVdelay_shoot
p1382
I-3
ssassg708
(dp1383
I500
(lp1384
(dp1385
g188
g189
sg190
g191
sg192
g193
sg194
I0
sg195
I0
sg196
(dp1386
Vshield_factor
p1387
F0.07
sVattack_min
p1388
I10
sVelite
p1389
I1
sVattack_max
p1390
I5
ssasssg737
(dp1391
g739
I18
sg740
I100
sg741
I5
sg742
VPanzer
p1392
sg744
I8
sg745
I50
sg746
I18
sg747
I4
sg748
Vvehicle
p1393
sg750
I100
sg56
I100
sg751
I90
sg752
I7
sg753
I400
sg754
I0
sg755
F0.6
sg756
(dp1394
VShottpanzerung
p1395
(dp1396
g611
I0
sg612
Vupgrade
p1397
sg614
I70
sg615
(lp1398
(dp1399
g203
g618
sg207
g619
sg201
g620
sg621
I0
sg622
I0
sg623
(dp1400
Vdelay_walk
p1401
I3
sVelite
p1402
I1
sVshield
p1403
I50
sg615
(dp1404
VVerbundpanzerung
p1405
(dp1406
g611
I0
sg612
Vupgrade
p1407
sg614
I40
sg615
(lp1408
(dp1409
g203
g618
sg207
g619
sg201
g620
sg621
I0
sg622
I0
sg623
(dp1410
Vdelay_walk
p1411
I-3
sVlife
p1412
I10
sVelite
p1413
I1
sVshield
p1414
I25
sVmax_shield
p1415
I15
ssasg640
I1
sssVmax_shield
p1416
I30
ssasg640
I1
ssVHartkernmunition
p1417
(dp1418
S'delay'
p1419
I0
sS'category'
p1420
Vupgrade
p1421
sS'price'
p1422
I30
sS'actions'
p1423
(lp1424
(dp1425
S'target'
p1426
Vself
p1427
sS'level'
p1428
Vid
p1429
sS'type'
p1430
Vchange
p1431
sS'random'
p1432
F0.0
sS'num_units'
p1433
I0
sS'changes'
p1434
(dp1435
Vshield_factor
p1436
F0.15
sVelite
p1437
I1
sVattack_max
p1438
I8
sS'actions'
p1439
(dp1440
VUrangeschoss
p1441
(dp1442
S'delay'
p1443
I0
sS'category'
p1444
Vupgrade
p1445
sS'price'
p1446
I80
sg1439
(lp1447
(dp1448
S'target'
p1449
Vself
p1450
sS'level'
p1451
Vid
p1452
sS'type'
p1453
Vchange
p1454
sS'random'
p1455
F0.0
sS'num_units'
p1456
I0
sS'changes'
p1457
(dp1458
Vshield_factor
p1459
F0.2
sVattack_min
p1460
I15
sVelite
p1461
I1
sVattack_max
p1462
I15
ssasS'num_uses'
p1463
I1
ssssasS'num_uses'
p1464
I1
ssVSpeed I
p1465
(dp1466
g488
I0
sg489
Vupgrade
p1467
sg491
I20
sg492
(lp1468
(dp1469
g1426
S'self'
p1470
sg1428
S'id'
p1471
sg1430
S'change'
p1472
sg1432
I0
sg1433
I0
sg1434
(dp1473
Vdelay_walk
p1474
I-2
sg1423
(dp1475
VSpeed II
p1476
(dp1477
g1419
I0
sg1420
Vupgrade
p1478
sg1422
I40
sg1423
(lp1479
(dp1480
g1426
g1470
sg1428
g1471
sg1430
g1472
sg1432
I0
sg1433
I0
sg1434
(dp1481
Vdelay_walk
p1482
I-2
sVwalk_dist
p1483
I1
sVelite
p1484
I1
ssasg1464
I1
ssssasg498
I1
sssg902
I100
sssI5
(dp1485
g683
(dp1486
g685
(dp1487
I0
(lp1488
sI500
(lp1489
(dp1490
S'target'
p1491
S'self'
p1492
sS'level'
p1493
S'id'
p1494
sS'type'
p1495
S'change'
p1496
sS'random'
p1497
I0
sS'num_units'
p1498
I0
sS'changes'
p1499
(dp1500
Vmax_life
p1501
I10
sVelite
p1502
I1
ssassg708
(dp1503
I0
(lp1504
sssg737
(dp1505
g739
I15
sg740
I100
sg741
I5
sg742
VArtillerie
p1506
sg744
I10
sg745
I0
sg746
I35
sg747
I5
sg748
Vvehicle
p1507
sg750
I100
sg56
I70
sg751
I0
sg752
I10
sg753
I600
sg754
I0
sg755
F0.5
sg756
(dp1508
Vgroessere Schussweite I
p1509
(dp1510
g1419
I0
sg1420
Vupgrade
p1511
sg1422
I40
sg1423
(lp1512
(dp1513
g1426
g1470
sg1428
g1471
sg1430
g1472
sg1432
I0
sg1433
I0
sg1434
(dp1514
Vshoot_dist
p1515
I1
sVelite
p1516
I1
sg469
(dp1517
Vgroessere Schussweite II
p1518
(dp1519
g465
I0
sg466
Vupgrade
p1520
sg468
I50
sg469
(lp1521
(dp1522
g472
g473
sg474
g475
sg476
g477
sg478
I0
sg479
I0
sg480
(dp1523
Vshoot_dist
p1524
I1
sVelite
p1525
I1
ssasg485
I1
ssVStreuung erhoehen
p1526
(dp1527
g465
I0
sg466
Vupgrade
p1528
sg468
I40
sg469
(lp1529
(dp1530
g472
g473
sg474
g475
sg476
g477
sg478
I0
sg479
I0
sg480
(dp1531
Vnum_enemies
p1532
I5
sVattack_min
p1533
I15
sVelite
p1534
I1
ssasg485
I1
ssssasg1464
I1
ssVAufbauen
p1535
(dp1536
S'delay'
p1537
I25
sS'category'
p1538
Vstandard
p1539
sS'price'
p1540
I0
sS'actions'
p1541
(lp1542
(dp1543
S'target'
p1544
S'self'
p1545
sS'level'
p1546
S'id'
p1547
sS'type'
p1548
S'change'
p1549
sS'random'
p1550
I0
sS'num_units'
p1551
I0
sS'changes'
p1552
(dp1553
Vwalk_dist
p1554
I-5
sVattack_min
p1555
I100
sVattack_max
p1556
I200
sg1541
(dp1557
VTransport
p1558
(dp1559
S'delay'
p1560
I30
sS'category'
p1561
Vequipment
p1562
sS'price'
p1563
I0
sS'actions'
p1564
(lp1565
(dp1566
S'target'
p1567
S'self'
p1568
sS'level'
p1569
S'id'
p1570
sS'type'
p1571
S'change'
p1572
sS'random'
p1573
I0
sS'num_units'
p1574
I0
sS'changes'
p1575
(dp1576
Vwalk_dist
p1577
I5
sVattack_min
p1578
I-100
sVattack_max
p1579
I-200
sg1564
(dp1580
VAufbau
p1581
(dp1582
g1560
I25
sg1561
Vstandard
p1583
sg1563
I0
sg1564
(lp1584
(dp1585
g1567
g1568
sg1569
g1570
sg1571
g1572
sg1573
I0
sg1574
I0
sg1575
(dp1586
Vattack_min
p1587
I100
sVattack_max
p1588
I200
sVwalk_dist
p1589
I-5
ssasS'num_uses'
p1590
I1
ssssasg1590
I-1
ssssasS'num_uses'
p1591
I1
ssVSpeed I
p1592
(dp1593
g488
I0
sg489
Vupgrade
p1594
sg491
I80
sg492
(lp1595
(dp1596
g472
g473
sg474
g475
sg476
g477
sg478
I0
sg479
I0
sg480
(dp1597
Vdelay_walk
p1598
I-4
sVelite
p1599
I1
sVdelay_shoot
p1600
I-8
sg469
(dp1601
VSpeed II
p1602
(dp1603
g465
I0
sg466
Vupgrade
p1604
sg468
I50
sg469
(lp1605
(dp1606
g472
g473
sg474
g475
sg476
g477
sg478
I0
sg479
I0
sg480
(dp1607
Vdelay_walk
p1608
I-2
sVelite
p1609
I1
sVdelay_shoot
p1610
I-8
ssasg485
I1
ssssasg498
I1
sssg902
I70
sssI6
(dp1611
S'elite_parameters'
p1612
(dp1613
S'ticks'
p1614
(dp1615
I800
(lp1616
(dp1617
g915
g916
sg917
g918
sg919
g920
sg921
I0
sg922
I0
sg923
(dp1618
Vmax_shield
p1619
I8
sVlife
p1620
I100
sVmax_life
p1621
I10
sVelite
p1622
I1
sVshield
p1623
I15
ssasI400
(lp1624
(dp1625
g915
g916
sg917
g918
sg919
g920
sg921
I0
sg922
I0
sg923
(dp1626
Vlife
p1627
I100
sVmax_life
p1628
I8
sVelite
p1629
I1
ssassS'damage'
p1630
(dp1631
I0
(lp1632
sssS'basic_parameters'
p1633
(dp1634
S'delay_walk'
p1635
I15
sS'life'
p1636
I50
sS'walk_dist'
p1637
I5
sS'name'
p1638
VArzt
p1639
sS'num_enemies'
p1640
I3
sS'attack_min'
p1641
I0
sS'delay_shoot'
p1642
I15
sg1114
I6
sS'unit_type'
p1643
Vsoldier
p1644
sS'max_life'
p1645
I50
sg56
I10
sS'attack_max'
p1646
I0
sS'shoot_dist'
p1647
I5
sg1131
I120
sS'elite'
p1648
I0
sS'shield_factor'
p1649
F0.4
sg1124
(dp1650
VSchmerzmittel
p1651
(dp1652
g390
I0
sg391
Vshop
p1653
sg393
I35
sg394
(lp1654
(dp1655
g659
Vself
p1656
sg661
Vid
p1657
sg663
Vchange
p1658
sg665
F0.15
sg666
I0
sg667
(dp1659
Vlife
p1660
I30
ssasg409
I-1
ssVOperation 120
p1661
(dp1662
g652
I12
sg653
Vstandard
p1663
sg655
I130
sg656
(lp1664
(dp1665
g659
Vown
p1666
sg661
Vid
p1667
sg663
Vchange
p1668
sg665
F0.2
sg666
I13
sg667
(dp1669
Vlife
p1670
I10
ssasg679
I-1
ssVVerband 50
p1671
(dp1672
g652
I8
sg653
Vstandard
p1673
sg655
I60
sg656
(lp1674
(dp1675
g659
Vown
p1676
sg661
Vid
p1677
sg663
Vchange
p1678
sg665
F0.2
sg666
I5
sg667
(dp1679
Vlife
p1680
I10
ssasg679
I-1
ssVSpeed I
p1681
(dp1682
g390
I0
sg391
Vupgrade
p1683
sg393
I30
sg394
(lp1684
(dp1685
g397
g398
sg399
g400
sg401
g402
sg403
I0
sg404
I0
sg405
(dp1686
Vwalk_dist
p1687
I1
sVelite
p1688
I1
sg394
(dp1689
VSpeed II
p1690
(dp1691
g390
I0
sg391
Vupgrade
p1692
sg393
I50
sg394
(lp1693
(dp1694
g397
g398
sg399
g400
sg401
g402
sg403
I0
sg404
I0
sg405
(dp1695
Vdelay_walk
p1696
I-4
sVwalk_dist
p1697
I2
sVelite
p1698
I1
ssasg409
I1
ssssasg409
I1
sssS'shield'
p1699
I10
sssI7
(dp1700
S'elite_parameters'
p1701
(dp1702
S'ticks'
p1703
(dp1704
I0
(lp1705
ssS'damage'
p1706
(dp1707
I0
(lp1708
sssS'basic_parameters'
p1709
(dp1710
S'delay_walk'
p1711
I15
sS'life'
p1712
I60
sS'walk_dist'
p1713
I5
sS'name'
p1714
VCyborg
p1715
sS'num_enemies'
p1716
I5
sS'attack_min'
p1717
I20
sS'delay_shoot'
p1718
I15
sg191
I7
sS'unit_type'
p1719
Vsoldier
p1720
sS'max_life'
p1721
I60
sg56
I30
sS'attack_max'
p1722
I35
sS'shoot_dist'
p1723
I7
sg184
I130
sS'elite'
p1724
I0
sS'shield_factor'
p1725
F0.6
sg185
(dp1726
VBleimantel
p1727
(dp1728
g301
I0
sg302
Vupgrade
p1729
sg304
I25
sg305
(lp1730
(dp1731
g308
g309
sg310
g311
sg312
g313
sg314
I0
sg315
I0
sg316
(dp1732
Vdelay_walk
p1733
I4
sVelite
p1734
I1
sVshield
p1735
I10
sg305
(dp1736
VTitanmantel
p1737
(dp1738
g301
I0
sg302
Vupgrade
p1739
sg304
I35
sg305
(lp1740
(dp1741
g308
g309
sg310
g311
sg312
g313
sg314
I0
sg315
I0
sg316
(dp1742
Vdelay_walk
p1743
I-4
sVelite
p1744
I1
sVshield
p1745
I15
sVmax_shield
p1746
I10
ssasg321
I1
sssVmax_shield
p1747
I10
ssasg321
I1
ssVLaser Zielvorrichtung
p1748
(dp1749
g301
I0
sg302
Vupgrade
p1750
sg304
I50
sg305
(lp1751
(dp1752
g308
g309
sg310
g311
sg312
g313
sg314
I0
sg315
I0
sg316
(dp1753
Vshoot_dist
p1754
I1
sVattack_min
p1755
I5
sVelite
p1756
I1
sVdelay_shoot
p1757
I-2
ssasg321
I1
ssVneue Munition
p1758
(dp1759
g301
I0
sg302
Vupgrade
p1760
sg304
I25
sg305
(lp1761
(dp1762
g308
g309
sg310
g311
sg312
g313
sg314
I0
sg315
I0
sg316
(dp1763
Vattack_min
p1764
I5
sVelite
p1765
I1
sVattack_max
p1766
I8
sg305
(dp1767
VShotgun
p1768
(dp1769
g301
I0
sg302
Vupgrade
p1770
sg304
I50
sg305
(lp1771
(dp1772
g308
g309
sg310
g311
sg312
g313
sg314
I0
sg315
I0
sg316
(dp1773
Vnum_enemies
p1774
I3
sVattack_min
p1775
I-10
sg305
(dp1776
VLasergun
p1777
(dp1778
g301
I0
sg302
Vupgrade
p1779
sg304
I0
sg305
(lp1780
sg321
I0
sssVattack_max
p1781
I20
sVelite
p1782
I1
sVshield_factor
p1783
F0.1
ssasg321
I1
ssVLasergun
p1784
(dp1785
g301
I0
sg302
Vupgrade
p1786
sg304
I50
sg305
(lp1787
(dp1788
g308
g309
sg310
g311
sg312
g313
sg314
I0
sg315
I0
sg316
(dp1789
Vnum_enemies
p1790
I-2
sVattack_min
p1791
I17
sg305
(dp1792
VShotgun
p1793
(dp1794
g301
I0
sg302
Vupgrade
p1795
sg304
I0
sg305
(lp1796
sg321
I0
sssVattack_max
p1797
I8
sVelite
p1798
I1
sVshield_factor
p1799
F0.25
ssasg321
I1
ssssasg321
I1
ssVJet-Pack (beim naechsten Zug 11 ziehen)
p1800
(dp1801
g301
I10
sg302
Vupgrade
p1802
sg304
I40
sg305
(lp1803
sg321
I-1
ssVGelenke oelen
p1804
(dp1805
S'delay'
p1806
I0
sS'category'
p1807
Vupgrade
p1808
sS'price'
p1809
I30
sS'actions'
p1810
(lp1811
(dp1812
g308
g309
sg310
g311
sg312
g313
sg314
I0
sg315
I0
sg316
(dp1813
Vdelay_walk
p1814
I-2
sVwalk_dist
p1815
I1
sVelite
p1816
I1
sg305
(dp1817
Vleichte Ruestung
p1818
(dp1819
g301
I0
sg302
Vupgrade
p1820
sg304
I40
sg305
(lp1821
(dp1822
g308
g309
sg310
g311
sg312
g313
sg314
I0
sg315
I0
sg316
(dp1823
Vdelay_walk
p1824
I-3
sVwalk_dist
p1825
I1
sVelite
p1826
I1
ssasg321
I1
ssssasS'num_uses'
p1827
I1
sssS'shield'
p1828
I30
sssI8
(dp1829
S'elite_parameters'
p1830
(dp1831
S'ticks'
p1832
(dp1833
I0
(lp1834
sI250
(lp1835
(dp1836
S'target'
p1837
S'self'
p1838
sS'level'
p1839
S'id'
p1840
sS'type'
p1841
S'change'
p1842
sS'random'
p1843
I0
sS'num_units'
p1844
I0
sS'changes'
p1845
(dp1846
Velite
p1847
I1
sVlife
p1848
I20
sVmax_shield
p1849
I5
sVshield
p1850
I10
ssasI500
(lp1851
(dp1852
g1837
g1838
sg1839
g1840
sg1841
g1842
sg1843
I0
sg1844
I0
sg1845
(dp1853
Velite
p1854
I1
sVlife
p1855
I100
sVmax_life
p1856
I10
sVmax_shield
p1857
I5
sVshield
p1858
I20
ssassS'damage'
p1859
(dp1860
I0
(lp1861
sI500
(lp1862
sssS'basic_parameters'
p1863
(dp1864
S'delay_walk'
p1865
I15
sS'life'
p1866
I70
sS'walk_dist'
p1867
I5
sS'name'
p1868
VKommandant
p1869
sS'num_enemies'
p1870
I4
sS'attack_min'
p1871
I20
sS'delay_shoot'
p1872
I15
sg99
I8
sS'unit_type'
p1873
Vsoldier
p1874
sS'max_life'
p1875
I70
sg56
I10
sS'attack_max'
p1876
I30
sS'shoot_dist'
p1877
I6
sg1002
I250
sS'elite'
p1878
I4
sS'shield_factor'
p1879
F0.6
sg1003
(dp1880
VLuftunterstuetzung
p1881
(dp1882
g999
I40
sg1000
Vstandard
p1883
sg1002
I150
sg1003
(lp1884
(dp1885
g96
Venemy
p1886
sg98
Vid
p1887
sg100
Vchange
p1888
sg102
F0.6
sg103
I7
sg104
(dp1889
Vlife
p1890
I-17
sVshield
p1891
I-12
ssasg1010
I-1
ssVDrill Sergent
p1892
(dp1893
S'delay'
p1894
I0
sS'category'
p1895
Vstandard
p1896
sS'price'
p1897
I100
sS'actions'
p1898
(lp1899
(dp1900
S'target'
p1901
Vown
p1902
sS'level'
p1903
Vid
p1904
sS'type'
p1905
Vchange
p1906
sS'random'
p1907
F0.0
sS'num_units'
p1908
I0
sS'changes'
p1909
(dp1910
Vattack_min
p1911
I10
sVattack_max
p1912
I8
sVdelay_shoot
p1913
I-3
ssasS'num_uses'
p1914
I-1
ssVFallschirmspringer
p1915
(dp1916
g866
I20
sg867
Vstandard
p1917
sg869
I450
sg852
(lp1918
(dp1919
g72
Vnew
p1920
sg68
Vown
p1921
sg83
(lp1922
I0
aI0
aI2
asg70
Vgroups
p1923
sasg871
I-1
ssVSpionageausbildung
p1924
(dp1925
S'delay'
p1926
I0
sS'category'
p1927
Vupgrade
p1928
sS'price'
p1929
I170
sS'actions'
p1930
(lp1931
(dp1932
S'target'
p1933
S'self'
p1934
sS'level'
p1935
S'id'
p1936
sS'type'
p1937
S'change'
p1938
sS'random'
p1939
I0
sS'num_units'
p1940
I0
sS'changes'
p1941
(dp1942
Velite
p1943
I1
sg1930
(dp1944
VWirtschafts-Spionage
p1945
(dp1946
g1926
I40
sg1927
Vupgrade
p1947
sg1929
I80
sg1930
(lp1948
(dp1949
g1933
g1934
sg1935
g1936
sg1937
g1938
sg1939
I0
sg1940
I0
sg1941
(dp1950
g1930
(dp1951
VDieb
p1952
(dp1953
g1926
I60
sg1927
Vequipment
p1954
sg1929
I200
sg1930
(lp1955
(dp1956
g1937
Vchange
p1957
sg1939
F0.5
sg1941
(dp1958
Vaccount
p1959
I-150
ssg1933
Venemy
p1960
sg1935
Vplayer
p1961
sa(dp1962
g1937
Vchange
p1963
sg1939
F0.7
sg1941
(dp1964
Vaccount
p1965
I80
ssg1933
Vown
p1966
sg1935
Vplayer
p1967
sasS'num_uses'
p1968
I-1
ssssasg1968
I-1
ssVID-Spionage
p1969
(dp1970
g1926
I40
sg1927
Vequipment
p1971
sg1929
I70
sg1930
(lp1972
sg1968
I-1
ssssasg1968
I1
sssS'shield'
p1973
I10
sssI9
(dp1974
S'elite_parameters'
p1975
(dp1976
S'ticks'
p1977
(dp1978
I0
(lp1979
ssS'damage'
p1980
(dp1981
I0
(lp1982
sssS'basic_parameters'
p1983
(dp1984
S'delay_walk'
p1985
I0
sS'life'
p1986
I100
sS'walk_dist'
p1987
I0
sS'name'
p1988
VFlak
p1989
sS'num_enemies'
p1990
I3
sS'attack_min'
p1991
I60
sS'delay_shoot'
p1992
I15
sS'id'
p1993
I9
sS'unit_type'
p1994
Vvehicle
p1995
sS'max_life'
p1996
I100
sg56
I0
sS'attack_max'
p1997
I80
sS'shoot_dist'
p1998
I5
sS'price'
p1999
I200
sS'elite'
p2000
I0
sS'shield_factor'
p2001
F0.6
sS'actions'
p2002
(dp2003
Vnix
p2004
(dp2005
S'delay'
p2006
I0
sS'category'
p2007
S'upgrade'
p2008
sg1999
I0
sg2002
(lp2009
sS'num_uses'
p2010
I-1
sssS'shield'
p2011
I0
sssI10
(dp2012
S'elite_parameters'
p2013
(dp2014
S'ticks'
p2015
(dp2016
I0
(lp2017
(dp2018
g915
g916
sg917
g918
sg919
g920
sg921
I0
sg922
I0
sg923
(dp2019
sasI400
(lp2020
(dp2021
g915
g916
sg917
g918
sg919
g920
sg921
I0
sg922
I0
sg923
(dp2022
Vdelay_walk
p2023
I-2
sVelite
p2024
I1
ssassS'damage'
p2025
(dp2026
I0
(lp2027
sssS'basic_parameters'
p2028
(dp2029
S'delay_walk'
p2030
I11
sS'life'
p2031
I40
sS'walk_dist'
p2032
I6
sS'name'
p2033
VMotorrad
p2034
sS'num_enemies'
p2035
I4
sS'attack_min'
p2036
I5
sS'delay_shoot'
p2037
I15
sS'id'
p2038
I10
sS'unit_type'
p2039
Vvehicle
p2040
sS'max_life'
p2041
I40
sg56
I0
sS'attack_max'
p2042
I10
sS'shoot_dist'
p2043
I5
sg1897
I40
sS'elite'
p2044
I0
sS'shield_factor'
p2045
F0.45
sg1898
(dp2046
VSchutzweste
p2047
(dp2048
g1894
I0
sg1895
Vupgrade
p2049
sg1897
I30
sg1898
(lp2050
(dp2051
g1901
S'self'
p2052
sg1903
g2038
sg1905
S'change'
p2053
sg1907
I0
sg1908
I0
sg1909
(dp2054
Vmax_shield
p2055
I8
sVshield
p2056
I8
ssasg1914
I1
ssVneue Reifen
p2057
(dp2058
g1894
I0
sg1895
Vupgrade
p2059
sg1897
I20
sg1898
(lp2060
(dp2061
g1901
g2052
sg1903
g2038
sg1905
g2053
sg1907
I0
sg1908
I0
sg1909
(dp2062
Vwalk_dist
p2063
I1
sVelite
p2064
I1
sg1898
(dp2065
Vleichteres Motorrad
p2066
(dp2067
g1894
I0
sg1895
Vupgrade
p2068
sg1897
I30
sg1898
(lp2069
(dp2070
g1901
g2052
sg1903
g2038
sg1905
g2053
sg1907
I0
sg1908
I0
sg1909
(dp2071
Vdelay_walk
p2072
I-1
sVwalk_dist
p2073
I1
sVelite
p2074
I1
ssasg1914
I1
ssssasg1914
I1
ssVDrive by lernen
p2075
(dp2076
g1894
I0
sg1895
Vupgrade
p2077
sg1897
I30
sg1898
(lp2078
(dp2079
g1901
g2052
sg1903
g2038
sg1905
g2053
sg1907
I0
sg1908
I0
sg1909
(dp2080
Vattack_min
p2081
I7
sVelite
p2082
I1
sVattack_max
p2083
I5
ssasg1914
I1
sssS'shield'
p2084
I0
sssI11
(dp2085
S'elite_parameters'
p2086
(dp2087
S'ticks'
p2088
(dp2089
I0
(lp2090
ssS'damage'
p2091
(dp2092
I0
(lp2093
sssS'basic_parameters'
p2094
(dp2095
S'delay_walk'
p2096
I18
sS'life'
p2097
I80
sS'walk_dist'
p2098
I5
sS'name'
p2099
VJavelin
p2100
sS'num_enemies'
p2101
I2
sS'attack_min'
p2102
I8
sS'delay_shoot'
p2103
I20
sg1185
I11
sS'unit_type'
p2104
Vsoldier
p2105
sS'max_life'
p2106
I80
sg56
I50
sS'attack_max'
p2107
I12
sS'shoot_dist'
p2108
I9
sg1178
I200
sS'elite'
p2109
I0
sS'shield_factor'
p2110
F2.5
sg1179
(dp2111
Vschneller ziehen
p2112
(dp2113
g272
I0
sg273
Vupgrade
p2114
sg275
I30
sg276
(lp2115
(dp2116
g279
g280
sg281
g282
sg283
g284
sg285
I0
sg286
I0
sg287
(dp2117
Vdelay_walk
p2118
I-3
sVelite
p2119
I1
ssasg298
I1
ssVschneller laden
p2120
(dp2121
S'delay'
p2122
I0
sS'category'
p2123
Vupgrade
p2124
sS'price'
p2125
I40
sS'actions'
p2126
(lp2127
(dp2128
S'target'
p2129
S'self'
p2130
sS'level'
p2131
S'id'
p2132
sS'type'
p2133
S'change'
p2134
sS'random'
p2135
I0
sS'num_units'
p2136
I0
sS'changes'
p2137
(dp2138
Velite
p2139
I1
sVdelay_shoot
p2140
I-4
ssasS'num_uses'
p2141
I1
ssVgroessere Sprengkraft
p2142
(dp2143
g2122
I0
sg2123
Vupgrade
p2144
sg2125
I30
sg2126
(lp2145
(dp2146
g2129
g2130
sg2131
g2132
sg2133
g2134
sg2135
I0
sg2136
I0
sg2137
(dp2147
Vnum_enemies
p2148
I2
sVattack_min
p2149
I2
sVelite
p2150
I1
sVattack_max
p2151
I3
sg2126
(dp2152
Vneue Sprengtechnologie
p2153
(dp2154
g2122
I0
sg2123
Vupgrade
p2155
sg2125
I40
sg2126
(lp2156
(dp2157
g2129
g2130
sg2131
g2132
sg2133
g2134
sg2135
I0
sg2136
I0
sg2137
(dp2158
Vshield_factor
p2159
F0.4
sVelite
p2160
I1
ssasg2141
I1
ssssasg2141
I1
sssS'shield'
p2161
I50
sssI12
(dp2162
S'elite_parameters'
p2163
(dp2164
S'ticks'
p2165
(dp2166
I0
(lp2167
ssS'damage'
p2168
(dp2169
I0
(lp2170
sssS'basic_parameters'
p2171
(dp2172
S'delay_walk'
p2173
I0
sS'life'
p2174
I80
sS'walk_dist'
p2175
I0
sS'name'
p2176
VMG-Nest mit Panzerabwehr
p2177
sS'shield_factor'
p2178
F2.5
sS'num_enemies'
p2179
I4
sS'attack_min'
p2180
I10
sS'delay_shoot'
p2181
I15
sS'unit_type'
p2182
Vsoldier
p2183
sS'max_life'
p2184
I80
sS'max_shield'
p2185
I20
sS'attack_max'
p2186
I15
sS'shoot_dist'
p2187
I7
sS'price'
p2188
I210
sS'elite'
p2189
I0
sS'id'
p2190
I12
sS'actions'
p2191
(dp2192
V
p2193
(dp2194
S'delay'
p2195
I0
sS'category'
p2196
S'upgrade'
p2197
sS'price'
p2198
I0
sS'actions'
p2199
(lp2200
sS'num_uses'
p2201
I-1
sssS'shield'
p2202
I20
ssssS'engine_parameters'
p2203
(dp2204
S'constant_per_tick'
p2205
F4.0
sS'all_sectors'
p2206
(dp2207
I1
(dp2208
S'victory'
p2209
I0
sS'weight'
p2210
F1.0
ssI2
(dp2211
g2209
I0
sg2210
F1.0
ssI3
(dp2212
g2209
I0
sg2210
F1.0
ssI4
(dp2213
g2209
I0
sg2210
F1.0
ssI5
(dp2214
g2209
I2
sg2210
F1.0
ssI6
(dp2215
g2209
I0
sg2210
F1.0
ssI7
(dp2216
g2209
I0
sg2210
F1.0
ssI8
(dp2217
g2209
I0
sg2210
F1.0
ssI9
(dp2218
g2209
I1
sg2210
F1.0
ssI10
(dp2219
g2209
I1
sg2210
F1.0
ssI11
(dp2220
g2209
I0
sg2210
F1.0
ssI12
(dp2221
g2209
I0
sg2210
F1.0
ssI13
(dp2222
g2209
I0
sg2210
F1.0
ssI14
(dp2223
g2209
I0
sg2210
F1.0
ssI15
(dp2224
g2209
I0
sg2210
F1.0
ssI16
(dp2225
g2209
I2
sg2210
F1.0
ssI17
(dp2226
g2209
I0
sg2210
F1.0
ssI18
(dp2227
g2209
I0
sg2210
F1.0
sssS'delay_damage'
p2228
F0.5
sS'start_account'
p2229
F200.0
sS'extra_shoot_dist'
p2230
F2.0
sS'per_sector_per_tick'
p2231
F1.0
sS'take_over_factor'
p2232
F1.3
sS'tick_duration'
p2233
F11.0
sS'protection_effect'
p2234
F0.4
sS'protection_in'
p2235
F18.0
sS'sector_takeover'
p2236
F100.0
sS'protection_out'
p2237
F10.0
sS'max_victory_diff'
p2238
F350.0
ssS'transport_parameters'
p2239
(dp2240
I0
(dp2241
g154
(dp2242
g156
(dp2243
I0
(lp2244
ssg159
(dp2245
I0
(lp2246
sssg162
(dp2247
S'delay_walk'
p2248
I15
sg164
I100
sS'walk_dist'
p2249
I10
sg167
I10
sg168
VTransporter
p2250
sS'transports'
p2251
Vsoldier
p2252
sg329
F0.4
sg172
I0
sg173
I25
sg174
I20
sg175
I10
sg176
I200
sg322
I100
sg56
I25
sg323
I8
sg177
(dp2253
VPanzerung
p2254
(dp2255
S'delay'
p2256
I0
sS'category'
p2257
Vupgrade
p2258
sS'price'
p2259
I50
sS'actions'
p2260
(lp2261
(dp2262
g689
g690
sg691
g692
sg693
g694
sg695
I0
sg696
I0
sg697
(dp2263
Vdelay_walk
p2264
I3
sVelite
p2265
I1
sVshield
p2266
I40
sg2260
(dp2267
VCasspir
p2268
(dp2269
g2256
I0
sg2257
Vupgrade
p2270
sg2259
I70
sg2260
(lp2271
(dp2272
g689
g690
sg691
g692
sg693
g694
sg695
I0
sg696
I0
sg697
(dp2273
Vdelay_walk
p2274
I-5
sVelite
p2275
I1
sVshield
p2276
I50
sVmax_shield
p2277
I40
ssasS'num_uses'
p2278
I1
sssVmax_shield
p2279
I30
ssasg2278
I1
ssVMG
p2280
(dp2281
g2256
I0
sg2257
Vupgrade
p2282
sg2259
I40
sg2260
(lp2283
(dp2284
g689
Vself
p2285
sg691
Vid
p2286
sg693
Vchange
p2287
sg695
F0.0
sg696
I0
sg697
(dp2288
Vattack_min
p2289
I20
sVelite
p2290
I1
sVattack_max
p2291
I40
sg2260
(dp2292
VKampfmaschine
p2293
(dp2294
g2256
I0
sg2257
Vupgrade
p2295
sg2259
I80
sg2260
(lp2296
(dp2297
g689
g690
sg691
g692
sg693
g694
sg695
I0
sg696
I0
sg697
(dp2298
Vshield_factor
p2299
F0.2
sVattack_min
p2300
I30
sVelite
p2301
I1
sVattack_max
p2302
I30
ssasg2278
I1
ssssasg2278
I1
ssVSpeed up (laden & ziehen)
p2303
(dp2304
g611
I0
sg612
Vupgrade
p2305
sg614
I30
sg615
(lp2306
(dp2307
g203
g618
sg207
g619
sg201
g620
sg621
I0
sg622
I0
sg623
(dp2308
Vdelay_walk
p2309
I-2
sVelite
p2310
I1
sVdelay_shoot
p2311
I-2
sg615
(dp2312
VSpeed up (nur ziehen)
p2313
(dp2314
g611
I0
sg612
Vupgrade
p2315
sg614
I40
sg615
(lp2316
(dp2317
g203
g618
sg207
g619
sg201
g620
sg621
I0
sg622
I0
sg623
(dp2318
Vdelay_walk
p2319
I-2
sVwalk_dist
p2320
I1
sVelite
p2321
I1
ssasg640
I1
ssssasg640
I1
ssVmehr Platz I
p2322
(dp2323
g2256
I0
sg2257
Vupgrade
p2324
sg2259
I30
sg2260
(lp2325
(dp2326
g689
g690
sg691
g692
sg693
g694
sg695
I0
sg696
I0
sg697
(dp2327
Velite
p2328
I1
sVcapacity
p2329
I5
sg2260
(dp2330
Vmehr Platz II
p2331
(dp2332
g2256
I0
sg2257
Vupgrade
p2333
sg2259
I40
sg2260
(lp2334
(dp2335
g689
g690
sg691
g692
sg693
g694
sg695
I0
sg696
I0
sg697
(dp2336
Velite
p2337
I1
sVcapacity
p2338
I8
ssasg2278
I1
ssssasg2278
I1
sssg327
I5
sg328
I0
sg326
I0
sg330
I4
sg331
I0
sssI1
(dp2339
g333
(dp2340
g335
(dp2341
I0
(lp2342
ssg338
(dp2343
I0
(lp2344
sssg341
(dp2345
S'delay_walk'
p2346
I15
sg343
I100
sS'walk_dist'
p2347
I10
sg346
I10
sg347
VHelikopter
p2348
sS'transports'
p2349
Vsoldier
p2350
sg426
F0.4
sg351
I0
sg352
I50
sg353
I20
sg354
I10
sg355
I200
sg356
I100
sg56
I50
sg428
I8
sg357
(dp2351
VBombe abwerfen
p2352
(dp2353
g361
I15
sg362
Vstandard
p2354
sg355
I80
sg357
(lp2355
(dp2356
g366
Venemy
p2357
sg368
Vid
p2358
sg370
Vchange
p2359
sg372
F0.3
sg373
I7
sg374
(dp2360
Vlife
p2361
I-6
sg357
(dp2362
ssasg377
I-1
ssVschneller fliegen
p2363
(dp2364
S'delay'
p2365
I0
sS'category'
p2366
Vupgrade
p2367
sS'price'
p2368
I30
sS'actions'
p2369
(lp2370
(dp2371
S'target'
p2372
S'self'
p2373
sS'level'
p2374
S'id'
p2375
sS'type'
p2376
S'change'
p2377
sS'random'
p2378
I0
sS'num_units'
p2379
I0
sS'changes'
p2380
(dp2381
Vdelay_walk
p2382
I-3
sg2369
(dp2383
Vsuper Speed
p2384
(dp2385
g2365
I0
sg2366
Vupgrade
p2386
sg2368
I50
sg2369
(lp2387
(dp2388
g2372
g2373
sg2374
g2375
sg2376
g2377
sg2378
I0
sg2379
I0
sg2380
(dp2389
Vdelay_walk
p2390
I-2
sVwalk_dist
p2391
I1
ssasS'num_uses'
p2392
I1
ssssasg2392
I1
sssg424
I6
sg425
I0
sg423
I1
sg427
I4
sg420
I0
sssI2
(dp2393
S'elite_parameters'
p2394
(dp2395
S'ticks'
p2396
(dp2397
I0
(lp2398
ssS'damage'
p2399
(dp2400
I0
(lp2401
sssS'basic_parameters'
p2402
(dp2403
S'delay_walk'
p2404
I18
sS'life'
p2405
I150
sS'walk_dist'
p2406
I9
sS'capacity'
p2407
I3
sS'name'
p2408
VFahrzeug Transporter
p2409
sS'elite'
p2410
I0
sS'shield_factor'
p2411
F0.4
sS'attack_min'
p2412
I0
sS'delay_shoot'
p2413
I15
sg452
I2
sg445
I300
sS'max_life'
p2414
I150
sg56
I20
sS'delay_out'
p2415
I15
sS'attack_max'
p2416
I0
sS'shoot_dist'
p2417
I5
sS'num_enemies'
p2418
I4
sS'transports'
p2419
Vvehicle
p2420
sS'delay_in'
p2421
I25
sg446
(dp2422
Vmehr Platz
p2423
(dp2424
g442
I0
sg443
Vupgrade
p2425
sg445
I50
sg446
(lp2426
(dp2427
g449
g450
sg451
g452
sg453
g454
sg455
I0
sg456
I0
sg457
(dp2428
Vcapacity
p2429
I2
ssasg462
I1
sssS'shield'
p2430
I20
ssssS'card_parameters'
p2431
(dp2432
I200
(lp2433
(dp2434
S'num_cards'
p2435
I10
sS'description'
p2436
VEine Gruppe kann in einen Helikopter verladen werden und deshalb 10 pro Runde ziehen.
p2437
sg2260
(lp2438
(dp2439
S'target'
p2440
S'self'
p2441
sS'level'
p2442
S'id'
p2443
sS'type'
p2444
S'change'
p2445
sS'random'
p2446
F0.0
sS'num_units'
p2447
I0
sS'changes'
p2448
(dp2449
sasS'title'
p2450
VHelitransport
p2451
sa(dp2452
S'title'
p2453
VGiftgas
p2454
sS'num_cards'
p2455
I7
sg1275
(lp2456
(dp2457
S'target'
p2458
S'enemy'
p2459
sS'level'
p2460
S'id'
p2461
sS'type'
p2462
S'change'
p2463
sS'random'
p2464
F0.3
sS'num_units'
p2465
S'all'
p2466
sS'changes'
p2467
(dp2468
Vlife
p2469
I-8
ssa(dp2470
g2458
Vown
p2471
sg2460
Vid
p2472
sg2462
Vchange
p2473
sg2464
F0.3
sg2465
Vall
p2474
sg2467
(dp2475
Vlife
p2476
I-2
ssasS'description'
p2477
VAlle Einheiten werden verwundet. Gegnerische staerker als eigene
p2478
sa(dp2479
S'description'
p2480
VDescription
p2481
sS'num_cards'
p2482
I12
sS'actions'
p2483
(lp2484
(dp2485
g2458
Vown
p2486
sg2460
Vid
p2487
sg2462
Vchange
p2488
sg2464
F0.2
sg2465
I6
sg2467
(dp2489
Vlife
p2490
I20
ssasS'title'
p2491
VFeldapotheke
p2492
sa(dp2493
S'num_cards'
p2494
I1
sS'description'
p2495
VDescription
p2496
sS'actions'
p2497
(lp2498
(dp2499
g2444
S'new'
p2500
sg2440
S'own'
p2501
sS'parameters'
p2502
I0
sg2442
S'buildings'
p2503
sa(dp2504
g2440
S'self'
p2505
sg2442
S'id'
p2506
sg2444
S'change'
p2507
sg2446
F0.0
sg2447
I0
sg2448
(dp2508
Vlife
p2509
I0
ssasS'title'
p2510
VUnnamed Card
p2511
sa(dp2512
S'description'
p2513
Veine eigene Gruppe kann geheilt werden
p2514
sS'num_cards'
p2515
I4
sS'actions'
p2516
(lp2517
(dp2518
S'target'
p2519
S'self'
p2520
sS'level'
p2521
S'id'
p2522
sS'type'
p2523
S'change'
p2524
sS'random'
p2525
I0
sS'num_units'
p2526
S''
p2527
sS'changes'
p2528
(dp2529
Vlife
p2530
I0
ssasS'title'
p2531
Vmittleres Heilen
p2532
sass.