(dp0
S'building_parameters'
p1
(dp2
I0
(dp3
S'elite_parameters'
p4
(dp5
S'ticks'
p6
(dp7
I0
(lp8
ssS'damage'
p9
(dp10
I0
(lp11
sssS'basic_parameters'
p12
(dp13
S'life'
p14
I800
sS'shop_transporter'
p15
(lp16
sS'capacity'
p17
I25
sS'name'
p18
VHauptquartier
p19
sS'shield_factor'
p20
F0.4
sS'elite'
p21
I0
sS'shop_units'
p22
(lp23
I1
aI10
asS'attack_min'
p24
I0
sS'delay_shoot'
p25
I15
sS'id'
p26
I0
sS'price'
p27
I1000
sS'num_enemies'
p28
I4
sS'max_shield'
p29
I100
sS'max_life'
p30
I800
sS'attack_max'
p31
I0
sS'enter'
p32
Vsoldier
p33
sS'shoot_dist'
p34
I6
sS'delay_out'
p35
I10
sS'delay_in'
p36
I20
sS'actions'
p37
(dp38
VArzneistudium +
p39
(dp40
S'delay'
p41
I0
sS'category'
p42
Vupgrade
p43
sS'price'
p44
I400
sS'actions'
p45
(lp46
(dp47
S'target'
p48
S'self'
p49
sS'level'
p50
S'id'
p51
sS'type'
p52
S'change'
p53
sS'random'
p54
I0
sS'num_units'
p55
I0
sS'changes'
p56
(dp57
Vshop_units
p58
(lp59
I6
assa(dp60
g52
Vnew
p61
sg48
Vown
p62
sS'parameters'
p63
(lp64
I6
asg50
Vgroups
p65
sasS'num_uses'
p66
I1
ssVKommandant +
p67
(dp68
S'delay'
p69
I0
sS'category'
p70
Vupgrade
p71
sS'price'
p72
I500
sS'actions'
p73
(lp74
(dp75
S'target'
p76
S'self'
p77
sS'level'
p78
S'id'
p79
sS'type'
p80
S'change'
p81
sS'random'
p82
I0
sS'num_units'
p83
I0
sS'changes'
p84
(dp85
Vshop_units
p86
(lp87
I8
assa(dp88
S'type'
p89
Vnew
p90
sS'target'
p91
Vown
p92
sS'parameters'
p93
(lp94
I8
asS'level'
p95
Vgroups
p96
sasS'num_uses'
p97
I1
ssVHelikopter-Plattform +
p98
(dp99
S'delay'
p100
I0
sS'category'
p101
Vupgrade
p102
sS'price'
p103
I400
sS'actions'
p104
(lp105
(dp106
S'target'
p107
S'self'
p108
sS'level'
p109
S'id'
p110
sS'type'
p111
S'change'
p112
sS'random'
p113
I0
sS'num_units'
p114
I0
sS'changes'
p115
(dp116
Vshop_transporter
p117
(lp118
I1
assa(dp119
g111
Vnew
p120
sg107
Vown
p121
sS'parameters'
p122
I1
sg109
Vtransporter
p123
sasS'num_uses'
p124
I1
sssS'shield'
p125
I100
sssI1
(dp126
S'elite_parameters'
p127
(dp128
S'ticks'
p129
(dp130
I500
(lp131
ssS'damage'
p132
(dp133
I0
(lp134
sssS'basic_parameters'
p135
(dp136
S'life'
p137
I600
sS'shop_transporter'
p138
(lp139
sS'capacity'
p140
I15
sS'name'
p141
VKaserne
p142
sS'shop_units'
p143
(lp144
I0
asS'attack_min'
p145
I0
sS'shield'
p146
I80
sS'delay_shoot'
p147
I15
sS'delay_in'
p148
I20
sS'price'
p149
I600
sS'num_enemies'
p150
I4
sS'max_life'
p151
I600
sg29
I80
sS'delay_out'
p152
I10
sS'enter'
p153
Vsoldier
p154
sS'id'
p155
I1
sS'shoot_dist'
p156
I6
sS'elite'
p157
I0
sS'shield_factor'
p158
F0.4
sS'actions'
p159
(dp160
VSniper +
p161
(dp162
S'delay'
p163
I0
sS'category'
p164
Vupgrade
p165
sS'price'
p166
I200
sS'actions'
p167
(lp168
(dp169
S'target'
p170
S'self'
p171
sS'level'
p172
S'id'
p173
sS'type'
p174
S'change'
p175
sS'random'
p176
I0
sS'num_units'
p177
I0
sS'changes'
p178
(dp179
Vshop_units
p180
(lp181
I3
assa(dp182
S'type'
p183
Vnew
p184
sS'target'
p185
Vown
p186
sS'parameters'
p187
(lp188
I3
asS'level'
p189
Vgroups
p190
sasS'num_uses'
p191
I1
ssVVerteidigung
p192
(dp193
S'delay'
p194
I20
sS'category'
p195
Vupgrade
p196
sS'price'
p197
I100
sS'actions'
p198
(lp199
(dp200
S'target'
p201
S'self'
p202
sS'level'
p203
S'id'
p204
sS'type'
p205
S'change'
p206
sS'random'
p207
I0
sS'num_units'
p208
I0
sS'changes'
p209
(dp210
Vattack_min
p211
I20
sVattack_max
p212
I40
ssasS'num_uses'
p213
I1
ssVMG-Soldat
p214
(dp215
S'delay'
p216
I0
sS'category'
p217
Vupgrade
p218
sS'price'
p219
I250
sS'actions'
p220
(lp221
(dp222
g201
g202
sg203
g204
sg205
g206
sg207
I0
sg208
I0
sg209
(dp223
Vshop_units
p224
(lp225
I2
asVelite
p226
I1
sS'actions'
p227
(dp228
VCyborg
p229
(dp230
S'delay'
p231
I0
sS'category'
p232
Vupgrade
p233
sS'price'
p234
I200
sg227
(lp235
(dp236
S'target'
p237
S'self'
p238
sS'level'
p239
S'id'
p240
sS'type'
p241
S'change'
p242
sS'random'
p243
I0
sS'num_units'
p244
I0
sS'changes'
p245
(dp246
Vshop_units
p247
(lp248
I7
asVelite
p249
I1
ssasS'num_uses'
p250
I1
ssssasS'num_uses'
p251
I1
ssVJavelin +
p252
(dp253
S'delay'
p254
I0
sS'category'
p255
Vupgrade
p256
sS'price'
p257
I400
sS'actions'
p258
(lp259
(dp260
S'target'
p261
S'self'
p262
sS'level'
p263
S'id'
p264
sS'type'
p265
S'change'
p266
sS'random'
p267
I0
sS'num_units'
p268
I0
sS'changes'
p269
(dp270
Vshop_units
p271
(lp272
I11
asVelite
p273
I1
ssa(dp274
g265
Vnew
p275
sg261
Vown
p276
sS'parameters'
p277
(lp278
I11
asg263
Vgroups
p279
sasS'num_uses'
p280
I1
sssS'attack_max'
p281
I0
sssI2
(dp282
S'elite_parameters'
p283
(dp284
S'ticks'
p285
(dp286
I0
(lp287
ssS'damage'
p288
(dp289
I0
(lp290
sssS'basic_parameters'
p291
(dp292
S'life'
p293
I500
sS'shop_transporter'
p294
(lp295
sS'capacity'
p296
I10
sS'name'
p297
VLazarett
p298
sS'shop_units'
p299
(lp300
sS'attack_min'
p301
I0
sS'shield'
p302
I75
sS'delay_shoot'
p303
I15
sS'delay_in'
p304
I20
sS'price'
p305
I500
sS'num_enemies'
p306
I4
sg29
I75
sS'max_life'
p307
I500
sS'attack_max'
p308
I0
sS'enter'
p309
Vsoldier
p310
sS'id'
p311
I2
sS'shoot_dist'
p312
I6
sS'elite'
p313
I0
sS'shield_factor'
p314
F0.4
sS'actions'
p315
(dp316
V10x heilen
p317
(dp318
S'delay'
p319
I50
sS'category'
p320
Vstandard
p321
sg305
I400
sg315
(lp322
(dp323
S'target'
p324
Vown
p325
sS'level'
p326
Vid
p327
sS'type'
p328
Vchange
p329
sS'random'
p330
F0.0
sS'num_units'
p331
I0
sS'changes'
p332
(dp333
Vlife
p334
I50
ssasS'num_uses'
p335
I-1
ssV1x heilen
p336
(dp337
g319
I40
sg320
Vstandard
p338
sg305
I70
sg315
(lp339
(dp340
g324
Vown
p341
sg326
Vid
p342
sg328
Vchange
p343
sg330
F0.0
sg331
I1
sg332
(dp344
Vlife
p345
I50
ssasg335
I-1
ssVArztneistudium
p346
(dp347
S'delay'
p348
I0
sS'category'
p349
Vupgrade
p350
sS'price'
p351
I200
sS'actions'
p352
(lp353
(dp354
S'target'
p355
S'self'
p356
sS'level'
p357
S'id'
p358
sS'type'
p359
S'change'
p360
sS'random'
p361
I0
sS'num_units'
p362
I0
sS'changes'
p363
(dp364
Vshop_units
p365
(lp366
I6
assasS'num_uses'
p367
I1
ssV5x heilen
p368
(dp369
g319
I50
sg320
Vstandard
p370
sg305
I200
sg315
(lp371
(dp372
g324
Vown
p373
sg326
Vid
p374
sg328
Vchange
p375
sg330
F0.0
sg331
I5
sg332
(dp376
Vlife
p377
I50
ssasg335
I-1
sssS'delay_out'
p378
I10
sssI3
(dp379
g283
(dp380
g285
(dp381
I0
(lp382
ssg288
(dp383
I0
(lp384
sssg291
(dp385
g293
I500
sg294
(lp386
I0
asg296
I10
sg297
VWerkstatt
p387
sg299
(lp388
I4
asg301
I0
sg302
I80
sg303
I15
sg304
I20
sg305
I700
sg306
I4
sg29
I80
sg307
I500
sg308
I0
sg309
Vvehicle
p389
sg311
I3
sg312
I6
sg313
I0
sg314
F0.4
sg315
(dp390
VFahrzeug Transporter
p391
(dp392
S'delay'
p393
I0
sS'category'
p394
Vupgrade
p395
sS'price'
p396
I150
sS'actions'
p397
(lp398
(dp399
S'target'
p400
S'self'
p401
sS'level'
p402
S'id'
p403
sS'type'
p404
S'change'
p405
sS'random'
p406
I0
sS'num_units'
p407
I0
sS'changes'
p408
(dp409
Vshop_transporter
p410
(lp411
I2
asVelite
p412
I1
ssasS'num_uses'
p413
I1
ssVArtillerie
p414
(dp415
S'delay'
p416
I0
sS'category'
p417
Vupgrade
p418
sS'price'
p419
I300
sS'actions'
p420
(lp421
(dp422
S'target'
p423
S'self'
p424
sS'level'
p425
S'id'
p426
sS'type'
p427
S'change'
p428
sS'random'
p429
I0
sS'num_units'
p430
I0
sS'changes'
p431
(dp432
Vshop_units
p433
(lp434
I5
asVelite
p435
I1
ssasS'num_uses'
p436
I1
ssVVerteidigung
p437
(dp438
S'delay'
p439
I0
sS'category'
p440
Vupgrade
p441
sS'price'
p442
I50
sS'actions'
p443
(lp444
(dp445
g355
g356
sg357
g358
sg359
g360
sg361
I0
sg362
I0
sg363
(dp446
Vattack_min
p447
I30
sVattack_max
p448
I50
ssasS'num_uses'
p449
I1
sssg378
I10
sssI4
(dp450
g283
(dp451
g285
(dp452
I0
(lp453
ssg288
(dp454
I0
(lp455
sssg291
(dp456
g293
I600
sg294
(lp457
sg296
I15
sg297
VFlughafen
p458
sg299
(lp459
sg301
I0
sg302
I50
sg303
I15
sg304
I20
sg305
I400
sg306
I4
sg29
I50
sg307
I600
sg308
I0
sg309
Vvehicle
p460
sg311
I4
sg312
I6
sg313
I0
sg314
F0.4
sg315
(dp461
VFlak & Verteidigung
p462
(dp463
g393
I0
sg394
Vupgrade
p464
sg396
I100
sg397
(lp465
(dp466
g400
g401
sg402
g403
sg404
g405
sg406
I0
sg407
I0
sg408
(dp467
Vshop_units
p468
(lp469
I9
asVattack_min
p470
I30
sVelite
p471
I1
sVattack_max
p472
I50
ssasg413
I1
ssVHelikopter Landeplattform
p473
(dp474
g319
I0
sg320
Vupgrade
p475
sg305
I400
sg315
(lp476
(dp477
g324
S'self'
p478
sg326
g311
sg328
S'change'
p479
sg330
I0
sg331
I0
sg332
(dp480
Vshop_transporter
p481
(lp482
I1
asVelite
p483
I1
sS'actions'
p484
(dp485
VFallschirmspringer
p486
(dp487
S'delay'
p488
I0
sS'category'
p489
S'upgrade'
p490
sS'price'
p491
I0
sS'actions'
p492
(lp493
sS'num_uses'
p494
I-1
ssssasg335
I1
sssg378
I10
sssI5
(dp495
S'elite_parameters'
p496
(dp497
S'ticks'
p498
(dp499
I0
(lp500
ssS'damage'
p501
(dp502
I0
(lp503
sssS'basic_parameters'
p504
(dp505
S'shop_units'
p506
(lp507
sS'life'
p508
I100
sS'shop_transporter'
p509
(lp510
sS'capacity'
p511
I0
sS'name'
p512
Vnix
p513
sS'shield_factor'
p514
F0.6
sS'attack_min'
p515
I60
sS'delay_shoot'
p516
I15
sS'id'
p517
I5
sS'price'
p518
I200
sS'max_life'
p519
I100
sg29
I0
sS'delay_out'
p520
I0
sS'attack_max'
p521
I80
sS'enter'
p522
Vsoldier
p523
sS'shoot_dist'
p524
I5
sS'actions'
p525
(dp526
Vnix
p527
(dp528
S'delay'
p529
I0
sS'category'
p530
S'upgrade'
p531
sg518
I0
sg525
(lp532
sS'num_uses'
p533
I-1
sssS'elite'
p534
I0
sS'delay_in'
p535
I0
sS'num_enemies'
p536
I3
sS'shield'
p537
I0
sssI6
(dp538
g496
(dp539
g498
(dp540
I0
(lp541
ssg501
(dp542
I0
(lp543
sssg504
(dp544
g506
(lp545
sg508
I80
sg509
(lp546
sg511
I5
sg512
VMG-Nest
p547
sg514
F0.5
sg515
I20
sg516
I15
sg517
I6
sg518
I100
sg519
I80
sg29
I20
sg520
I10
sg521
I35
sg522
Vsoldier
p548
sg524
I6
sg525
(dp549
Vzweites Geschuetz
p550
(dp551
S'delay'
p552
I0
sS'category'
p553
Vupgrade
p554
sS'price'
p555
I50
sS'actions'
p556
(lp557
sS'num_uses'
p558
I1
ssVPanzerabwehr
p559
(dp560
S'delay'
p561
I20
sS'category'
p562
Vupgrade
p563
sS'price'
p564
I150
sS'actions'
p565
(lp566
(dp567
g185
S'self'
p568
sg189
S'id'
p569
sg183
S'change'
p570
sS'random'
p571
I0
sS'num_units'
p572
I0
sS'changes'
p573
(dp574
Vshoot_dist
p575
I1
sVattack_min
p576
I-10
sVelite
p577
I2
sVshield_factor
p578
F2.0
sVattack_max
p579
I-20
ssasS'num_uses'
p580
I1
ssVBetonguss
p581
(dp582
g561
I0
sg562
Vupgrade
p583
sg564
I50
sg565
(lp584
(dp585
g185
g568
sg189
g569
sg183
g570
sg571
I0
sg572
I0
sg573
(dp586
Velite
p587
I1
sVmax_shield
p588
I15
sVshield
p589
I30
ssasg580
I1
sssg534
I0
sg535
I15
sg536
I4
sg537
I20
ssssS'unit_parameters'
p590
(dp591
I0
(dp592
S'elite_parameters'
p593
(dp594
S'ticks'
p595
(dp596
I1000
(lp597
(dp598
S'target'
p599
S'self'
p600
sS'level'
p601
S'id'
p602
sS'type'
p603
S'change'
p604
sS'random'
p605
I0
sS'num_units'
p606
I0
sS'changes'
p607
(dp608
Vlife
p609
I10
sVelite
p610
I1
sVshield
p611
I15
ssasI500
(lp612
(dp613
g599
g600
sg601
g602
sg603
g604
sg605
I0
sg606
I0
sg607
(dp614
Vlife
p615
I10
sVelite
p616
I1
sVshield
p617
I15
ssassS'damage'
p618
(dp619
I1000
(lp620
(dp621
S'target'
p622
S'self'
p623
sS'level'
p624
S'id'
p625
sS'type'
p626
S'change'
p627
sS'random'
p628
I0
sS'num_units'
p629
I0
sS'changes'
p630
(dp631
Vshoot_dist
p632
I2
sVmax_life
p633
I8
sVelite
p634
I1
sVattack_max
p635
I11
ssasI500
(lp636
(dp637
g599
g600
sg601
g602
sg603
g604
sg605
I0
sg606
I0
sg607
(dp638
Velite
p639
I1
sVattack_max
p640
I8
ssasI750
(lp641
(dp642
g622
g623
sg624
g625
sg626
g627
sg628
I0
sg629
I0
sg630
(dp643
Vattack_min
p644
I8
sVelite
p645
I1
sVattack_max
p646
I10
ssasssS'basic_parameters'
p647
(dp648
S'delay_walk'
p649
I15
sS'life'
p650
I50
sS'walk_dist'
p651
I5
sS'name'
p652
VSoldat
p653
sS'num_enemies'
p654
I4
sS'attack_min'
p655
I10
sS'delay_shoot'
p656
I15
sS'id'
p657
I0
sS'unit_type'
p658
Vsoldier
p659
sS'max_life'
p660
I50
sg29
I0
sS'attack_max'
p661
I20
sS'shoot_dist'
p662
I6
sS'price'
p663
I70
sS'elite'
p664
I0
sS'shield_factor'
p665
F0.5
sS'actions'
p666
(dp667
Vneue Munition
p668
(dp669
S'delay'
p670
I0
sS'category'
p671
Vupgrade
p672
sg149
I20
sg159
(lp673
(dp674
S'target'
p675
S'self'
p676
sS'level'
p677
g155
sS'type'
p678
S'change'
p679
sS'random'
p680
I0
sS'num_units'
p681
I0
sS'changes'
p682
(dp683
Vattack_min
p684
I5
sVattack_max
p685
I5
sg159
(dp686
VSchnellfeuer
p687
(dp688
g670
I0
sg671
Vupgrade
p689
sg149
I30
sg159
(lp690
(dp691
g675
g676
sg677
g155
sg678
g679
sg680
I0
sg681
I0
sg682
(dp692
Vnum_enemies
p693
I2
sVattack_min
p694
I4
sVelite
p695
I1
sVattack_max
p696
I8
sS'actions'
p697
(dp698
VFlammenwerfer
p699
(dp700
g561
I0
sg562
Vupgrade
p701
sg564
I40
sg565
(lp702
(dp703
g185
g568
sg189
g569
sg183
g570
sg571
I0
sg572
I0
sg573
(dp704
Vnum_enemies
p705
I4
sVattack_min
p706
I10
sVelite
p707
I1
sVattack_max
p708
I10
ssasg580
I1
ssVSchildexperte
p709
(dp710
S'delay'
p711
I0
sS'category'
p712
Vupgrade
p713
sS'price'
p714
I0
sg697
(lp715
sS'num_uses'
p716
I0
ssssasS'num_uses'
p717
I1
ssVSchildexperte
p718
(dp719
g670
I0
sg671
Vupgrade
p720
sg149
I30
sg159
(lp721
(dp722
g675
g676
sg677
g155
sg678
g679
sg680
I0
sg681
I0
sg682
(dp723
Vshield_factor
p724
F0.1
sVattack_min
p725
I6
sVelite
p726
I1
sVattack_max
p727
I4
sg159
(dp728
VSchnellfeuer
p729
(dp730
S'delay'
p731
I0
sS'category'
p732
Vupgrade
p733
sS'price'
p734
I0
sS'actions'
p735
(lp736
sS'num_uses'
p737
I0
ssVPanzerbrecher
p738
(dp739
g561
I0
sg562
Vupgrade
p740
sg564
I40
sg565
(lp741
(dp742
g185
g568
sg189
g569
sg183
g570
sg571
I0
sg572
I0
sg573
(dp743
Vshield_factor
p744
F0.2
sVattack_min
p745
I4
sVelite
p746
I1
sVattack_max
p747
I10
ssasg580
I1
ssssasg717
I1
ssssasg717
I1
ssV3 HG
p748
(dp749
g670
I0
sg671
Vequipment
p750
sg149
I70
sg159
(lp751
(dp752
S'target'
p753
S'self'
p754
sS'level'
p755
S'id'
p756
sS'type'
p757
S'change'
p758
sS'random'
p759
I0
sS'num_units'
p760
I0
sS'changes'
p761
(dp762
S'actions'
p763
(dp764
VHG
p765
(dp766
S'delay'
p767
I15
sS'category'
p768
Vstandard
p769
sS'price'
p770
I0
sg763
(lp771
(dp772
g753
Venemy
p773
sg755
Vid
p774
sg757
Vchange
p775
sg759
F0.3
sg760
I3
sg761
(dp776
Vlife
p777
I-10
ssasS'num_uses'
p778
I3
ssssasg717
I-1
ssVSchutzweste
p779
(dp780
g319
I0
sg320
Vupgrade
p781
sg305
I30
sg315
(lp782
(dp783
g324
g478
sg326
g311
sg328
g479
sg330
I0
sg331
I0
sg332
(dp784
Vmax_shield
p785
I10
sVshield
p786
I10
sg315
(dp787
VSchild & wenig heilen
p788
(dp789
g319
I0
sg320
Vupgrade
p790
sg305
I50
sg315
(lp791
(dp792
g324
g478
sg326
g311
sg328
g479
sg330
I0
sg331
I0
sg332
(dp793
Vmax_shield
p794
I15
sVlife
p795
I15
sVmax_life
p796
I6
sVelite
p797
I1
sVshield
p798
I15
ssasg335
I1
ssssasg335
I1
ssVneue Schuhe
p799
(dp800
g670
I0
sg671
Vupgrade
p801
sg149
I20
sg159
(lp802
(dp803
g675
Vself
p804
sg677
Vid
p805
sg678
Vchange
p806
sg680
F0.0
sg681
F1.0
sg682
(dp807
Vdelay_walk
p808
I-2
sVwalk_dist
p809
I1
sVelite
p810
I1
sg159
(dp811
ssasg717
I1
sssS'shield'
p812
I0
sssI1
(dp813
g593
(dp814
g595
(dp815
I1000
(lp816
(dp817
g675
g676
sg677
g155
sg678
g679
sg680
I0
sg681
I0
sg682
(dp818
Velite
p819
I1
sVwalk_dist
p820
I1
sVmax_shield
p821
I10
sVshield
p822
I10
ssasI400
(lp823
(dp824
S'target'
p825
S'self'
p826
sS'level'
p827
S'id'
p828
sS'type'
p829
S'change'
p830
sS'random'
p831
I0
sS'num_units'
p832
I0
sS'changes'
p833
(dp834
Vdelay_walk
p835
I-2
sVlife
p836
I20
sVwalk_dist
p837
I1
sVelite
p838
I1
ssasI700
(lp839
(dp840
g825
g826
sg827
g828
sg829
g830
sg831
I0
sg832
I0
sg833
(dp841
Vmax_shield
p842
I8
sVlife
p843
I15
sVmax_life
p844
I10
sVelite
p845
I1
sVshield
p846
I13
ssassg618
(dp847
I0
(lp848
sssg647
(dp849
g649
I15
sg650
I40
sg651
I5
sg652
VIngenieur
p850
sg654
I1
sg655
I3
sg656
I15
sg657
I1
sg658
Vsoldier
p851
sg660
I40
sg29
I0
sg661
I5
sg662
I2
sg663
I100
sg664
I0
sg665
F0.4
sg666
(dp852
VBruecke bauen
p853
(dp854
S'delay'
p855
I40
sS'category'
p856
Vshop
p857
sS'price'
p858
I100
sS'actions'
p859
(lp860
(dp861
S'target'
p862
S'self'
p863
sS'level'
p864
S'id'
p865
sS'type'
p866
S'change'
p867
sS'random'
p868
I0
sS'num_units'
p869
I0
sS'changes'
p870
(dp871
Vlife
p872
I0
ssasS'num_uses'
p873
I-1
ssVMG-Nest
p874
(dp875
S'delay'
p876
I40
sS'category'
p877
Vshop
p878
sS'price'
p879
I70
sS'actions'
p880
(lp881
(dp882
g80
Vnew
p883
sg76
Vown
p884
sS'parameters'
p885
I6
sg78
Vbuildings
p886
sasS'num_uses'
p887
I-1
ssVWerkstatt
p888
(dp889
g348
I60
sg349
Vshop
p890
sg351
I700
sg352
(lp891
(dp892
g359
Vnew
p893
sg355
Vown
p894
sS'parameters'
p895
I3
sg357
Vbuildings
p896
sasg367
I-1
ssVFlugplatz
p897
(dp898
g439
I50
sg440
Vshop
p899
sg442
I400
sg443
(lp900
(dp901
S'type'
p902
Vnew
p903
sS'target'
p904
Vown
p905
sS'parameters'
p906
I4
sS'level'
p907
Vbuildings
p908
sasg449
I-1
ssVLazarett
p909
(dp910
g439
I50
sg440
Vshop
p911
sg442
I500
sg443
(lp912
(dp913
g902
Vnew
p914
sg904
Vown
p915
sg906
I2
sg907
Vbuildings
p916
sasg449
I-1
ssVKaserne
p917
(dp918
g670
I60
sg671
Vshop
p919
sg149
I600
sg159
(lp920
(dp921
g678
Vnew
p922
sg675
Vown
p923
sS'parameters'
p924
I1
sg677
Vbuildings
p925
sasg717
I-1
ssVKampfingenieur
p926
(dp927
g216
I0
sg217
Vupgrade
p928
sg219
I70
sg220
(lp929
(dp930
g201
g202
sg203
g204
sg205
g206
sg207
I0
sg208
I0
sg209
(dp931
Vshield
p932
I8
sVattack_min
p933
I10
sg220
(dp934
V3 Granaten
p935
(dp936
g216
I0
sg217
Vequipment
p937
sg219
I70
sg220
(lp938
(dp939
g201
Vself
p940
sg203
Vid
p941
sg205
Vchange
p942
sg207
F0.4
sg208
I3
sg209
(dp943
g220
(dp944
VGranate
p945
(dp946
g216
I10
sg217
Vstandard
p947
sg219
I0
sg220
(lp948
(dp949
g201
Venemy
p950
sg203
Vid
p951
sg205
Vchange
p952
sg207
F0.4
sg208
I3
sg209
(dp953
Vlife
p954
I-15
ssasg251
I3
ssssasg251
I-1
sssVmax_shield
p955
I8
sVattack_max
p956
I15
sVelite
p957
I1
ssasg251
I1
sssg812
I0
sssI2
(dp958
g593
(dp959
g595
(dp960
I400
(lp961
(dp962
g825
g826
sg827
g828
sg829
g830
sg831
I0
sg832
I0
sg833
(dp963
Vdelay_walk
p964
I-2
sVlife
p965
I15
sVelite
p966
I1
sVshield
p967
I8
ssasI800
(lp968
(dp969
g825
g826
sg827
g828
sg829
g830
sg831
I0
sg832
I0
sg833
(dp970
Vlife
p971
I15
sVmax_life
p972
I10
sVelite
p973
I1
sVshield
p974
I10
sVdelay_shoot
p975
I-2
ssassg618
(dp976
I500
(lp977
(dp978
S'target'
p979
S'self'
p980
sS'level'
p981
S'id'
p982
sS'type'
p983
S'change'
p984
sS'random'
p985
I0
sS'num_units'
p986
I0
sS'changes'
p987
(dp988
Vshield_factor
p989
F0.1
sVattack_min
p990
I10
sVelite
p991
I1
sS'actions'
p992
(dp993
VSchusstraining
p994
(dp995
S'delay'
p996
I0
sS'category'
p997
Vupgrade
p998
sS'price'
p999
I40
sg992
(lp1000
(dp1001
g261
g262
sg263
g264
sg265
g266
sg267
I0
sg268
I0
sg269
(dp1002
Vshoot_dist
p1003
I1
sVelite
p1004
I1
sVdelay_shoot
p1005
I-4
ssasS'num_uses'
p1006
I1
ssssasssg647
(dp1007
g649
I18
sg650
I80
sg651
I5
sg652
VMG-Soldat
p1008
sg654
I10
sg655
I20
sg656
I20
sg657
I2
sg658
Vsoldier
p1009
sg660
I80
sg29
I20
sg661
I60
sg662
I7
sg663
I175
sg664
I0
sg665
F0.55
sg666
(dp1010
Vbessere Munition
p1011
(dp1012
g216
I0
sg217
Vupgrade
p1013
sg219
I40
sg220
(lp1014
(dp1015
g201
g202
sg203
g204
sg205
g206
sg207
I0
sg208
I0
sg209
(dp1016
Vattack_min
p1017
I10
sVattack_max
p1018
I5
sg220
(dp1019
VPanzerbrecher
p1020
(dp1021
g216
I0
sg217
Vupgrade
p1022
sg219
I60
sg220
(lp1023
(dp1024
g201
g202
sg203
g204
sg205
g206
sg207
I0
sg208
I0
sg209
(dp1025
Vshield_factor
p1026
F0.1
sVelite
p1027
I1
sVattack_max
p1028
I15
sg220
(dp1029
VBazooka
p1030
(dp1031
g216
I0
sg217
Vupgrade
p1032
sg219
I80
sg220
(lp1033
(dp1034
g201
g202
sg203
g204
sg205
g206
sg207
I0
sg208
I0
sg209
(dp1035
Vshield_factor
p1036
F0.15
sVattack_min
p1037
I15
sVelite
p1038
I1
sVnum_enemies
p1039
I2
sVattack_max
p1040
I10
ssasg251
I1
ssssasg251
I1
ssssasg251
I1
ssVKampfausbildung
p1041
(dp1042
S'delay'
p1043
I0
sS'category'
p1044
Vupgrade
p1045
sS'price'
p1046
I40
sS'actions'
p1047
(lp1048
(dp1049
S'target'
p1050
S'self'
p1051
sS'level'
p1052
S'id'
p1053
sS'type'
p1054
S'change'
p1055
sS'random'
p1056
I0
sS'num_units'
p1057
I0
sS'changes'
p1058
(dp1059
Vshoot_dist
p1060
I1
sVelite
p1061
I1
sVdelay_shoot
p1062
I-5
ssasS'num_uses'
p1063
I1
ssVSpeed I
p1064
(dp1065
g439
I0
sg440
Vupgrade
p1066
sg442
I40
sg443
(lp1067
(dp1068
g201
g202
sg203
g204
sg205
g206
sg207
I0
sg208
I0
sg209
(dp1069
Vdelay_walk
p1070
I-5
sVelite
p1071
I1
sg220
(dp1072
VSpeed II
p1073
(dp1074
g216
I0
sg217
Vupgrade
p1075
sg219
I50
sg220
(lp1076
(dp1077
g201
g202
sg203
g204
sg205
g206
sg207
I0
sg208
I0
sg209
(dp1078
Vdelay_walk
p1079
I-5
sVwalk_dist
p1080
I1
sVelite
p1081
I1
sVdelay_shoot
p1082
I-3
ssasg251
I1
ssssasg449
I1
sssg812
I20
sssI3
(dp1083
g593
(dp1084
g595
(dp1085
I400
(lp1086
(dp1087
g825
g826
sg827
g828
sg829
g830
sg831
I0
sg832
I0
sg833
(dp1088
Vmax_shield
p1089
I8
sVattack_min
p1090
I5
sVelite
p1091
I1
sVshield
p1092
I8
ssasI800
(lp1093
(dp1094
g825
g826
sg827
g828
sg829
g830
sg831
I0
sg832
I0
sg833
(dp1095
Vshield_factor
p1096
F0.1
sVattack_min
p1097
I8
sVelite
p1098
I1
sVattack_max
p1099
I14
ssassg618
(dp1100
I0
(lp1101
sI250
(lp1102
(dp1103
g355
g356
sg357
g358
sg359
g360
sg361
I0
sg362
I0
sg363
(dp1104
Vattack_min
p1105
I8
sVelite
p1106
I1
sVattack_max
p1107
I8
sg352
(dp1108
Vschneller laden
p1109
(dp1110
g348
I0
sg349
Vupgrade
p1111
sg351
I40
sg352
(lp1112
(dp1113
g355
g356
sg357
g358
sg359
g360
sg361
I0
sg362
I0
sg363
(dp1114
Vdelay_shoot
p1115
I-4
ssasg367
I1
ssssasssg647
(dp1116
g649
I15
sg650
I50
sg651
I5
sg652
VSniper
p1117
sg654
I1
sg655
I40
sg656
I20
sg657
I3
sg658
Vsoldier
p1118
sg660
I50
sg29
I0
sg661
I60
sg662
I10
sg663
I200
sg664
I0
sg665
F0.6
sg666
(dp1119
VSchutzweste
p1120
(dp1121
g163
I0
sg164
Vupgrade
p1122
sg166
I30
sg167
(lp1123
(dp1124
g170
g171
sg172
g173
sg174
g175
sg176
I0
sg177
I0
sg178
(dp1125
Vmax_shield
p1126
I10
sVshield
p1127
I10
ssasg191
I1
ssVSpeed I (ziehen und laden)
p1128
(dp1129
g163
I0
sg164
Vupgrade
p1130
sg166
I30
sg167
(lp1131
(dp1132
g170
g171
sg172
g173
sg174
g175
sg176
I0
sg177
I0
sg178
(dp1133
Vwalk_dist
p1134
I1
sVelite
p1135
I1
sVdelay_shoot
p1136
I-2
ssasg191
I1
ssVhoehere Schussweite
p1137
(dp1138
S'delay'
p1139
I0
sS'category'
p1140
Vupgrade
p1141
sS'price'
p1142
I40
sS'actions'
p1143
(lp1144
(dp1145
S'target'
p1146
S'self'
p1147
sS'level'
p1148
S'id'
p1149
sS'type'
p1150
S'change'
p1151
sS'random'
p1152
I0
sS'num_units'
p1153
I0
sS'changes'
p1154
(dp1155
Vshoot_dist
p1156
I1
sVelite
p1157
I1
sg1143
(dp1158
VDistanzexperte
p1159
(dp1160
g1139
I0
sg1140
Vupgrade
p1161
sg1142
I50
sg1143
(lp1162
(dp1163
g1146
g1147
sg1148
g1149
sg1150
g1151
sg1152
I0
sg1153
I0
sg1154
(dp1164
Vshoot_dist
p1165
I1
sVattack_min
p1166
I8
sVelite
p1167
I1
sg1143
(dp1168
ssasS'num_uses'
p1169
I1
ssssasg1169
I1
ssVPraezision
p1170
(dp1171
S'delay'
p1172
I0
sS'category'
p1173
Vupgrade
p1174
sS'price'
p1175
I30
sg484
(lp1176
(dp1177
S'target'
p1178
S'self'
p1179
sS'level'
p1180
S'id'
p1181
sS'type'
p1182
S'change'
p1183
sS'random'
p1184
I0
sS'num_units'
p1185
I0
sS'changes'
p1186
(dp1187
Vattack_min
p1188
I15
sVelite
p1189
I1
sVattack_max
p1190
I8
sg352
(dp1191
Vbessere Munition
p1192
(dp1193
g348
I0
sg349
Vupgrade
p1194
sg351
I40
sg352
(lp1195
(dp1196
g355
g356
sg357
g358
sg359
g360
sg361
I0
sg362
I0
sg363
(dp1197
Vshield_factor
p1198
F0.05
sVattack_min
p1199
I15
sVelite
p1200
I1
sVattack_max
p1201
I10
sg352
(dp1202
VSchildzerstoerer
p1203
(dp1204
g348
I0
sg349
Vupgrade
p1205
sg351
I30
sg352
(lp1206
(dp1207
g355
g356
sg357
g358
sg359
g360
sg361
I0
sg362
I0
sg363
(dp1208
Vshield_factor
p1209
F0.2
sVelite
p1210
I1
sVattack_max
p1211
I8
sg258
(dp1212
VDoppelschuss
p1213
(dp1214
g254
I0
sg255
Vupgrade
p1215
sg257
I0
sg258
(lp1216
sg280
I0
ssssasg367
I1
ssssasg367
I1
ssVDoppelschuss
p1217
(dp1218
g1139
I0
sg1140
Vupgrade
p1219
sg1142
I60
sg1143
(lp1220
(dp1221
g1146
g1147
sg1148
g1149
sg1150
g1151
sg1152
I0
sg1153
I0
sg1154
(dp1222
Vnum_enemies
p1223
I1
sVattack_min
p1224
I8
sVelite
p1225
I1
sVattack_max
p1226
I15
sg258
(dp1227
VSchildzerstoerer
p1228
(dp1229
g254
I0
sg255
Vupgrade
p1230
sg257
I0
sg258
(lp1231
sg280
I0
ssssasg1169
I1
ssssasS'num_uses'
p1232
I1
sssg812
I0
sssI4
(dp1233
g593
(dp1234
g595
(dp1235
I0
(lp1236
sI600
(lp1237
(dp1238
g825
g826
sg827
g828
sg829
g830
sg831
I0
sg832
I0
sg833
(dp1239
Vdelay_walk
p1240
I-3
sVelite
p1241
I1
sVshield
p1242
I30
sVmax_shield
p1243
I15
ssasI300
(lp1244
(dp1245
g825
g826
sg827
g828
sg829
g830
sg831
I0
sg832
I0
sg833
(dp1246
Vdelay_walk
p1247
I-2
sVelite
p1248
I1
sVshield
p1249
I15
sVdelay_shoot
p1250
I-3
ssassg618
(dp1251
I500
(lp1252
(dp1253
g170
g171
sg172
g173
sg174
g175
sg176
I0
sg177
I0
sg178
(dp1254
Vshield_factor
p1255
F0.07
sVattack_min
p1256
I10
sVelite
p1257
I1
sVattack_max
p1258
I5
ssasssg647
(dp1259
g649
I18
sg650
I100
sg651
I5
sg652
VPanzer
p1260
sg654
I8
sg655
I50
sg656
I18
sg657
I4
sg658
Vvehicle
p1261
sg660
I100
sg29
I100
sg661
I90
sg662
I7
sg663
I400
sg664
I0
sg665
F0.6
sg666
(dp1262
VShottpanzerung
p1263
(dp1264
g561
I0
sg562
Vupgrade
p1265
sg564
I70
sg565
(lp1266
(dp1267
g185
g568
sg189
g569
sg183
g570
sg571
I0
sg572
I0
sg573
(dp1268
Vdelay_walk
p1269
I3
sVelite
p1270
I1
sVshield
p1271
I50
sg565
(dp1272
VVerbundpanzerung
p1273
(dp1274
g561
I0
sg562
Vupgrade
p1275
sg564
I40
sg565
(lp1276
(dp1277
g185
g568
sg189
g569
sg183
g570
sg571
I0
sg572
I0
sg573
(dp1278
Vdelay_walk
p1279
I-3
sVlife
p1280
I10
sVelite
p1281
I1
sVshield
p1282
I25
sVmax_shield
p1283
I15
ssasg580
I1
sssVmax_shield
p1284
I30
ssasg580
I1
ssVHartkernmunition
p1285
(dp1286
S'delay'
p1287
I0
sS'category'
p1288
Vupgrade
p1289
sS'price'
p1290
I30
sS'actions'
p1291
(lp1292
(dp1293
S'target'
p1294
Vself
p1295
sS'level'
p1296
Vid
p1297
sS'type'
p1298
Vchange
p1299
sS'random'
p1300
F0.0
sS'num_units'
p1301
I0
sS'changes'
p1302
(dp1303
Vshield_factor
p1304
F0.15
sVelite
p1305
I1
sVattack_max
p1306
I8
sS'actions'
p1307
(dp1308
VUrangeschoss
p1309
(dp1310
S'delay'
p1311
I0
sS'category'
p1312
Vupgrade
p1313
sS'price'
p1314
I80
sg1307
(lp1315
(dp1316
S'target'
p1317
Vself
p1318
sS'level'
p1319
Vid
p1320
sS'type'
p1321
Vchange
p1322
sS'random'
p1323
F0.0
sS'num_units'
p1324
I0
sS'changes'
p1325
(dp1326
Vshield_factor
p1327
F0.2
sVattack_min
p1328
I15
sVelite
p1329
I1
sVattack_max
p1330
I15
ssasS'num_uses'
p1331
I1
ssssasS'num_uses'
p1332
I1
ssVSpeed I
p1333
(dp1334
g439
I0
sg440
Vupgrade
p1335
sg442
I20
sg443
(lp1336
(dp1337
g1294
S'self'
p1338
sg1296
S'id'
p1339
sg1298
S'change'
p1340
sg1300
I0
sg1301
I0
sg1302
(dp1341
Vdelay_walk
p1342
I-2
sg1291
(dp1343
VSpeed II
p1344
(dp1345
g1287
I0
sg1288
Vupgrade
p1346
sg1290
I40
sg1291
(lp1347
(dp1348
g1294
g1338
sg1296
g1339
sg1298
g1340
sg1300
I0
sg1301
I0
sg1302
(dp1349
Vdelay_walk
p1350
I-2
sVwalk_dist
p1351
I1
sVelite
p1352
I1
ssasg1332
I1
ssssasg449
I1
sssg812
I100
sssI5
(dp1353
g593
(dp1354
g595
(dp1355
I0
(lp1356
sI500
(lp1357
(dp1358
S'target'
p1359
S'self'
p1360
sS'level'
p1361
S'id'
p1362
sS'type'
p1363
S'change'
p1364
sS'random'
p1365
I0
sS'num_units'
p1366
I0
sS'changes'
p1367
(dp1368
Vmax_life
p1369
I10
sVelite
p1370
I1
ssassg618
(dp1371
I0
(lp1372
sssg647
(dp1373
g649
I15
sg650
I100
sg651
I5
sg652
VArtillerie
p1374
sg654
I10
sg655
I0
sg656
I25
sg657
I5
sg658
Vvehicle
p1375
sg660
I100
sg29
I70
sg661
I0
sg662
I10
sg663
I500
sg664
I0
sg665
F0.5
sg666
(dp1376
Vgroessere Schussweite I
p1377
(dp1378
g1287
I0
sg1288
Vupgrade
p1379
sg1290
I40
sg1291
(lp1380
(dp1381
g1294
g1338
sg1296
g1339
sg1298
g1340
sg1300
I0
sg1301
I0
sg1302
(dp1382
Vshoot_dist
p1383
I1
sVelite
p1384
I1
sg420
(dp1385
Vgroessere Schussweite II
p1386
(dp1387
g416
I0
sg417
Vupgrade
p1388
sg419
I50
sg420
(lp1389
(dp1390
g423
g424
sg425
g426
sg427
g428
sg429
I0
sg430
I0
sg431
(dp1391
Vshoot_dist
p1392
I1
sVelite
p1393
I1
ssasg436
I1
ssVStreuung erhoehen
p1394
(dp1395
g416
I0
sg417
Vupgrade
p1396
sg419
I40
sg420
(lp1397
(dp1398
g423
g424
sg425
g426
sg427
g428
sg429
I0
sg430
I0
sg431
(dp1399
Vnum_enemies
p1400
I5
sVattack_min
p1401
I15
sVelite
p1402
I1
ssasg436
I1
ssssasg1332
I1
ssVAufbauen
p1403
(dp1404
S'delay'
p1405
I25
sS'category'
p1406
Vstandard
p1407
sS'price'
p1408
I0
sS'actions'
p1409
(lp1410
(dp1411
S'target'
p1412
S'self'
p1413
sS'level'
p1414
S'id'
p1415
sS'type'
p1416
S'change'
p1417
sS'random'
p1418
I0
sS'num_units'
p1419
I0
sS'changes'
p1420
(dp1421
g1409
(dp1422
VTransport
p1423
(dp1424
S'delay'
p1425
I30
sS'category'
p1426
Vequipment
p1427
sS'price'
p1428
I0
sS'actions'
p1429
(lp1430
(dp1431
S'target'
p1432
S'self'
p1433
sS'level'
p1434
S'id'
p1435
sS'type'
p1436
S'change'
p1437
sS'random'
p1438
I0
sS'num_units'
p1439
I0
sS'changes'
p1440
(dp1441
g1429
(dp1442
VAufbau
p1443
(dp1444
g1425
I25
sg1426
Vstandard
p1445
sg1428
I0
sg1429
(lp1446
(dp1447
g1432
g1433
sg1434
g1435
sg1436
g1437
sg1438
I0
sg1439
I0
sg1440
(dp1448
Vattack_min
p1449
I100
sVattack_max
p1450
I200
sVwalk_dist
p1451
I-5
ssasS'num_uses'
p1452
I1
sssVattack_min
p1453
I-100
sVattack_max
p1454
I-200
sVwalk_dist
p1455
I5
ssasg1452
I-1
sssVattack_min
p1456
I100
sVattack_max
p1457
I200
sVwalk_dist
p1458
I-5
ssasS'num_uses'
p1459
I1
ssVSpeed I
p1460
(dp1461
g439
I0
sg440
Vupgrade
p1462
sg442
I80
sg443
(lp1463
(dp1464
g423
g424
sg425
g426
sg427
g428
sg429
I0
sg430
I0
sg431
(dp1465
Vdelay_walk
p1466
I-4
sVelite
p1467
I1
sVdelay_shoot
p1468
I-8
sg420
(dp1469
VSpeed II
p1470
(dp1471
g416
I0
sg417
Vupgrade
p1472
sg419
I50
sg420
(lp1473
(dp1474
g423
g424
sg425
g426
sg427
g428
sg429
I0
sg430
I0
sg431
(dp1475
Vdelay_walk
p1476
I-2
sVelite
p1477
I1
sVdelay_shoot
p1478
I-8
ssasg436
I1
ssssasg449
I1
sssg812
I70
sssI6
(dp1479
S'elite_parameters'
p1480
(dp1481
S'ticks'
p1482
(dp1483
I800
(lp1484
(dp1485
g825
g826
sg827
g828
sg829
g830
sg831
I0
sg832
I0
sg833
(dp1486
Vmax_shield
p1487
I8
sVlife
p1488
I100
sVmax_life
p1489
I10
sVelite
p1490
I1
sVshield
p1491
I15
ssasI400
(lp1492
(dp1493
g825
g826
sg827
g828
sg829
g830
sg831
I0
sg832
I0
sg833
(dp1494
Vlife
p1495
I100
sVmax_life
p1496
I8
sVelite
p1497
I1
ssassS'damage'
p1498
(dp1499
I0
(lp1500
sssS'basic_parameters'
p1501
(dp1502
S'delay_walk'
p1503
I15
sS'life'
p1504
I50
sS'walk_dist'
p1505
I5
sS'name'
p1506
VArzt
p1507
sS'num_enemies'
p1508
I3
sS'attack_min'
p1509
I0
sS'delay_shoot'
p1510
I15
sg982
I6
sS'unit_type'
p1511
Vsoldier
p1512
sS'max_life'
p1513
I50
sg29
I10
sS'attack_max'
p1514
I0
sS'shoot_dist'
p1515
I5
sg999
I120
sS'elite'
p1516
I0
sS'shield_factor'
p1517
F0.4
sg992
(dp1518
VMedipack
p1519
(dp1520
g348
I0
sg349
Vshop
p1521
sg351
I60
sg352
(lp1522
(dp1523
g355
g356
sg357
g358
sg359
g360
sg361
I0
sg362
I0
sg363
(dp1524
g352
(dp1525
VSchmerzmittel
p1526
(dp1527
g348
I0
sg349
Vstandard
p1528
sg351
I0
sg352
(lp1529
(dp1530
g355
Vself
p1531
sg357
Vid
p1532
sg359
Vchange
p1533
sg361
F0.3
sg362
I0
sg363
(dp1534
Vlife
p1535
I30
ssasg367
I2
ssssasg367
I-1
ssVSchild-Mech
p1536
(dp1537
g348
I0
sg349
Vupgrade
p1538
sg351
I80
sg352
(lp1539
(dp1540
S'target'
p1541
S'self'
p1542
sS'level'
p1543
S'id'
p1544
sS'type'
p1545
S'change'
p1546
sS'random'
p1547
I0
sS'num_units'
p1548
I0
sS'changes'
p1549
(dp1550
S'actions'
p1551
(dp1552
VSchild reparieren
p1553
(dp1554
S'delay'
p1555
I20
sS'category'
p1556
Vstandard
p1557
sS'price'
p1558
I50
sg1551
(lp1559
(dp1560
g1541
Vown
p1561
sg1543
Vid
p1562
sg1545
Vchange
p1563
sg1547
F0.3
sg1548
I1
sg1549
(dp1564
Vshield
p1565
I10
ssasS'num_uses'
p1566
I-1
ssssasg367
I1
ssVFeldapotheke
p1567
(dp1568
g348
I22
sg349
Vstandard
p1569
sg351
I60
sg352
(lp1570
(dp1571
g355
Vown
p1572
sg357
Vid
p1573
sg359
Vchange
p1574
sg361
F0.1
sg362
I3
sg363
(dp1575
Vlife
p1576
I17
sg352
(dp1577
ssasg367
I-1
ssVSpeed I
p1578
(dp1579
g348
I0
sg349
Vupgrade
p1580
sg351
I30
sg352
(lp1581
(dp1582
g355
g356
sg357
g358
sg359
g360
sg361
I0
sg362
I0
sg363
(dp1583
Vwalk_dist
p1584
I1
sVelite
p1585
I1
sg352
(dp1586
VSpeed II
p1587
(dp1588
g348
I0
sg349
Vupgrade
p1589
sg351
I50
sg352
(lp1590
(dp1591
g355
g356
sg357
g358
sg359
g360
sg361
I0
sg362
I0
sg363
(dp1592
Vdelay_walk
p1593
I-4
sVwalk_dist
p1594
I2
sVelite
p1595
I1
ssasg367
I1
ssssasg367
I1
sssS'shield'
p1596
I10
sssI7
(dp1597
S'elite_parameters'
p1598
(dp1599
S'ticks'
p1600
(dp1601
I0
(lp1602
ssS'damage'
p1603
(dp1604
I0
(lp1605
sssS'basic_parameters'
p1606
(dp1607
S'delay_walk'
p1608
I15
sS'life'
p1609
I60
sS'walk_dist'
p1610
I5
sS'name'
p1611
VCyborg
p1612
sS'num_enemies'
p1613
I5
sS'attack_min'
p1614
I20
sS'delay_shoot'
p1615
I15
sg173
I7
sS'unit_type'
p1616
Vsoldier
p1617
sS'max_life'
p1618
I60
sg29
I40
sS'attack_max'
p1619
I35
sS'shoot_dist'
p1620
I7
sg166
I120
sS'elite'
p1621
I0
sS'shield_factor'
p1622
F0.6
sg167
(dp1623
VSpeed I
p1624
(dp1625
S'delay'
p1626
I0
sS'category'
p1627
S'upgrade'
p1628
sS'price'
p1629
I0
sS'actions'
p1630
(lp1631
sS'num_uses'
p1632
I-1
sssS'shield'
p1633
I40
sssI8
(dp1634
S'elite_parameters'
p1635
(dp1636
S'ticks'
p1637
(dp1638
I0
(lp1639
sI250
(lp1640
(dp1641
S'target'
p1642
S'self'
p1643
sS'level'
p1644
S'id'
p1645
sS'type'
p1646
S'change'
p1647
sS'random'
p1648
I0
sS'num_units'
p1649
I0
sS'changes'
p1650
(dp1651
Velite
p1652
I1
sVlife
p1653
I20
sVmax_shield
p1654
I5
sVshield
p1655
I10
ssasI500
(lp1656
(dp1657
g1642
g1643
sg1644
g1645
sg1646
g1647
sg1648
I0
sg1649
I0
sg1650
(dp1658
Velite
p1659
I1
sVlife
p1660
I100
sVmax_life
p1661
I10
sVmax_shield
p1662
I5
sVshield
p1663
I20
ssassS'damage'
p1664
(dp1665
I0
(lp1666
sI500
(lp1667
sssS'basic_parameters'
p1668
(dp1669
S'delay_walk'
p1670
I15
sS'life'
p1671
I70
sS'walk_dist'
p1672
I5
sS'name'
p1673
VKommandant
p1674
sS'num_enemies'
p1675
I4
sS'attack_min'
p1676
I20
sS'delay_shoot'
p1677
I15
sg79
I8
sS'unit_type'
p1678
Vsoldier
p1679
sS'max_life'
p1680
I70
sg29
I10
sS'attack_max'
p1681
I30
sS'shoot_dist'
p1682
I6
sg879
I250
sS'elite'
p1683
I4
sS'shield_factor'
p1684
F0.6
sg880
(dp1685
VLuftunterstuetzung
p1686
(dp1687
g876
I40
sg877
Vstandard
p1688
sg879
I150
sg880
(lp1689
(dp1690
g76
Venemy
p1691
sg78
Vid
p1692
sg80
Vchange
p1693
sg82
F0.6
sg83
I7
sg84
(dp1694
Vlife
p1695
I-17
sVshield
p1696
I-12
ssasg887
I-1
ssVDrill Sergent
p1697
(dp1698
S'delay'
p1699
I0
sS'category'
p1700
Vstandard
p1701
sS'price'
p1702
I100
sS'actions'
p1703
(lp1704
(dp1705
S'target'
p1706
Vown
p1707
sS'level'
p1708
Vid
p1709
sS'type'
p1710
Vchange
p1711
sS'random'
p1712
F0.0
sS'num_units'
p1713
I0
sS'changes'
p1714
(dp1715
Vattack_min
p1716
I10
sVattack_max
p1717
I8
sVdelay_shoot
p1718
I-3
ssasS'num_uses'
p1719
I-1
ssVFallschirmspringer
p1720
(dp1721
g711
I20
sg712
Vstandard
p1722
sg714
I450
sg697
(lp1723
(dp1724
g52
Vnew
p1725
sg48
Vown
p1726
sg63
(lp1727
I0
aI0
aI2
asg50
Vgroups
p1728
sasg716
I-1
ssVSpionageausbildung
p1729
(dp1730
S'delay'
p1731
I0
sS'category'
p1732
Vupgrade
p1733
sS'price'
p1734
I170
sS'actions'
p1735
(lp1736
(dp1737
S'target'
p1738
S'self'
p1739
sS'level'
p1740
S'id'
p1741
sS'type'
p1742
S'change'
p1743
sS'random'
p1744
I0
sS'num_units'
p1745
I0
sS'changes'
p1746
(dp1747
Velite
p1748
I1
sg1735
(dp1749
VWirtschafts-Spionage
p1750
(dp1751
g1731
I40
sg1732
Vupgrade
p1752
sg1734
I80
sg1735
(lp1753
(dp1754
g1738
g1739
sg1740
g1741
sg1742
g1743
sg1744
I0
sg1745
I0
sg1746
(dp1755
g1735
(dp1756
VDieb
p1757
(dp1758
g1731
I60
sg1732
Vequipment
p1759
sg1734
I200
sg1735
(lp1760
(dp1761
g1742
Vchange
p1762
sg1744
F0.5
sg1746
(dp1763
Vaccount
p1764
I-150
ssg1738
Venemy
p1765
sg1740
Vplayer
p1766
sa(dp1767
g1742
Vchange
p1768
sg1744
F0.7
sg1746
(dp1769
Vaccount
p1770
I80
ssg1738
Vown
p1771
sg1740
Vplayer
p1772
sasS'num_uses'
p1773
I-1
ssssasg1773
I-1
ssVID-Spionage
p1774
(dp1775
g1731
I40
sg1732
Vequipment
p1776
sg1734
I70
sg1735
(lp1777
sg1773
I-1
ssssasg1773
I1
sssS'shield'
p1778
I10
sssI9
(dp1779
S'elite_parameters'
p1780
(dp1781
S'ticks'
p1782
(dp1783
I0
(lp1784
ssS'damage'
p1785
(dp1786
I0
(lp1787
sssS'basic_parameters'
p1788
(dp1789
S'delay_walk'
p1790
I0
sS'life'
p1791
I100
sS'walk_dist'
p1792
I0
sS'name'
p1793
VFlak
p1794
sS'num_enemies'
p1795
I3
sS'attack_min'
p1796
I60
sS'delay_shoot'
p1797
I15
sS'id'
p1798
I9
sS'unit_type'
p1799
Vvehicle
p1800
sS'max_life'
p1801
I100
sg29
I0
sS'attack_max'
p1802
I80
sS'shoot_dist'
p1803
I5
sS'price'
p1804
I200
sS'elite'
p1805
I0
sS'shield_factor'
p1806
F0.6
sS'actions'
p1807
(dp1808
Vnix
p1809
(dp1810
S'delay'
p1811
I0
sS'category'
p1812
S'upgrade'
p1813
sg1804
I0
sg1807
(lp1814
sS'num_uses'
p1815
I-1
sssS'shield'
p1816
I0
sssI10
(dp1817
S'elite_parameters'
p1818
(dp1819
S'ticks'
p1820
(dp1821
I0
(lp1822
(dp1823
g825
g826
sg827
g828
sg829
g830
sg831
I0
sg832
I0
sg833
(dp1824
sasI400
(lp1825
(dp1826
g825
g826
sg827
g828
sg829
g830
sg831
I0
sg832
I0
sg833
(dp1827
Vdelay_walk
p1828
I-2
sVelite
p1829
I1
ssassS'damage'
p1830
(dp1831
I0
(lp1832
sssS'basic_parameters'
p1833
(dp1834
S'delay_walk'
p1835
I11
sS'life'
p1836
I15
sS'walk_dist'
p1837
I6
sS'name'
p1838
VMotorrad
p1839
sS'num_enemies'
p1840
I2
sS'attack_min'
p1841
I5
sS'delay_shoot'
p1842
I15
sS'id'
p1843
I10
sS'unit_type'
p1844
Vvehicle
p1845
sS'max_life'
p1846
I15
sg29
I0
sS'attack_max'
p1847
I10
sS'shoot_dist'
p1848
I5
sg1702
I40
sS'elite'
p1849
I0
sS'shield_factor'
p1850
F0.45
sg1703
(dp1851
VSchutzweste
p1852
(dp1853
g1699
I0
sg1700
Vupgrade
p1854
sg1702
I30
sg1703
(lp1855
(dp1856
g1706
S'self'
p1857
sg1708
g1843
sg1710
S'change'
p1858
sg1712
I0
sg1713
I0
sg1714
(dp1859
Vmax_shield
p1860
I8
sVshield
p1861
I8
ssasg1719
I1
ssVneue Reifen
p1862
(dp1863
g1699
I0
sg1700
Vupgrade
p1864
sg1702
I20
sg1703
(lp1865
(dp1866
g1706
g1857
sg1708
g1843
sg1710
g1858
sg1712
I0
sg1713
I0
sg1714
(dp1867
Vwalk_dist
p1868
I1
sVelite
p1869
I1
sg1703
(dp1870
Vleichteres Motorrad
p1871
(dp1872
g1699
I0
sg1700
Vupgrade
p1873
sg1702
I30
sg1703
(lp1874
(dp1875
g1706
g1857
sg1708
g1843
sg1710
g1858
sg1712
I0
sg1713
I0
sg1714
(dp1876
Vdelay_walk
p1877
I-1
sVwalk_dist
p1878
I1
sVelite
p1879
I1
ssasg1719
I1
ssssasg1719
I1
ssVDrive by lernen
p1880
(dp1881
g1699
I0
sg1700
Vupgrade
p1882
sg1702
I30
sg1703
(lp1883
(dp1884
g1706
g1857
sg1708
g1843
sg1710
g1858
sg1712
I0
sg1713
I0
sg1714
(dp1885
Vattack_min
p1886
I7
sVelite
p1887
I1
sVattack_max
p1888
I5
ssasg1719
I1
sssS'shield'
p1889
I0
sssI11
(dp1890
S'elite_parameters'
p1891
(dp1892
S'ticks'
p1893
(dp1894
I0
(lp1895
ssS'damage'
p1896
(dp1897
I0
(lp1898
sssS'basic_parameters'
p1899
(dp1900
S'delay_walk'
p1901
I18
sS'life'
p1902
I80
sS'walk_dist'
p1903
I5
sS'name'
p1904
VJavelin
p1905
sS'num_enemies'
p1906
I2
sS'attack_min'
p1907
I8
sS'delay_shoot'
p1908
I20
sg1053
I11
sS'unit_type'
p1909
Vsoldier
p1910
sS'max_life'
p1911
I80
sg29
I50
sS'attack_max'
p1912
I12
sS'shoot_dist'
p1913
I9
sg1046
I200
sS'elite'
p1914
I0
sS'shield_factor'
p1915
F2.5
sg1047
(dp1916
Vschneller ziehen
p1917
(dp1918
g254
I0
sg255
Vupgrade
p1919
sg257
I30
sg258
(lp1920
(dp1921
g261
g262
sg263
g264
sg265
g266
sg267
I0
sg268
I0
sg269
(dp1922
Vdelay_walk
p1923
I-3
sVelite
p1924
I1
ssasg280
I1
ssVschneller laden
p1925
(dp1926
S'delay'
p1927
I0
sS'category'
p1928
Vupgrade
p1929
sS'price'
p1930
I40
sS'actions'
p1931
(lp1932
(dp1933
S'target'
p1934
S'self'
p1935
sS'level'
p1936
S'id'
p1937
sS'type'
p1938
S'change'
p1939
sS'random'
p1940
I0
sS'num_units'
p1941
I0
sS'changes'
p1942
(dp1943
Velite
p1944
I1
sVdelay_shoot
p1945
I-4
ssasS'num_uses'
p1946
I1
ssVgroessere Sprengkraft
p1947
(dp1948
g1927
I0
sg1928
Vupgrade
p1949
sg1930
I30
sg1931
(lp1950
(dp1951
g1934
g1935
sg1936
g1937
sg1938
g1939
sg1940
I0
sg1941
I0
sg1942
(dp1952
Vnum_enemies
p1953
I2
sVattack_min
p1954
I2
sVelite
p1955
I1
sVattack_max
p1956
I3
sg1931
(dp1957
Vneue Sprengtechnologie
p1958
(dp1959
g1927
I0
sg1928
Vupgrade
p1960
sg1930
I40
sg1931
(lp1961
(dp1962
g1934
g1935
sg1936
g1937
sg1938
g1939
sg1940
I0
sg1941
I0
sg1942
(dp1963
Vshield_factor
p1964
F0.4
sVelite
p1965
I1
ssasg1946
I1
ssssasg1946
I1
sssS'shield'
p1966
I50
ssssS'engine_parameters'
p1967
(dp1968
S'max_victory_diff'
p1969
F400.0
sS'all_sectors'
p1970
(dp1971
I1
(dp1972
S'victory'
p1973
I0
sS'weight'
p1974
F1.0
ssI2
(dp1975
g1973
I0
sg1974
F1.0
ssI3
(dp1976
g1973
I0
sg1974
F1.0
ssI4
(dp1977
g1973
I0
sg1974
F1.0
ssI5
(dp1978
g1973
I1
sg1974
F1.0
ssI6
(dp1979
g1973
I0
sg1974
F1.0
ssI7
(dp1980
g1973
I0
sg1974
F2.0
ssI8
(dp1981
g1973
I0
sg1974
F1.0
ssI9
(dp1982
g1973
I0
sg1974
F1.0
ssI10
(dp1983
g1973
I0
sg1974
F1.0
ssI11
(dp1984
g1973
I0
sg1974
F1.0
ssI12
(dp1985
g1973
I0
sg1974
F1.0
ssI13
(dp1986
g1973
I0
sg1974
F2.0
ssI14
(dp1987
g1973
I1
sg1974
F1.0
ssI15
(dp1988
g1973
I0
sg1974
F1.0
ssI16
(dp1989
g1973
I0
sg1974
F1.0
ssI17
(dp1990
g1973
I0
sg1974
F1.0
ssI18
(dp1991
g1973
I0
sg1974
F1.0
ssI19
(dp1992
g1973
I1
sg1974
F1.0
sssS'delay_damage'
p1993
F0.5
sS'extra_shoot_dist'
p1994
F2.0
sS'constant_per_tick'
p1995
F5.0
sS'per_sector_per_tick'
p1996
F1.0
sS'take_over_factor'
p1997
F1.3
sS'tick_duration'
p1998
F15.0
sS'protection_effect'
p1999
F0.4
sS'protection_in'
p2000
F18.0
sS'sector_takeover'
p2001
F80.0
sS'protection_out'
p2002
F10.0
sS'start_account'
p2003
F200.0
ssS'transport_parameters'
p2004
(dp2005
I0
(dp2006
g127
(dp2007
g129
(dp2008
I0
(lp2009
ssg132
(dp2010
I0
(lp2011
sssg135
(dp2012
S'delay_walk'
p2013
I15
sg137
I100
sS'walk_dist'
p2014
I10
sg140
I10
sg141
VTransporter
p2015
sS'transports'
p2016
Vsoldier
p2017
sg158
F0.4
sg145
I0
sg146
I25
sg147
I20
sg148
I10
sg149
I200
sg150
I4
sg151
I100
sg29
I25
sg152
I7
sg156
I5
sg157
I0
sg155
I0
sg159
(dp2018
VPanzerung
p2019
(dp2020
S'delay'
p2021
I0
sS'category'
p2022
Vupgrade
p2023
sS'price'
p2024
I50
sS'actions'
p2025
(lp2026
(dp2027
g599
g600
sg601
g602
sg603
g604
sg605
I0
sg606
I0
sg607
(dp2028
Vdelay_walk
p2029
I3
sVelite
p2030
I1
sVshield
p2031
I40
sg2025
(dp2032
VCasspir
p2033
(dp2034
g2021
I0
sg2022
Vupgrade
p2035
sg2024
I70
sg2025
(lp2036
(dp2037
g599
g600
sg601
g602
sg603
g604
sg605
I0
sg606
I0
sg607
(dp2038
Vdelay_walk
p2039
I-5
sVelite
p2040
I1
sVshield
p2041
I50
sVmax_shield
p2042
I40
ssasS'num_uses'
p2043
I1
sssVmax_shield
p2044
I30
ssasg2043
I1
ssVMG
p2045
(dp2046
g2021
I0
sg2022
Vupgrade
p2047
sg2024
I40
sg2025
(lp2048
(dp2049
g599
Vself
p2050
sg601
Vid
p2051
sg603
Vchange
p2052
sg605
F0.0
sg606
I0
sg607
(dp2053
Vattack_min
p2054
I20
sVelite
p2055
I1
sVattack_max
p2056
I40
sg2025
(dp2057
VKampfmaschine
p2058
(dp2059
g2021
I0
sg2022
Vupgrade
p2060
sg2024
I80
sg2025
(lp2061
(dp2062
g599
g600
sg601
g602
sg603
g604
sg605
I0
sg606
I0
sg607
(dp2063
Vshield_factor
p2064
F0.2
sVattack_min
p2065
I30
sVelite
p2066
I1
sVattack_max
p2067
I30
ssasg2043
I1
ssssasg2043
I1
ssVSpeed up (laden & ziehen)
p2068
(dp2069
g561
I0
sg562
Vupgrade
p2070
sg564
I30
sg565
(lp2071
(dp2072
g185
g568
sg189
g569
sg183
g570
sg571
I0
sg572
I0
sg573
(dp2073
Vdelay_walk
p2074
I-2
sVelite
p2075
I1
sVdelay_shoot
p2076
I-2
sg565
(dp2077
VSpeed up (nur ziehen)
p2078
(dp2079
g561
I0
sg562
Vupgrade
p2080
sg564
I40
sg565
(lp2081
(dp2082
g185
g568
sg189
g569
sg183
g570
sg571
I0
sg572
I0
sg573
(dp2083
Vdelay_walk
p2084
I-2
sVwalk_dist
p2085
I1
sVelite
p2086
I1
ssasg580
I1
ssssasg580
I1
ssVmehr Platz I
p2087
(dp2088
g2021
I0
sg2022
Vupgrade
p2089
sg2024
I30
sg2025
(lp2090
(dp2091
g599
g600
sg601
g602
sg603
g604
sg605
I0
sg606
I0
sg607
(dp2092
Velite
p2093
I1
sVcapacity
p2094
I5
sg2025
(dp2095
Vmehr Platz II
p2096
(dp2097
g2021
I0
sg2022
Vupgrade
p2098
sg2024
I40
sg2025
(lp2099
(dp2100
g599
g600
sg601
g602
sg603
g604
sg605
I0
sg606
I0
sg607
(dp2101
Velite
p2102
I1
sVcapacity
p2103
I8
ssasg2043
I1
ssssasg2043
I1
sssg281
I0
sssI1
(dp2104
g283
(dp2105
g285
(dp2106
I0
(lp2107
ssg288
(dp2108
I0
(lp2109
sssg291
(dp2110
S'delay_walk'
p2111
I15
sg293
I100
sS'walk_dist'
p2112
I10
sg296
I10
sg297
VHelikopter
p2113
sS'transports'
p2114
Vsoldier
p2115
sg314
F0.4
sg301
I0
sg302
I50
sg303
I20
sg304
I10
sg305
I200
sg306
I4
sg307
I100
sg29
I50
sg378
I8
sg312
I6
sg313
I0
sg311
I1
sg315
(dp2116
VBombe abwerfen
p2117
(dp2118
g319
I15
sg320
Vstandard
p2119
sg305
I80
sg315
(lp2120
(dp2121
g324
Venemy
p2122
sg326
Vid
p2123
sg328
Vchange
p2124
sg330
F0.3
sg331
I7
sg332
(dp2125
Vlife
p2126
I-7
sg315
(dp2127
ssasg335
I-1
sssg308
I0
sssI2
(dp2128
S'elite_parameters'
p2129
(dp2130
S'ticks'
p2131
(dp2132
I0
(lp2133
ssS'damage'
p2134
(dp2135
I0
(lp2136
sssS'basic_parameters'
p2137
(dp2138
S'delay_walk'
p2139
I18
sS'life'
p2140
I150
sS'walk_dist'
p2141
I9
sS'capacity'
p2142
I3
sS'name'
p2143
VFahrzeug Transporter
p2144
sS'elite'
p2145
I0
sS'shield_factor'
p2146
F0.4
sS'attack_min'
p2147
I0
sS'delay_shoot'
p2148
I15
sg403
I2
sg396
I300
sS'max_life'
p2149
I150
sg29
I20
sS'delay_out'
p2150
I15
sS'attack_max'
p2151
I0
sS'shoot_dist'
p2152
I5
sg397
(dp2153
Vmehr Platz
p2154
(dp2155
g393
I0
sg394
Vupgrade
p2156
sg396
I50
sg397
(lp2157
(dp2158
g400
g401
sg402
g403
sg404
g405
sg406
I0
sg407
I0
sg408
(dp2159
Vcapacity
p2160
I2
ssasg413
I1
sssS'transports'
p2161
Vvehicle
p2162
sS'delay_in'
p2163
I25
sS'num_enemies'
p2164
I4
sS'shield'
p2165
I20
ssssS'card_parameters'
p2166
(dp2167
I200
(lp2168
(dp2169
S'num_cards'
p2170
I10
sS'description'
p2171
VEine Gruppe kann in einen Helikopter verladen werden und deshalb 10 pro Runde ziehen.
p2172
sg2025
(lp2173
(dp2174
S'target'
p2175
S'self'
p2176
sS'level'
p2177
S'id'
p2178
sS'type'
p2179
S'change'
p2180
sS'random'
p2181
F0.0
sS'num_units'
p2182
I0
sS'changes'
p2183
(dp2184
sasS'title'
p2185
VHelitransport
p2186
sa(dp2187
S'title'
p2188
VGiftgas
p2189
sS'num_cards'
p2190
I7
sg1143
(lp2191
(dp2192
S'target'
p2193
S'enemy'
p2194
sS'level'
p2195
S'id'
p2196
sS'type'
p2197
S'change'
p2198
sS'random'
p2199
F0.3
sS'num_units'
p2200
S'all'
p2201
sS'changes'
p2202
(dp2203
Vlife
p2204
I-8
ssa(dp2205
g2193
Vown
p2206
sg2195
Vid
p2207
sg2197
Vchange
p2208
sg2199
F0.3
sg2200
Vall
p2209
sg2202
(dp2210
Vlife
p2211
I-2
ssasS'description'
p2212
VAlle Einheiten werden verwundet. Gegnerische staerker als eigene
p2213
sa(dp2214
S'description'
p2215
VDescription
p2216
sS'num_cards'
p2217
I12
sS'actions'
p2218
(lp2219
(dp2220
g2193
Vown
p2221
sg2195
Vid
p2222
sg2197
Vchange
p2223
sg2199
F0.2
sg2200
I6
sg2202
(dp2224
Vlife
p2225
I20
ssasS'title'
p2226
VFeldapotheke
p2227
sa(dp2228
S'num_cards'
p2229
I1
sS'description'
p2230
VDescription
p2231
sS'actions'
p2232
(lp2233
(dp2234
g2179
S'new'
p2235
sg2175
S'own'
p2236
sS'parameters'
p2237
I0
sg2177
S'buildings'
p2238
sa(dp2239
g2175
S'self'
p2240
sg2177
S'id'
p2241
sg2179
S'change'
p2242
sg2181
F0.0
sg2182
I0
sg2183
(dp2243
Vlife
p2244
I0
ssasS'title'
p2245
VUnnamed Card
p2246
sass.