(dp0
S'building_parameters'
p1
(dp2
I0
(dp3
S'elite_parameters'
p4
(dp5
S'ticks'
p6
(dp7
I0
(lp8
sI150
(lp9
(dp10
S'target'
p11
S'self'
p12
sS'level'
p13
S'id'
p14
sS'type'
p15
S'change'
p16
sS'random'
p17
I0
sS'num_units'
p18
I0
sS'changes'
p19
(dp20
S'actions'
p21
(dp22
VWerkstatt bauen
p23
(dp24
S'delay'
p25
I0
sS'category'
p26
Vshop
p27
sS'price'
p28
I600
sg21
(lp29
(dp30
g15
Vnew
p31
sg11
Vown
p32
sS'parameters'
p33
I3
sg13
Vbuildings
p34
sasS'num_uses'
p35
I-1
ssssassS'damage'
p36
(dp37
I0
(lp38
sssS'basic_parameters'
p39
(dp40
S'life'
p41
I800
sS'shop_transporter'
p42
(lp43
I0
asS'capacity'
p44
I25
sS'name'
p45
VHauptquartier
p46
sS'shop_units'
p47
(lp48
I1
aI10
asS'attack_min'
p49
I0
sS'shield'
p50
I100
sS'delay_shoot'
p51
I15
sS'delay_in'
p52
I20
sS'price'
p53
I1000
sS'max_life'
p54
I800
sS'max_shield'
p55
I100
sS'actions'
p56
(dp57
VArzneistudium +
p58
(dp59
S'delay'
p60
I0
sS'category'
p61
Vupgrade
p62
sS'price'
p63
I400
sS'actions'
p64
(lp65
(dp66
S'target'
p67
S'self'
p68
sS'level'
p69
S'id'
p70
sS'type'
p71
S'change'
p72
sS'random'
p73
I0
sS'num_units'
p74
I0
sS'changes'
p75
(dp76
Vshop_units
p77
(lp78
I6
assa(dp79
g71
Vnew
p80
sg67
Vown
p81
sS'parameters'
p82
(lp83
I6
asg69
Vgroups
p84
sasS'num_uses'
p85
I1
ssVKommandant +
p86
(dp87
S'delay'
p88
I0
sS'category'
p89
Vupgrade
p90
sS'price'
p91
I500
sS'actions'
p92
(lp93
(dp94
S'target'
p95
S'self'
p96
sS'level'
p97
S'id'
p98
sS'type'
p99
S'change'
p100
sS'random'
p101
I0
sS'num_units'
p102
I0
sS'changes'
p103
(dp104
Vshop_units
p105
(lp106
I8
assa(dp107
S'type'
p108
Vnew
p109
sS'target'
p110
Vown
p111
sS'parameters'
p112
(lp113
I8
asS'level'
p114
Vgroups
p115
sasS'num_uses'
p116
I1
ssVHelikopter-Plattform +
p117
(dp118
S'delay'
p119
I0
sS'category'
p120
Vupgrade
p121
sS'price'
p122
I400
sS'actions'
p123
(lp124
(dp125
S'target'
p126
S'self'
p127
sS'level'
p128
S'id'
p129
sS'type'
p130
S'change'
p131
sS'random'
p132
I0
sS'num_units'
p133
I0
sS'changes'
p134
(dp135
Vshop_transporter
p136
(lp137
I1
assa(dp138
g130
Vnew
p139
sg126
Vown
p140
sS'parameters'
p141
I1
sg128
Vtransporter
p142
sasS'num_uses'
p143
I1
sssS'attack_max'
p144
I0
sS'enter'
p145
Vsoldier
p146
sS'id'
p147
I0
sS'shoot_dist'
p148
I6
sS'elite'
p149
I0
sS'shield_factor'
p150
F0.4
sS'num_enemies'
p151
I4
sS'delay_out'
p152
I10
sssI1
(dp153
S'elite_parameters'
p154
(dp155
S'ticks'
p156
(dp157
I500
(lp158
ssS'damage'
p159
(dp160
I0
(lp161
sssS'basic_parameters'
p162
(dp163
S'life'
p164
I600
sS'shop_transporter'
p165
(lp166
sS'capacity'
p167
I15
sS'name'
p168
VKaserne
p169
sS'shield_factor'
p170
F0.4
sS'shop_units'
p171
(lp172
I0
asS'attack_min'
p173
I0
sS'delay_shoot'
p174
I15
sS'delay_in'
p175
I20
sS'price'
p176
I600
sS'actions'
p177
(dp178
VSniper +
p179
(dp180
S'delay'
p181
I0
sS'category'
p182
Vupgrade
p183
sS'price'
p184
I200
sS'actions'
p185
(lp186
(dp187
S'target'
p188
S'self'
p189
sS'level'
p190
S'id'
p191
sS'type'
p192
S'change'
p193
sS'random'
p194
I0
sS'num_units'
p195
I0
sS'changes'
p196
(dp197
Vshop_units
p198
(lp199
I3
assa(dp200
S'type'
p201
Vnew
p202
sS'target'
p203
Vown
p204
sS'parameters'
p205
(lp206
I3
asS'level'
p207
Vgroups
p208
sasS'num_uses'
p209
I1
ssVVerteidigung
p210
(dp211
S'delay'
p212
I20
sS'category'
p213
Vupgrade
p214
sS'price'
p215
I100
sS'actions'
p216
(lp217
(dp218
S'target'
p219
S'self'
p220
sS'level'
p221
S'id'
p222
sS'type'
p223
S'change'
p224
sS'random'
p225
I0
sS'num_units'
p226
I0
sS'changes'
p227
(dp228
Vattack_min
p229
I20
sVattack_max
p230
I40
ssasS'num_uses'
p231
I1
ssVMG-Soldat
p232
(dp233
S'delay'
p234
I0
sS'category'
p235
Vupgrade
p236
sS'price'
p237
I250
sS'actions'
p238
(lp239
(dp240
g219
g220
sg221
g222
sg223
g224
sg225
I0
sg226
I0
sg227
(dp241
Vshop_units
p242
(lp243
I2
asVelite
p244
I1
sS'actions'
p245
(dp246
VCyborg
p247
(dp248
S'delay'
p249
I0
sS'category'
p250
Vupgrade
p251
sS'price'
p252
I200
sg245
(lp253
(dp254
S'target'
p255
S'self'
p256
sS'level'
p257
S'id'
p258
sS'type'
p259
S'change'
p260
sS'random'
p261
I0
sS'num_units'
p262
I0
sS'changes'
p263
(dp264
Vshop_units
p265
(lp266
I7
asVelite
p267
I1
ssasS'num_uses'
p268
I1
ssVMG-Soldat Ausbildung
p269
(dp270
S'delay'
p271
I0
sS'category'
p272
Vequipment
p273
sS'price'
p274
I0
sS'actions'
p275
(lp276
(dp277
S'target'
p278
Vown
p279
sS'level'
p280
Vid
p281
sS'type'
p282
Vchange
p283
sS'random'
p284
F0.0
sS'num_units'
p285
I1
sS'changes'
p286
(dp287
Vshop_units
p288
(lp289
I2
assasS'num_uses'
p290
I-1
ssssasS'num_uses'
p291
I1
ssVJavelin +
p292
(dp293
S'delay'
p294
I0
sS'category'
p295
Vupgrade
p296
sS'price'
p297
I400
sS'actions'
p298
(lp299
(dp300
S'target'
p301
S'self'
p302
sS'level'
p303
S'id'
p304
sS'type'
p305
S'change'
p306
sS'random'
p307
I0
sS'num_units'
p308
I0
sS'changes'
p309
(dp310
Vshop_units
p311
(lp312
I11
asVelite
p313
I1
ssa(dp314
g305
Vnew
p315
sg301
Vown
p316
sS'parameters'
p317
(lp318
I11
asg303
Vgroups
p319
sasS'num_uses'
p320
I1
sssS'max_life'
p321
I600
sg55
I80
sS'delay_out'
p322
I10
sS'attack_max'
p323
I0
sS'enter'
p324
Vsoldier
p325
sS'shoot_dist'
p326
I6
sS'elite'
p327
I0
sS'id'
p328
I1
sS'num_enemies'
p329
I4
sS'shield'
p330
I80
sssI2
(dp331
S'elite_parameters'
p332
(dp333
S'ticks'
p334
(dp335
I0
(lp336
ssS'damage'
p337
(dp338
I0
(lp339
sssS'basic_parameters'
p340
(dp341
S'life'
p342
I500
sS'shop_transporter'
p343
(lp344
sS'capacity'
p345
I10
sS'name'
p346
VLazarett
p347
sS'shield_factor'
p348
F0.4
sS'elite'
p349
I0
sS'shop_units'
p350
(lp351
sS'attack_min'
p352
I0
sS'delay_shoot'
p353
I15
sS'delay_in'
p354
I20
sS'price'
p355
I500
sS'max_life'
p356
I500
sg55
I75
sS'actions'
p357
(dp358
V10x heilen
p359
(dp360
S'delay'
p361
I50
sS'category'
p362
Vstandard
p363
sg355
I400
sg357
(lp364
(dp365
S'target'
p366
Vown
p367
sS'level'
p368
Vid
p369
sS'type'
p370
Vchange
p371
sS'random'
p372
F0.0
sS'num_units'
p373
I0
sS'changes'
p374
(dp375
Vlife
p376
I50
ssasS'num_uses'
p377
I-1
ssV1x heilen
p378
(dp379
g361
I40
sg362
Vstandard
p380
sg355
I70
sg357
(lp381
(dp382
g366
Vown
p383
sg368
Vid
p384
sg370
Vchange
p385
sg372
F0.0
sg373
I1
sg374
(dp386
Vlife
p387
I50
ssasg377
I-1
ssVArztneistudium
p388
(dp389
S'delay'
p390
I0
sS'category'
p391
Vupgrade
p392
sS'price'
p393
I200
sS'actions'
p394
(lp395
(dp396
S'target'
p397
S'self'
p398
sS'level'
p399
S'id'
p400
sS'type'
p401
S'change'
p402
sS'random'
p403
I0
sS'num_units'
p404
I0
sS'changes'
p405
(dp406
Vshop_units
p407
(lp408
I6
assasS'num_uses'
p409
I1
ssV5x heilen
p410
(dp411
g361
I50
sg362
Vstandard
p412
sg355
I200
sg357
(lp413
(dp414
g366
Vown
p415
sg368
Vid
p416
sg370
Vchange
p417
sg372
F0.0
sg373
I5
sg374
(dp418
Vlife
p419
I50
ssasg377
I-1
sssS'attack_max'
p420
I0
sS'enter'
p421
Vsoldier
p422
sS'shoot_dist'
p423
I6
sS'delay_out'
p424
I10
sS'id'
p425
I2
sS'num_enemies'
p426
I4
sS'shield'
p427
I75
sssI3
(dp428
g332
(dp429
g334
(dp430
I0
(lp431
ssg337
(dp432
I0
(lp433
sssg340
(dp434
g342
I500
sg343
(lp435
I0
asg345
I10
sg346
VWerkstatt
p436
sg348
F0.4
sg349
I0
sg350
(lp437
I4
asg352
I0
sg353
I15
sg354
I20
sg355
I700
sg356
I500
sg55
I80
sg357
(dp438
VFahrzeug Transporter
p439
(dp440
S'delay'
p441
I0
sS'category'
p442
Vupgrade
p443
sS'price'
p444
I150
sS'actions'
p445
(lp446
(dp447
S'target'
p448
S'self'
p449
sS'level'
p450
S'id'
p451
sS'type'
p452
S'change'
p453
sS'random'
p454
I0
sS'num_units'
p455
I0
sS'changes'
p456
(dp457
Vshop_transporter
p458
(lp459
I2
asVelite
p460
I1
ssasS'num_uses'
p461
I1
ssVArtillerie
p462
(dp463
S'delay'
p464
I0
sS'category'
p465
Vupgrade
p466
sS'price'
p467
I300
sS'actions'
p468
(lp469
(dp470
S'target'
p471
S'self'
p472
sS'level'
p473
S'id'
p474
sS'type'
p475
S'change'
p476
sS'random'
p477
I0
sS'num_units'
p478
I0
sS'changes'
p479
(dp480
Vshop_units
p481
(lp482
I5
asVelite
p483
I1
ssasS'num_uses'
p484
I1
ssVVerteidigung
p485
(dp486
S'delay'
p487
I0
sS'category'
p488
Vupgrade
p489
sS'price'
p490
I50
sS'actions'
p491
(lp492
(dp493
g397
g398
sg399
g400
sg401
g402
sg403
I0
sg404
I0
sg405
(dp494
Vattack_min
p495
I30
sVattack_max
p496
I50
ssasS'num_uses'
p497
I1
sssg420
I0
sg421
Vvehicle
p498
sg423
I6
sg424
I10
sg425
I3
sg426
I4
sg427
I80
sssI4
(dp499
g332
(dp500
g334
(dp501
I0
(lp502
ssg337
(dp503
I0
(lp504
sssg340
(dp505
g342
I600
sg343
(lp506
sg345
I15
sg346
VFlughafen
p507
sg348
F0.4
sg349
I0
sg350
(lp508
sg352
I0
sg353
I15
sg354
I20
sg355
I400
sg356
I600
sg55
I50
sg357
(dp509
VFlak & Verteidigung
p510
(dp511
g441
I0
sg442
Vupgrade
p512
sg444
I100
sg445
(lp513
(dp514
g448
g449
sg450
g451
sg452
g453
sg454
I0
sg455
I0
sg456
(dp515
Vshop_units
p516
(lp517
I9
asVattack_min
p518
I30
sVelite
p519
I1
sVattack_max
p520
I50
ssasg461
I1
ssVHelikopter Landeplattform
p521
(dp522
g361
I0
sg362
Vupgrade
p523
sg355
I400
sg357
(lp524
(dp525
g366
S'self'
p526
sg368
g425
sg370
S'change'
p527
sg372
I0
sg373
I0
sg374
(dp528
Vshop_transporter
p529
(lp530
I1
asVelite
p531
I1
sS'actions'
p532
(dp533
VFallschirmspringer
p534
(dp535
S'delay'
p536
I0
sS'category'
p537
S'upgrade'
p538
sS'price'
p539
I0
sS'actions'
p540
(lp541
sS'num_uses'
p542
I-1
ssssasg377
I1
sssg420
I0
sg421
Vvehicle
p543
sg423
I6
sg424
I10
sg425
I4
sg426
I4
sg427
I50
sssI5
(dp544
S'elite_parameters'
p545
(dp546
S'ticks'
p547
(dp548
I0
(lp549
ssS'damage'
p550
(dp551
I0
(lp552
sssS'basic_parameters'
p553
(dp554
S'life'
p555
I100
sS'shop_transporter'
p556
(lp557
sS'capacity'
p558
I0
sS'name'
p559
Vnix
p560
sS'shop_units'
p561
(lp562
sS'attack_min'
p563
I60
sS'shield'
p564
I0
sS'delay_shoot'
p565
I15
sS'delay_in'
p566
I0
sS'price'
p567
I200
sS'max_life'
p568
I100
sg55
I0
sS'delay_out'
p569
I0
sS'enter'
p570
Vsoldier
p571
sS'id'
p572
I5
sS'shoot_dist'
p573
I5
sS'num_enemies'
p574
I3
sS'elite'
p575
I0
sS'shield_factor'
p576
F0.6
sS'actions'
p577
(dp578
Vnix
p579
(dp580
S'delay'
p581
I0
sS'category'
p582
S'upgrade'
p583
sg567
I0
sg577
(lp584
sS'num_uses'
p585
I-1
sssS'attack_max'
p586
I80
sssI6
(dp587
g545
(dp588
g547
(dp589
I0
(lp590
ssg550
(dp591
I0
(lp592
sssg553
(dp593
g555
I80
sg556
(lp594
sg558
I5
sg559
VMG-Nest
p595
sg561
(lp596
sg563
I20
sg564
I20
sg565
I15
sg566
I15
sg567
I100
sg568
I80
sg55
I20
sg569
I10
sg570
Vsoldier
p597
sg572
I6
sg573
I6
sg574
I4
sg575
I0
sg576
F0.5
sg577
(dp598
Vzweites Geschuetz
p599
(dp600
S'delay'
p601
I0
sS'category'
p602
Vupgrade
p603
sS'price'
p604
I50
sS'actions'
p605
(lp606
sS'num_uses'
p607
I1
ssVPanzerabwehr
p608
(dp609
S'delay'
p610
I10
sS'category'
p611
Vupgrade
p612
sS'price'
p613
I150
sS'actions'
p614
(lp615
(dp616
g203
S'self'
p617
sg207
S'id'
p618
sg201
S'change'
p619
sS'random'
p620
I0
sS'num_units'
p621
I0
sS'changes'
p622
(dp623
Vshield_factor
p624
F2.0
sVattack_min
p625
I-10
sS'actions'
p626
(dp627
VMoerser
p628
(dp629
S'delay'
p630
I0
sS'category'
p631
Vupgrade
p632
sS'price'
p633
I0
sg626
(lp634
sS'num_uses'
p635
I0
sssVattack_max
p636
I-20
sVshoot_dist
p637
I1
sVelite
p638
I2
ssasS'num_uses'
p639
I1
ssVBetonguss
p640
(dp641
g610
I0
sg611
Vupgrade
p642
sg613
I50
sg614
(lp643
(dp644
g203
g617
sg207
g618
sg201
g619
sg620
I0
sg621
I0
sg622
(dp645
Vmax_shield
p646
I15
sVelite
p647
I1
sVshield
p648
I30
ssasg639
I1
ssVMoerser
p649
(dp650
S'delay'
p651
I10
sS'category'
p652
Vupgrade
p653
sS'price'
p654
I150
sS'actions'
p655
(lp656
(dp657
S'target'
p658
S'self'
p659
sS'level'
p660
S'id'
p661
sS'type'
p662
S'change'
p663
sS'random'
p664
I0
sS'num_units'
p665
I0
sS'changes'
p666
(dp667
Vnum_enemies
p668
I4
sVattack_min
p669
I10
sg626
(dp670
VPanzerabwehr
p671
(dp672
g630
I0
sg631
Vupgrade
p673
sg633
I0
sg626
(lp674
sg635
I0
sssVdelay_shoot
p675
I10
sVshoot_dist
p676
I3
sVattack_max
p677
I55
ssasS'num_uses'
p678
I1
sssg586
I35
ssssS'card_parameters'
p679
(dp680
I200
(lp681
(dp682
S'title'
p683
VHelitransport
p684
sS'description'
p685
VEine Gruppe kann in einen Helikopter verladen werden und deshalb 10 pro Runde ziehen.
p686
sS'actions'
p687
(lp688
(dp689
S'target'
p690
S'self'
p691
sS'level'
p692
S'id'
p693
sS'type'
p694
S'change'
p695
sS'random'
p696
F0.0
sS'num_units'
p697
I0
sS'changes'
p698
(dp699
sasS'num_cards'
p700
I10
sa(dp701
S'num_cards'
p702
I7
sS'description'
p703
VAlle Einheiten werden verwundet. Gegnerische staerker als eigene
p704
sS'actions'
p705
(lp706
(dp707
S'target'
p708
S'enemy'
p709
sS'level'
p710
S'id'
p711
sS'type'
p712
S'change'
p713
sS'random'
p714
F0.3
sS'num_units'
p715
S'all'
p716
sS'changes'
p717
(dp718
Vlife
p719
I-8
ssa(dp720
g708
Vown
p721
sg710
Vid
p722
sg712
Vchange
p723
sg714
F0.3
sg715
Vall
p724
sg717
(dp725
Vlife
p726
I-2
ssasS'title'
p727
VGiftgas
p728
sa(dp729
S'title'
p730
VFeldapotheke
p731
sS'num_cards'
p732
I12
sS'actions'
p733
(lp734
(dp735
g708
Vown
p736
sg710
Vid
p737
sg712
Vchange
p738
sg714
F0.2
sg715
I6
sg717
(dp739
Vlife
p740
I20
ssasS'description'
p741
VDescription
p742
sa(dp743
S'title'
p744
VUnnamed Card
p745
sS'description'
p746
VDescription
p747
sS'actions'
p748
(lp749
(dp750
g694
S'new'
p751
sg690
S'own'
p752
sS'parameters'
p753
I0
sg692
S'buildings'
p754
sa(dp755
g690
S'self'
p756
sg692
S'id'
p757
sg694
S'change'
p758
sg696
F0.0
sg697
I0
sg698
(dp759
Vlife
p760
I0
ssasS'num_cards'
p761
I1
sa(dp762
S'title'
p763
Vmittleres Heilen
p764
sS'num_cards'
p765
I4
sS'actions'
p766
(lp767
(dp768
S'target'
p769
S'self'
p770
sS'level'
p771
S'id'
p772
sS'type'
p773
S'change'
p774
sS'random'
p775
I0
sS'num_units'
p776
S''
p777
sS'changes'
p778
(dp779
Vlife
p780
I0
ssasS'description'
p781
Veine eigene Gruppe kann geheilt werden
p782
sassS'engine_parameters'
p783
(dp784
S'max_victory_diff'
p785
F350.0
sS'start_account'
p786
F200.0
sS'all_sectors'
p787
(dp788
I1
(dp789
S'victory'
p790
I0
sS'weight'
p791
F1.0
ssI2
(dp792
g790
I0
sg791
F1.0
ssI3
(dp793
g790
I0
sg791
F1.0
ssI4
(dp794
g790
I0
sg791
F1.0
ssI5
(dp795
g790
I2
sg791
F1.0
ssI6
(dp796
g790
I0
sg791
F1.0
ssI7
(dp797
g790
I0
sg791
F1.0
ssI8
(dp798
g790
I0
sg791
F1.0
ssI9
(dp799
g790
I1
sg791
F1.0
ssI10
(dp800
g790
I1
sg791
F1.0
ssI11
(dp801
g790
I0
sg791
F1.0
ssI12
(dp802
g790
I0
sg791
F1.0
ssI13
(dp803
g790
I0
sg791
F1.0
ssI14
(dp804
g790
I0
sg791
F1.0
ssI15
(dp805
g790
I0
sg791
F1.0
ssI16
(dp806
g790
I2
sg791
F1.0
ssI17
(dp807
g790
I0
sg791
F1.0
ssI18
(dp808
g790
I0
sg791
F1.0
sssS'delay_damage'
p809
F0.5
sS'extra_shoot_dist'
p810
F2.0
sS'per_sector_per_tick'
p811
F1.0
sS'protection_in'
p812
F18.0
sS'tick_duration'
p813
F11.0
sS'protection_effect'
p814
F0.4
sS'take_over_factor'
p815
F1.3
sS'sector_takeover'
p816
F100.0
sS'protection_out'
p817
F10.0
sS'constant_per_tick'
p818
F4.0
ssS'transport_parameters'
p819
(dp820
I0
(dp821
g154
(dp822
g156
(dp823
I0
(lp824
ssg159
(dp825
I0
(lp826
sssg162
(dp827
S'delay_walk'
p828
I15
sg164
I100
sS'walk_dist'
p829
I10
sg167
I10
sg168
VTransporter
p830
sg327
I0
sg170
F0.4
sg173
I0
sg174
I20
sg328
I0
sg176
I200
sg321
I100
sg55
I25
sg322
I8
sg323
I0
sg326
I5
sg177
(dp831
VPanzerung
p832
(dp833
S'delay'
p834
I0
sS'category'
p835
Vupgrade
p836
sS'price'
p837
I50
sg687
(lp838
(dp839
S'target'
p840
S'self'
p841
sS'level'
p842
S'id'
p843
sS'type'
p844
S'change'
p845
sS'random'
p846
I0
sS'num_units'
p847
I0
sS'changes'
p848
(dp849
Vdelay_walk
p850
I3
sVelite
p851
I1
sVshield
p852
I40
sg687
(dp853
VCasspir
p854
(dp855
g834
I0
sg835
Vupgrade
p856
sg837
I70
sg687
(lp857
(dp858
g840
g841
sg842
g843
sg844
g845
sg846
I0
sg847
I0
sg848
(dp859
Vdelay_walk
p860
I-5
sVelite
p861
I1
sVshield
p862
I50
sVmax_shield
p863
I40
ssasS'num_uses'
p864
I1
sssVmax_shield
p865
I30
ssasg864
I1
ssVMG
p866
(dp867
g834
I0
sg835
Vupgrade
p868
sg837
I40
sg687
(lp869
(dp870
g840
Vself
p871
sg842
Vid
p872
sg844
Vchange
p873
sg846
F0.0
sg847
I0
sg848
(dp874
Vattack_min
p875
I20
sVelite
p876
I1
sVattack_max
p877
I40
sg687
(dp878
VKampfmaschine
p879
(dp880
g834
I0
sg835
Vupgrade
p881
sg837
I80
sg687
(lp882
(dp883
g840
g841
sg842
g843
sg844
g845
sg846
I0
sg847
I0
sg848
(dp884
Vshield_factor
p885
F0.2
sVattack_min
p886
I30
sVelite
p887
I1
sVattack_max
p888
I30
ssasg864
I1
ssssasg864
I1
ssVSpeed up (laden & ziehen)
p889
(dp890
g610
I0
sg611
Vupgrade
p891
sg613
I30
sg614
(lp892
(dp893
g203
g617
sg207
g618
sg201
g619
sg620
I0
sg621
I0
sg622
(dp894
Vdelay_walk
p895
I-2
sVelite
p896
I1
sg614
(dp897
VSpeed up (nur ziehen)
p898
(dp899
g610
I0
sg611
Vupgrade
p900
sg613
I40
sg614
(lp901
(dp902
g203
g617
sg207
g618
sg201
g619
sg620
I0
sg621
I0
sg622
(dp903
Vdelay_walk
p904
I-2
sVwalk_dist
p905
I1
sVelite
p906
I1
ssasg639
I1
sssVdelay_shoot
p907
I-2
ssasg639
I1
ssVmehr Platz I
p908
(dp909
g834
I0
sg835
Vupgrade
p910
sg837
I30
sg687
(lp911
(dp912
g840
g841
sg842
g843
sg844
g845
sg846
I0
sg847
I0
sg848
(dp913
Vcapacity
p914
I5
sVelite
p915
I1
sg687
(dp916
Vmehr Platz II
p917
(dp918
g834
I0
sg835
Vupgrade
p919
sg837
I40
sg687
(lp920
(dp921
g840
g841
sg842
g843
sg844
g845
sg846
I0
sg847
I0
sg848
(dp922
Vcapacity
p923
I8
sVelite
p924
I1
ssasg864
I1
ssssasg864
I1
sssS'transports'
p925
Vsoldier
p926
sg175
I10
sg329
I4
sg330
I25
sssI1
(dp927
g332
(dp928
g334
(dp929
I0
(lp930
ssg337
(dp931
I0
(lp932
sssg340
(dp933
S'delay_walk'
p934
I15
sg342
I100
sS'walk_dist'
p935
I10
sg345
I10
sg346
VHelikopter
p936
sg349
I0
sg348
F0.4
sg352
I0
sg353
I20
sg425
I1
sg355
I200
sg356
I100
sg55
I50
sg424
I8
sg420
I0
sg423
I6
sg357
(dp937
VBombe abwerfen
p938
(dp939
g361
I15
sg362
Vstandard
p940
sg355
I80
sg357
(lp941
(dp942
g366
Venemy
p943
sg368
Vid
p944
sg370
Vchange
p945
sg372
F0.3
sg373
I7
sg374
(dp946
Vlife
p947
I-6
sg357
(dp948
ssasg377
I-1
ssVschneller fliegen
p949
(dp950
S'delay'
p951
I0
sS'category'
p952
Vupgrade
p953
sS'price'
p954
I30
sS'actions'
p955
(lp956
(dp957
S'target'
p958
S'self'
p959
sS'level'
p960
S'id'
p961
sS'type'
p962
S'change'
p963
sS'random'
p964
I0
sS'num_units'
p965
I0
sS'changes'
p966
(dp967
Vdelay_walk
p968
I-3
sg955
(dp969
Vsuper Speed
p970
(dp971
g951
I0
sg952
Vupgrade
p972
sg954
I50
sg955
(lp973
(dp974
g958
g959
sg960
g961
sg962
g963
sg964
I0
sg965
I0
sg966
(dp975
Vdelay_walk
p976
I-2
sVwalk_dist
p977
I1
ssasS'num_uses'
p978
I1
ssssasg978
I1
sssS'transports'
p979
Vsoldier
p980
sg354
I10
sg426
I4
sg427
I50
sssI2
(dp981
S'elite_parameters'
p982
(dp983
S'ticks'
p984
(dp985
I0
(lp986
ssS'damage'
p987
(dp988
I0
(lp989
sssS'basic_parameters'
p990
(dp991
S'delay_walk'
p992
I18
sS'life'
p993
I150
sS'walk_dist'
p994
I9
sS'capacity'
p995
I3
sS'name'
p996
VFahrzeug Transporter
p997
sS'transports'
p998
Vvehicle
p999
sS'shield_factor'
p1000
F0.4
sS'attack_min'
p1001
I0
sS'shield'
p1002
I20
sS'delay_shoot'
p1003
I15
sS'delay_in'
p1004
I25
sg444
I300
sS'max_life'
p1005
I150
sg55
I20
sS'delay_out'
p1006
I15
sg445
(dp1007
Vmehr Platz
p1008
(dp1009
g441
I0
sg442
Vupgrade
p1010
sg444
I50
sg445
(lp1011
(dp1012
g448
g449
sg450
g451
sg452
g453
sg454
I0
sg455
I0
sg456
(dp1013
Vcapacity
p1014
I2
ssasg461
I1
sssS'shoot_dist'
p1015
I5
sS'elite'
p1016
I0
sg451
I2
sS'num_enemies'
p1017
I4
sS'attack_max'
p1018
I0
ssssS'unit_parameters'
p1019
(dp1020
I0
(dp1021
S'elite_parameters'
p1022
(dp1023
S'ticks'
p1024
(dp1025
I1000
(lp1026
(dp1027
g840
g841
sg842
g843
sg844
g845
sg846
I0
sg847
I0
sg848
(dp1028
Vlife
p1029
I10
sVelite
p1030
I1
sVshield
p1031
I15
ssasI500
(lp1032
(dp1033
g840
g841
sg842
g843
sg844
g845
sg846
I0
sg847
I0
sg848
(dp1034
Vlife
p1035
I10
sVelite
p1036
I1
sVshield
p1037
I15
ssassS'damage'
p1038
(dp1039
I1000
(lp1040
(dp1041
S'target'
p1042
S'self'
p1043
sS'level'
p1044
S'id'
p1045
sS'type'
p1046
S'change'
p1047
sS'random'
p1048
I0
sS'num_units'
p1049
I0
sS'changes'
p1050
(dp1051
Vshoot_dist
p1052
I2
sVmax_life
p1053
I8
sVelite
p1054
I1
sVattack_max
p1055
I11
ssasI500
(lp1056
(dp1057
g840
g841
sg842
g843
sg844
g845
sg846
I0
sg847
I0
sg848
(dp1058
Velite
p1059
I1
sVattack_max
p1060
I8
ssasI750
(lp1061
(dp1062
g1042
g1043
sg1044
g1045
sg1046
g1047
sg1048
I0
sg1049
I0
sg1050
(dp1063
Vattack_min
p1064
I8
sVelite
p1065
I1
sVattack_max
p1066
I10
ssasssS'basic_parameters'
p1067
(dp1068
S'delay_walk'
p1069
I15
sS'life'
p1070
I50
sS'walk_dist'
p1071
I5
sS'name'
p1072
VSoldat
p1073
sS'shield_factor'
p1074
F0.5
sS'num_enemies'
p1075
I4
sS'attack_min'
p1076
I10
sS'delay_shoot'
p1077
I15
sS'unit_type'
p1078
Vsoldier
p1079
sS'max_life'
p1080
I50
sg55
I0
sS'attack_max'
p1081
I20
sS'shoot_dist'
p1082
I6
sS'price'
p1083
I70
sS'elite'
p1084
I0
sS'id'
p1085
I0
sS'actions'
p1086
(dp1087
VSchutzweste
p1088
(dp1089
g361
I0
sg362
Vupgrade
p1090
sg355
I30
sg357
(lp1091
(dp1092
g366
g526
sg368
g425
sg370
g527
sg372
I0
sg373
I0
sg374
(dp1093
Vmax_shield
p1094
I10
sVshield
p1095
I10
sg357
(dp1096
VSchild & wenig heilen
p1097
(dp1098
g361
I0
sg362
Vupgrade
p1099
sg355
I50
sg357
(lp1100
(dp1101
g366
g526
sg368
g425
sg370
g527
sg372
I0
sg373
I0
sg374
(dp1102
Velite
p1103
I1
sVlife
p1104
I15
sVmax_life
p1105
I6
sVmax_shield
p1106
I15
sVshield
p1107
I15
ssasg377
I1
ssssasg377
I1
ssV2 HG
p1108
(dp1109
S'delay'
p1110
I0
sS'category'
p1111
Vequipment
p1112
sg176
I70
sg177
(lp1113
(dp1114
S'target'
p1115
S'self'
p1116
sS'level'
p1117
S'id'
p1118
sS'type'
p1119
S'change'
p1120
sS'random'
p1121
I0
sS'num_units'
p1122
I0
sS'changes'
p1123
(dp1124
S'actions'
p1125
(dp1126
VHG
p1127
(dp1128
S'delay'
p1129
I7
sS'category'
p1130
Vstandard
p1131
sS'price'
p1132
I0
sg1125
(lp1133
(dp1134
g1115
Venemy
p1135
sg1117
Vid
p1136
sg1119
Vchange
p1137
sg1121
F0.25
sg1122
I3
sg1123
(dp1138
Vlife
p1139
I-10
ssasS'num_uses'
p1140
I2
ssssasS'num_uses'
p1141
I-1
ssVneue Munition
p1142
(dp1143
g1110
I0
sg1111
Vupgrade
p1144
sg176
I20
sg177
(lp1145
(dp1146
S'target'
p1147
S'self'
p1148
sS'level'
p1149
g328
sS'type'
p1150
S'change'
p1151
sS'random'
p1152
I0
sS'num_units'
p1153
I0
sS'changes'
p1154
(dp1155
Vattack_min
p1156
I5
sVattack_max
p1157
I5
sg177
(dp1158
VSchnellfeuer
p1159
(dp1160
g1110
I0
sg1111
Vupgrade
p1161
sg176
I30
sg177
(lp1162
(dp1163
g1147
g1148
sg1149
g328
sg1150
g1151
sg1152
I0
sg1153
I0
sg1154
(dp1164
Vnum_enemies
p1165
I2
sVattack_min
p1166
I4
sVelite
p1167
I1
sVattack_max
p1168
I8
sS'actions'
p1169
(dp1170
VFlammenwerfer
p1171
(dp1172
g610
I0
sg611
Vupgrade
p1173
sg613
I40
sg614
(lp1174
(dp1175
g203
g617
sg207
g618
sg201
g619
sg620
I0
sg621
I0
sg622
(dp1176
Vnum_enemies
p1177
I4
sVattack_min
p1178
I10
sVelite
p1179
I1
sVattack_max
p1180
I10
ssasg639
I1
ssVSchildexperte
p1181
(dp1182
S'delay'
p1183
I0
sS'category'
p1184
Vupgrade
p1185
sS'price'
p1186
I0
sg1169
(lp1187
sS'num_uses'
p1188
I0
ssssasg1141
I1
ssVSchildexperte
p1189
(dp1190
g1110
I0
sg1111
Vupgrade
p1191
sg176
I30
sg177
(lp1192
(dp1193
g1147
g1148
sg1149
g328
sg1150
g1151
sg1152
I0
sg1153
I0
sg1154
(dp1194
Vshield_factor
p1195
F0.1
sVattack_min
p1196
I6
sVelite
p1197
I1
sVattack_max
p1198
I4
sg177
(dp1199
VSchnellfeuer
p1200
(dp1201
S'delay'
p1202
I0
sS'category'
p1203
Vupgrade
p1204
sS'price'
p1205
I0
sS'actions'
p1206
(lp1207
sS'num_uses'
p1208
I0
ssVPanzerbrecher
p1209
(dp1210
g610
I0
sg611
Vupgrade
p1211
sg613
I40
sg614
(lp1212
(dp1213
g203
g617
sg207
g618
sg201
g619
sg620
I0
sg621
I0
sg622
(dp1214
Vshield_factor
p1215
F0.2
sVattack_min
p1216
I4
sVelite
p1217
I1
sVattack_max
p1218
I10
ssasg639
I1
ssssasg1141
I1
ssssasg1141
I1
ssVneue Schuhe
p1219
(dp1220
g1110
I0
sg1111
Vupgrade
p1221
sg176
I20
sg177
(lp1222
(dp1223
g1147
Vself
p1224
sg1149
Vid
p1225
sg1150
Vchange
p1226
sg1152
F0.0
sg1153
F1.0
sg1154
(dp1227
Vdelay_walk
p1228
I-2
sVwalk_dist
p1229
I1
sVelite
p1230
I1
sg177
(dp1231
ssasg1141
I1
sssS'shield'
p1232
I0
sssI1
(dp1233
g1022
(dp1234
g1024
(dp1235
I1000
(lp1236
(dp1237
g1147
g1148
sg1149
g328
sg1150
g1151
sg1152
I0
sg1153
I0
sg1154
(dp1238
Vmax_shield
p1239
I10
sVwalk_dist
p1240
I1
sVelite
p1241
I1
sVshield
p1242
I10
ssasI400
(lp1243
(dp1244
S'target'
p1245
S'self'
p1246
sS'level'
p1247
S'id'
p1248
sS'type'
p1249
S'change'
p1250
sS'random'
p1251
I0
sS'num_units'
p1252
I0
sS'changes'
p1253
(dp1254
Vdelay_walk
p1255
I-2
sVlife
p1256
I20
sVwalk_dist
p1257
I1
sVelite
p1258
I1
ssasI700
(lp1259
(dp1260
g1245
g1246
sg1247
g1248
sg1249
g1250
sg1251
I0
sg1252
I0
sg1253
(dp1261
Velite
p1262
I1
sVlife
p1263
I15
sVmax_life
p1264
I10
sVmax_shield
p1265
I8
sVshield
p1266
I13
ssassg1038
(dp1267
I0
(lp1268
sssg1067
(dp1269
g1069
I15
sg1070
I40
sg1071
I5
sg1072
VIngenieur
p1270
sg1074
F0.4
sg1075
I1
sg1076
I3
sg1077
I15
sg1078
Vsoldier
p1271
sg1080
I40
sg55
I0
sg1081
I5
sg1082
I2
sg1083
I100
sg1084
I0
sg1085
I1
sg1086
(dp1272
VSchild-Mech
p1273
(dp1274
g651
I8
sg652
Vupgrade
p1275
sg654
I80
sg655
(lp1276
(dp1277
g658
Vown
p1278
sg660
Vid
p1279
sg662
Vchange
p1280
sg664
F0.0
sg665
I0
sg666
(dp1281
Vshield
p1282
I10
ssa(dp1283
g658
g659
sg660
g661
sg662
g663
sg664
I0
sg665
I0
sg666
(dp1284
g655
(dp1285
Vreparieren 3x10
p1286
(dp1287
g651
I7
sg652
Vstandard
p1288
sg654
I50
sg655
(lp1289
(dp1290
g658
Vown
p1291
sg660
Vid
p1292
sg662
Vchange
p1293
sg664
F0.2
sg665
I3
sg666
(dp1294
Vshield
p1295
I10
ssasg678
I-1
ssVTeile ersetzen 6x10
p1296
(dp1297
g651
I7
sg652
Vstandard
p1298
sg654
I90
sg655
(lp1299
(dp1300
g658
Vown
p1301
sg660
Vid
p1302
sg662
Vchange
p1303
sg664
F0.1
sg665
I6
sg666
(dp1304
Vshield
p1305
I10
ssasg678
I-1
ssssasg678
I1
ssVBruecke bauen
p1306
(dp1307
S'delay'
p1308
I40
sS'category'
p1309
Vshop
p1310
sS'price'
p1311
I100
sS'actions'
p1312
(lp1313
(dp1314
S'target'
p1315
S'self'
p1316
sS'level'
p1317
S'id'
p1318
sS'type'
p1319
S'change'
p1320
sS'random'
p1321
I0
sS'num_units'
p1322
I0
sS'changes'
p1323
(dp1324
Vlife
p1325
I0
ssasS'num_uses'
p1326
I-1
ssVMG-Nest
p1327
(dp1328
S'delay'
p1329
I30
sS'category'
p1330
Vshop
p1331
sS'price'
p1332
I70
sS'actions'
p1333
(lp1334
(dp1335
g99
Vnew
p1336
sg95
Vown
p1337
sS'parameters'
p1338
I6
sg97
Vbuildings
p1339
sasS'num_uses'
p1340
I-1
ssVleichtere Ausruestung
p1341
(dp1342
g651
I0
sg652
Vupgrade
p1343
sg654
I30
sg655
(lp1344
(dp1345
g658
g659
sg660
g661
sg662
g663
sg664
I0
sg665
I0
sg666
(dp1346
Vdelay_walk
p1347
I-2
sVwalk_dist
p1348
I1
sVelite
p1349
I1
ssasg678
I1
ssVWerkstatt
p1350
(dp1351
g390
I60
sg391
Vshop
p1352
sg393
I700
sg394
(lp1353
(dp1354
g401
Vnew
p1355
sg397
Vown
p1356
sS'parameters'
p1357
I3
sg399
Vbuildings
p1358
sasg409
I-1
ssVFlugplatz
p1359
(dp1360
g487
I50
sg488
Vshop
p1361
sg490
I400
sg491
(lp1362
(dp1363
S'type'
p1364
Vnew
p1365
sS'target'
p1366
Vown
p1367
sS'parameters'
p1368
I4
sS'level'
p1369
Vbuildings
p1370
sasg497
I-1
ssVLazarett
p1371
(dp1372
g487
I50
sg488
Vshop
p1373
sg490
I500
sg491
(lp1374
(dp1375
g1364
Vnew
p1376
sg1366
Vown
p1377
sg1368
I2
sg1369
Vbuildings
p1378
sasg497
I-1
ssVKaserne
p1379
(dp1380
g1110
I60
sg1111
Vshop
p1381
sg176
I600
sg177
(lp1382
(dp1383
g1150
Vnew
p1384
sg1147
Vown
p1385
sS'parameters'
p1386
I1
sg1149
Vbuildings
p1387
sasg1141
I-1
ssVKampfingenieur
p1388
(dp1389
g234
I0
sg235
Vupgrade
p1390
sg237
I70
sg238
(lp1391
(dp1392
g219
g220
sg221
g222
sg223
g224
sg225
I0
sg226
I0
sg227
(dp1393
Vshield
p1394
I8
sVattack_min
p1395
I10
sg238
(dp1396
V3 Granaten
p1397
(dp1398
g234
I0
sg235
Vequipment
p1399
sg237
I70
sg238
(lp1400
(dp1401
g219
Vself
p1402
sg221
Vid
p1403
sg223
Vchange
p1404
sg225
F0.4
sg226
I3
sg227
(dp1405
g238
(dp1406
VGranate
p1407
(dp1408
g234
I10
sg235
Vstandard
p1409
sg237
I0
sg238
(lp1410
(dp1411
g219
Venemy
p1412
sg221
Vid
p1413
sg223
Vchange
p1414
sg225
F0.4
sg226
I3
sg227
(dp1415
Vlife
p1416
I-15
ssasg291
I3
ssssasg291
I-1
sssVmax_shield
p1417
I8
sVattack_max
p1418
I15
sVelite
p1419
I1
ssasg291
I1
sssg1232
I0
sssI2
(dp1420
g1022
(dp1421
g1024
(dp1422
I400
(lp1423
(dp1424
g1245
g1246
sg1247
g1248
sg1249
g1250
sg1251
I0
sg1252
I0
sg1253
(dp1425
Vdelay_walk
p1426
I-2
sVlife
p1427
I15
sVelite
p1428
I1
sVshield
p1429
I8
ssasI800
(lp1430
(dp1431
g1245
g1246
sg1247
g1248
sg1249
g1250
sg1251
I0
sg1252
I0
sg1253
(dp1432
Vlife
p1433
I15
sVmax_life
p1434
I10
sVelite
p1435
I1
sVshield
p1436
I10
sVdelay_shoot
p1437
I-2
ssassg1038
(dp1438
I500
(lp1439
(dp1440
S'target'
p1441
S'self'
p1442
sS'level'
p1443
S'id'
p1444
sS'type'
p1445
S'change'
p1446
sS'random'
p1447
I0
sS'num_units'
p1448
I0
sS'changes'
p1449
(dp1450
Vshield_factor
p1451
F0.1
sVattack_min
p1452
I10
sVelite
p1453
I1
sS'actions'
p1454
(dp1455
VSchusstraining
p1456
(dp1457
S'delay'
p1458
I0
sS'category'
p1459
Vupgrade
p1460
sS'price'
p1461
I40
sg1454
(lp1462
(dp1463
g301
g302
sg303
g304
sg305
g306
sg307
I0
sg308
I0
sg309
(dp1464
Vshoot_dist
p1465
I1
sVelite
p1466
I1
sVdelay_shoot
p1467
I-4
ssasS'num_uses'
p1468
I1
ssssasssg1067
(dp1469
g1069
I18
sg1070
I80
sg1071
I5
sg1072
VMG-Soldat
p1470
sg1074
F0.55
sg1075
I10
sg1076
I20
sg1077
I20
sg1078
Vsoldier
p1471
sg1080
I80
sg55
I20
sg1081
I60
sg1082
I7
sg1083
I175
sg1084
I0
sg1085
I2
sg1086
(dp1472
Vbessere Munition
p1473
(dp1474
g234
I0
sg235
Vupgrade
p1475
sg237
I40
sg238
(lp1476
(dp1477
g219
g220
sg221
g222
sg223
g224
sg225
I0
sg226
I0
sg227
(dp1478
Vattack_min
p1479
I10
sVattack_max
p1480
I5
sg238
(dp1481
VPanzerbrecher
p1482
(dp1483
g234
I0
sg235
Vupgrade
p1484
sg237
I60
sg238
(lp1485
(dp1486
g219
g220
sg221
g222
sg223
g224
sg225
I0
sg226
I0
sg227
(dp1487
Vshield_factor
p1488
F0.1
sVelite
p1489
I1
sVattack_max
p1490
I15
sg238
(dp1491
VBazooka
p1492
(dp1493
g234
I0
sg235
Vupgrade
p1494
sg237
I80
sg238
(lp1495
(dp1496
g219
g220
sg221
g222
sg223
g224
sg225
I0
sg226
I0
sg227
(dp1497
Vshield_factor
p1498
F0.15
sVattack_min
p1499
I15
sVelite
p1500
I1
sVnum_enemies
p1501
I2
sVattack_max
p1502
I10
ssasg291
I1
ssssasg291
I1
ssssasg291
I1
ssVKampfausbildung
p1503
(dp1504
S'delay'
p1505
I0
sS'category'
p1506
Vupgrade
p1507
sS'price'
p1508
I40
sS'actions'
p1509
(lp1510
(dp1511
S'target'
p1512
S'self'
p1513
sS'level'
p1514
S'id'
p1515
sS'type'
p1516
S'change'
p1517
sS'random'
p1518
I0
sS'num_units'
p1519
I0
sS'changes'
p1520
(dp1521
Vshoot_dist
p1522
I1
sVelite
p1523
I1
sVdelay_shoot
p1524
I-5
ssasS'num_uses'
p1525
I1
ssVSpeed I
p1526
(dp1527
g487
I0
sg488
Vupgrade
p1528
sg490
I40
sg491
(lp1529
(dp1530
g219
g220
sg221
g222
sg223
g224
sg225
I0
sg226
I0
sg227
(dp1531
Vdelay_walk
p1532
I-5
sVelite
p1533
I1
sg238
(dp1534
VSpeed II
p1535
(dp1536
g234
I0
sg235
Vupgrade
p1537
sg237
I50
sg238
(lp1538
(dp1539
g219
g220
sg221
g222
sg223
g224
sg225
I0
sg226
I0
sg227
(dp1540
Vdelay_walk
p1541
I-5
sVwalk_dist
p1542
I1
sVelite
p1543
I1
sVdelay_shoot
p1544
I-3
ssasg291
I1
ssssasg497
I1
sssg1232
I20
sssI3
(dp1545
g1022
(dp1546
g1024
(dp1547
I400
(lp1548
(dp1549
g1245
g1246
sg1247
g1248
sg1249
g1250
sg1251
I0
sg1252
I0
sg1253
(dp1550
Velite
p1551
I1
sVattack_min
p1552
I5
sVmax_shield
p1553
I8
sVshield
p1554
I8
ssasI800
(lp1555
(dp1556
g1245
g1246
sg1247
g1248
sg1249
g1250
sg1251
I0
sg1252
I0
sg1253
(dp1557
Vshield_factor
p1558
F0.1
sVattack_min
p1559
I8
sVelite
p1560
I1
sVattack_max
p1561
I14
ssassg1038
(dp1562
I0
(lp1563
sI250
(lp1564
(dp1565
g397
g398
sg399
g400
sg401
g402
sg403
I0
sg404
I0
sg405
(dp1566
Vattack_min
p1567
I8
sVelite
p1568
I1
sVattack_max
p1569
I8
sg394
(dp1570
Vschneller laden
p1571
(dp1572
g390
I0
sg391
Vupgrade
p1573
sg393
I40
sg394
(lp1574
(dp1575
g397
g398
sg399
g400
sg401
g402
sg403
I0
sg404
I0
sg405
(dp1576
Vdelay_shoot
p1577
I-4
ssasg409
I1
ssssasssg1067
(dp1578
g1069
I15
sg1070
I50
sg1071
I5
sg1072
VSniper
p1579
sg1074
F0.6
sg1075
I1
sg1076
I40
sg1077
I20
sg1078
Vsoldier
p1580
sg1080
I50
sg55
I0
sg1081
I60
sg1082
I10
sg1083
I200
sg1084
I0
sg1085
I3
sg1086
(dp1581
VSchutzweste
p1582
(dp1583
g181
I0
sg182
Vupgrade
p1584
sg184
I30
sg185
(lp1585
(dp1586
g188
g189
sg190
g191
sg192
g193
sg194
I0
sg195
I0
sg196
(dp1587
Vmax_shield
p1588
I10
sVshield
p1589
I10
ssasg209
I1
ssVSpeed I (ziehen und laden)
p1590
(dp1591
g181
I0
sg182
Vupgrade
p1592
sg184
I30
sg185
(lp1593
(dp1594
g188
g189
sg190
g191
sg192
g193
sg194
I0
sg195
I0
sg196
(dp1595
Vwalk_dist
p1596
I1
sVelite
p1597
I1
sVdelay_shoot
p1598
I-2
ssasg209
I1
ssVhoehere Schussweite
p1599
(dp1600
S'delay'
p1601
I0
sS'category'
p1602
Vupgrade
p1603
sS'price'
p1604
I40
sg705
(lp1605
(dp1606
S'target'
p1607
S'self'
p1608
sS'level'
p1609
S'id'
p1610
sS'type'
p1611
S'change'
p1612
sS'random'
p1613
I0
sS'num_units'
p1614
I0
sS'changes'
p1615
(dp1616
Vshoot_dist
p1617
I1
sVelite
p1618
I1
sg705
(dp1619
VDistanzexperte
p1620
(dp1621
g1601
I0
sg1602
Vupgrade
p1622
sg1604
I50
sg705
(lp1623
(dp1624
g1607
g1608
sg1609
g1610
sg1611
g1612
sg1613
I0
sg1614
I0
sg1615
(dp1625
Vshoot_dist
p1626
I1
sVattack_min
p1627
I8
sVelite
p1628
I1
sg705
(dp1629
ssasS'num_uses'
p1630
I1
ssssasg1630
I1
ssVPraezision
p1631
(dp1632
S'delay'
p1633
I0
sS'category'
p1634
Vupgrade
p1635
sS'price'
p1636
I30
sg532
(lp1637
(dp1638
S'target'
p1639
S'self'
p1640
sS'level'
p1641
S'id'
p1642
sS'type'
p1643
S'change'
p1644
sS'random'
p1645
I0
sS'num_units'
p1646
I0
sS'changes'
p1647
(dp1648
Vattack_min
p1649
I15
sVelite
p1650
I1
sVattack_max
p1651
I8
sg394
(dp1652
Vbessere Munition
p1653
(dp1654
g390
I0
sg391
Vupgrade
p1655
sg393
I40
sg394
(lp1656
(dp1657
g397
g398
sg399
g400
sg401
g402
sg403
I0
sg404
I0
sg405
(dp1658
Vshield_factor
p1659
F0.05
sVattack_min
p1660
I15
sVelite
p1661
I1
sVattack_max
p1662
I10
sg394
(dp1663
VSchildzerstoerer
p1664
(dp1665
g390
I0
sg391
Vupgrade
p1666
sg393
I30
sg394
(lp1667
(dp1668
g397
g398
sg399
g400
sg401
g402
sg403
I0
sg404
I0
sg405
(dp1669
Vshield_factor
p1670
F0.2
sVelite
p1671
I1
sVattack_max
p1672
I8
sg298
(dp1673
VDoppelschuss
p1674
(dp1675
g294
I0
sg295
Vupgrade
p1676
sg297
I0
sg298
(lp1677
sg320
I0
ssssasg409
I1
ssssasg409
I1
ssVDoppelschuss
p1678
(dp1679
g1601
I0
sg1602
Vupgrade
p1680
sg1604
I60
sg705
(lp1681
(dp1682
g1607
g1608
sg1609
g1610
sg1611
g1612
sg1613
I0
sg1614
I0
sg1615
(dp1683
Vnum_enemies
p1684
I1
sVattack_min
p1685
I8
sVelite
p1686
I1
sVattack_max
p1687
I15
sg298
(dp1688
VSchildzerstoerer
p1689
(dp1690
g294
I0
sg295
Vupgrade
p1691
sg297
I0
sg298
(lp1692
sg320
I0
ssssasg1630
I1
ssssasS'num_uses'
p1693
I1
sssg1232
I0
sssI4
(dp1694
g1022
(dp1695
g1024
(dp1696
I0
(lp1697
sI600
(lp1698
(dp1699
g1245
g1246
sg1247
g1248
sg1249
g1250
sg1251
I0
sg1252
I0
sg1253
(dp1700
Vdelay_walk
p1701
I-3
sVelite
p1702
I1
sVshield
p1703
I30
sVmax_shield
p1704
I15
ssasI300
(lp1705
(dp1706
g1245
g1246
sg1247
g1248
sg1249
g1250
sg1251
I0
sg1252
I0
sg1253
(dp1707
Vdelay_walk
p1708
I-2
sVelite
p1709
I1
sVshield
p1710
I15
sVdelay_shoot
p1711
I-3
ssassg1038
(dp1712
I500
(lp1713
(dp1714
g188
g189
sg190
g191
sg192
g193
sg194
I0
sg195
I0
sg196
(dp1715
Vshield_factor
p1716
F0.07
sVattack_min
p1717
I10
sVelite
p1718
I1
sVattack_max
p1719
I5
ssasssg1067
(dp1720
g1069
I18
sg1070
I100
sg1071
I5
sg1072
VPanzer
p1721
sg1074
F0.6
sg1075
I8
sg1076
I50
sg1077
I18
sg1078
Vvehicle
p1722
sg1080
I100
sg55
I100
sg1081
I90
sg1082
I7
sg1083
I400
sg1084
I0
sg1085
I4
sg1086
(dp1723
VShottpanzerung
p1724
(dp1725
g610
I0
sg611
Vupgrade
p1726
sg613
I70
sg614
(lp1727
(dp1728
g203
g617
sg207
g618
sg201
g619
sg620
I0
sg621
I0
sg622
(dp1729
Vdelay_walk
p1730
I3
sVelite
p1731
I1
sVshield
p1732
I50
sg614
(dp1733
VVerbundpanzerung
p1734
(dp1735
g610
I0
sg611
Vupgrade
p1736
sg613
I40
sg614
(lp1737
(dp1738
g203
g617
sg207
g618
sg201
g619
sg620
I0
sg621
I0
sg622
(dp1739
Vdelay_walk
p1740
I-3
sVlife
p1741
I10
sVelite
p1742
I1
sVshield
p1743
I25
sVmax_shield
p1744
I15
ssasg639
I1
sssVmax_shield
p1745
I30
ssasg639
I1
ssVHartkernmunition
p1746
(dp1747
S'delay'
p1748
I0
sS'category'
p1749
Vupgrade
p1750
sS'price'
p1751
I30
sS'actions'
p1752
(lp1753
(dp1754
S'target'
p1755
Vself
p1756
sS'level'
p1757
Vid
p1758
sS'type'
p1759
Vchange
p1760
sS'random'
p1761
F0.0
sS'num_units'
p1762
I0
sS'changes'
p1763
(dp1764
Vshield_factor
p1765
F0.15
sVelite
p1766
I1
sVattack_max
p1767
I8
sS'actions'
p1768
(dp1769
VUrangeschoss
p1770
(dp1771
S'delay'
p1772
I0
sS'category'
p1773
Vupgrade
p1774
sS'price'
p1775
I80
sg1768
(lp1776
(dp1777
S'target'
p1778
Vself
p1779
sS'level'
p1780
Vid
p1781
sS'type'
p1782
Vchange
p1783
sS'random'
p1784
F0.0
sS'num_units'
p1785
I0
sS'changes'
p1786
(dp1787
Vshield_factor
p1788
F0.2
sVattack_min
p1789
I15
sVelite
p1790
I1
sVattack_max
p1791
I15
ssasS'num_uses'
p1792
I1
ssssasS'num_uses'
p1793
I1
ssVSpeed I
p1794
(dp1795
g487
I0
sg488
Vupgrade
p1796
sg490
I20
sg491
(lp1797
(dp1798
g1755
S'self'
p1799
sg1757
S'id'
p1800
sg1759
S'change'
p1801
sg1761
I0
sg1762
I0
sg1763
(dp1802
Vdelay_walk
p1803
I-2
sg1752
(dp1804
VSpeed II
p1805
(dp1806
g1748
I0
sg1749
Vupgrade
p1807
sg1751
I40
sg1752
(lp1808
(dp1809
g1755
g1799
sg1757
g1800
sg1759
g1801
sg1761
I0
sg1762
I0
sg1763
(dp1810
Vdelay_walk
p1811
I-2
sVwalk_dist
p1812
I1
sVelite
p1813
I1
ssasg1793
I1
ssssasg497
I1
sssg1232
I100
sssI5
(dp1814
g1022
(dp1815
g1024
(dp1816
I0
(lp1817
sI500
(lp1818
(dp1819
S'target'
p1820
S'self'
p1821
sS'level'
p1822
S'id'
p1823
sS'type'
p1824
S'change'
p1825
sS'random'
p1826
I0
sS'num_units'
p1827
I0
sS'changes'
p1828
(dp1829
Vmax_life
p1830
I10
sVelite
p1831
I1
ssassg1038
(dp1832
I0
(lp1833
sssg1067
(dp1834
g1069
I15
sg1070
I100
sg1071
I5
sg1072
VArtillerie
p1835
sg1074
F0.5
sg1075
I10
sg1076
I0
sg1077
I35
sg1078
Vvehicle
p1836
sg1080
I100
sg55
I70
sg1081
I0
sg1082
I10
sg1083
I600
sg1084
I0
sg1085
I5
sg1086
(dp1837
Vgroessere Schussweite I
p1838
(dp1839
g1748
I0
sg1749
Vupgrade
p1840
sg1751
I40
sg1752
(lp1841
(dp1842
g1755
g1799
sg1757
g1800
sg1759
g1801
sg1761
I0
sg1762
I0
sg1763
(dp1843
Vshoot_dist
p1844
I1
sVelite
p1845
I1
sg468
(dp1846
Vgroessere Schussweite II
p1847
(dp1848
g464
I0
sg465
Vupgrade
p1849
sg467
I50
sg468
(lp1850
(dp1851
g471
g472
sg473
g474
sg475
g476
sg477
I0
sg478
I0
sg479
(dp1852
Vshoot_dist
p1853
I1
sVelite
p1854
I1
ssasg484
I1
ssVStreuung erhoehen
p1855
(dp1856
g464
I0
sg465
Vupgrade
p1857
sg467
I40
sg468
(lp1858
(dp1859
g471
g472
sg473
g474
sg475
g476
sg477
I0
sg478
I0
sg479
(dp1860
Vnum_enemies
p1861
I5
sVattack_min
p1862
I15
sVelite
p1863
I1
ssasg484
I1
ssssasg1793
I1
ssVAufbauen
p1864
(dp1865
S'delay'
p1866
I25
sS'category'
p1867
Vstandard
p1868
sS'price'
p1869
I0
sS'actions'
p1870
(lp1871
(dp1872
S'target'
p1873
S'self'
p1874
sS'level'
p1875
S'id'
p1876
sS'type'
p1877
S'change'
p1878
sS'random'
p1879
I0
sS'num_units'
p1880
I0
sS'changes'
p1881
(dp1882
Vattack_min
p1883
I100
sVwalk_dist
p1884
I-5
sVattack_max
p1885
I200
sg1870
(dp1886
VTransport
p1887
(dp1888
S'delay'
p1889
I30
sS'category'
p1890
Vequipment
p1891
sS'price'
p1892
I0
sS'actions'
p1893
(lp1894
(dp1895
S'target'
p1896
S'self'
p1897
sS'level'
p1898
S'id'
p1899
sS'type'
p1900
S'change'
p1901
sS'random'
p1902
I0
sS'num_units'
p1903
I0
sS'changes'
p1904
(dp1905
Vattack_min
p1906
I-100
sVwalk_dist
p1907
I5
sVattack_max
p1908
I-200
sg1893
(dp1909
VAufbau
p1910
(dp1911
g1889
I25
sg1890
Vstandard
p1912
sg1892
I0
sg1893
(lp1913
(dp1914
g1896
g1897
sg1898
g1899
sg1900
g1901
sg1902
I0
sg1903
I0
sg1904
(dp1915
Vattack_min
p1916
I100
sVattack_max
p1917
I200
sVwalk_dist
p1918
I-5
ssasS'num_uses'
p1919
I1
ssssasg1919
I-1
ssssasS'num_uses'
p1920
I1
ssVSpeed I
p1921
(dp1922
g487
I0
sg488
Vupgrade
p1923
sg490
I80
sg491
(lp1924
(dp1925
g471
g472
sg473
g474
sg475
g476
sg477
I0
sg478
I0
sg479
(dp1926
Vdelay_walk
p1927
I-4
sVelite
p1928
I1
sg468
(dp1929
VSpeed II
p1930
(dp1931
g464
I0
sg465
Vupgrade
p1932
sg467
I50
sg468
(lp1933
(dp1934
g471
g472
sg473
g474
sg475
g476
sg477
I0
sg478
I0
sg479
(dp1935
Vdelay_walk
p1936
I-2
sVelite
p1937
I1
sVdelay_shoot
p1938
I-8
ssasg484
I1
sssVdelay_shoot
p1939
I-8
ssasg497
I1
sssg1232
I70
sssI6
(dp1940
S'elite_parameters'
p1941
(dp1942
S'ticks'
p1943
(dp1944
I800
(lp1945
(dp1946
g1245
g1246
sg1247
g1248
sg1249
g1250
sg1251
I0
sg1252
I0
sg1253
(dp1947
Velite
p1948
I1
sVlife
p1949
I100
sVmax_life
p1950
I10
sVmax_shield
p1951
I8
sVshield
p1952
I15
ssasI400
(lp1953
(dp1954
g1245
g1246
sg1247
g1248
sg1249
g1250
sg1251
I0
sg1252
I0
sg1253
(dp1955
Vlife
p1956
I100
sVmax_life
p1957
I8
sVelite
p1958
I1
ssassS'damage'
p1959
(dp1960
I0
(lp1961
sssS'basic_parameters'
p1962
(dp1963
S'delay_walk'
p1964
I15
sS'life'
p1965
I50
sS'walk_dist'
p1966
I5
sS'name'
p1967
VArzt
p1968
sS'shield_factor'
p1969
F0.4
sS'num_enemies'
p1970
I3
sS'attack_min'
p1971
I0
sS'delay_shoot'
p1972
I15
sS'unit_type'
p1973
Vsoldier
p1974
sS'max_life'
p1975
I50
sg55
I10
sS'attack_max'
p1976
I0
sS'shoot_dist'
p1977
I5
sg1461
I120
sS'elite'
p1978
I0
sg1444
I6
sg1454
(dp1979
VSchmerzmittel
p1980
(dp1981
g390
I0
sg391
Vshop
p1982
sg393
I35
sg394
(lp1983
(dp1984
g658
Vself
p1985
sg660
Vid
p1986
sg662
Vchange
p1987
sg664
F0.15
sg665
I0
sg666
(dp1988
Vlife
p1989
I30
ssasg409
I-1
ssVOperation 120
p1990
(dp1991
g651
I12
sg652
Vstandard
p1992
sg654
I130
sg655
(lp1993
(dp1994
g658
Vown
p1995
sg660
Vid
p1996
sg662
Vchange
p1997
sg664
F0.2
sg665
I13
sg666
(dp1998
Vlife
p1999
I10
ssasg678
I-1
ssVSpeed I
p2000
(dp2001
g390
I0
sg391
Vupgrade
p2002
sg393
I30
sg394
(lp2003
(dp2004
g397
g398
sg399
g400
sg401
g402
sg403
I0
sg404
I0
sg405
(dp2005
Vwalk_dist
p2006
I1
sVelite
p2007
I1
sg394
(dp2008
VSpeed II
p2009
(dp2010
g390
I0
sg391
Vupgrade
p2011
sg393
I50
sg394
(lp2012
(dp2013
g397
g398
sg399
g400
sg401
g402
sg403
I0
sg404
I0
sg405
(dp2014
Vdelay_walk
p2015
I-4
sVwalk_dist
p2016
I2
sVelite
p2017
I1
ssasg409
I1
ssssasg409
I1
ssVVerband 50
p2018
(dp2019
g651
I8
sg652
Vstandard
p2020
sg654
I60
sg655
(lp2021
(dp2022
g658
Vown
p2023
sg660
Vid
p2024
sg662
Vchange
p2025
sg664
F0.2
sg665
I5
sg666
(dp2026
Vlife
p2027
I10
ssasg678
I-1
sssS'shield'
p2028
I10
sssI7
(dp2029
S'elite_parameters'
p2030
(dp2031
S'ticks'
p2032
(dp2033
I0
(lp2034
ssS'damage'
p2035
(dp2036
I0
(lp2037
sssS'basic_parameters'
p2038
(dp2039
S'delay_walk'
p2040
I15
sS'life'
p2041
I60
sS'walk_dist'
p2042
I5
sS'name'
p2043
VCyborg
p2044
sS'shield_factor'
p2045
F0.6
sS'num_enemies'
p2046
I5
sS'attack_min'
p2047
I20
sS'delay_shoot'
p2048
I15
sS'unit_type'
p2049
Vsoldier
p2050
sS'max_life'
p2051
I60
sg55
I40
sS'attack_max'
p2052
I35
sS'shoot_dist'
p2053
I7
sg184
I120
sS'elite'
p2054
I0
sg191
I7
sg185
(dp2055
VSpeed I
p2056
(dp2057
S'delay'
p2058
I0
sS'category'
p2059
S'upgrade'
p2060
sS'price'
p2061
I0
sS'actions'
p2062
(lp2063
sS'num_uses'
p2064
I-1
sssS'shield'
p2065
I40
sssI8
(dp2066
S'elite_parameters'
p2067
(dp2068
S'ticks'
p2069
(dp2070
I0
(lp2071
sI250
(lp2072
(dp2073
S'target'
p2074
S'self'
p2075
sS'level'
p2076
S'id'
p2077
sS'type'
p2078
S'change'
p2079
sS'random'
p2080
I0
sS'num_units'
p2081
I0
sS'changes'
p2082
(dp2083
Vmax_shield
p2084
I5
sVlife
p2085
I20
sVelite
p2086
I1
sVshield
p2087
I10
ssasI500
(lp2088
(dp2089
g2074
g2075
sg2076
g2077
sg2078
g2079
sg2080
I0
sg2081
I0
sg2082
(dp2090
Vmax_shield
p2091
I5
sVlife
p2092
I100
sVmax_life
p2093
I10
sVelite
p2094
I1
sVshield
p2095
I20
ssassS'damage'
p2096
(dp2097
I0
(lp2098
sI500
(lp2099
sssS'basic_parameters'
p2100
(dp2101
S'delay_walk'
p2102
I15
sS'life'
p2103
I70
sS'walk_dist'
p2104
I5
sS'name'
p2105
VKommandant
p2106
sS'shield_factor'
p2107
F0.6
sS'num_enemies'
p2108
I4
sS'attack_min'
p2109
I20
sS'delay_shoot'
p2110
I15
sS'unit_type'
p2111
Vsoldier
p2112
sS'max_life'
p2113
I70
sg55
I10
sS'attack_max'
p2114
I30
sS'shoot_dist'
p2115
I6
sg1332
I250
sS'elite'
p2116
I4
sg98
I8
sg1333
(dp2117
VLuftunterstuetzung
p2118
(dp2119
g1329
I40
sg1330
Vstandard
p2120
sg1332
I150
sg1333
(lp2121
(dp2122
g95
Venemy
p2123
sg97
Vid
p2124
sg99
Vchange
p2125
sg101
F0.6
sg102
I7
sg103
(dp2126
Vlife
p2127
I-17
sVshield
p2128
I-12
ssasg1340
I-1
ssVDrill Sergent
p2129
(dp2130
S'delay'
p2131
I0
sS'category'
p2132
Vstandard
p2133
sS'price'
p2134
I100
sS'actions'
p2135
(lp2136
(dp2137
S'target'
p2138
Vown
p2139
sS'level'
p2140
Vid
p2141
sS'type'
p2142
Vchange
p2143
sS'random'
p2144
F0.0
sS'num_units'
p2145
I0
sS'changes'
p2146
(dp2147
Vattack_min
p2148
I10
sVattack_max
p2149
I8
sVdelay_shoot
p2150
I-3
ssasS'num_uses'
p2151
I-1
ssVFallschirmspringer
p2152
(dp2153
g1183
I20
sg1184
Vstandard
p2154
sg1186
I450
sg1169
(lp2155
(dp2156
g71
Vnew
p2157
sg67
Vown
p2158
sg82
(lp2159
I0
aI0
aI2
asg69
Vgroups
p2160
sasg1188
I-1
ssVSpionageausbildung
p2161
(dp2162
S'delay'
p2163
I0
sS'category'
p2164
Vupgrade
p2165
sS'price'
p2166
I170
sS'actions'
p2167
(lp2168
(dp2169
S'target'
p2170
S'self'
p2171
sS'level'
p2172
S'id'
p2173
sS'type'
p2174
S'change'
p2175
sS'random'
p2176
I0
sS'num_units'
p2177
I0
sS'changes'
p2178
(dp2179
Velite
p2180
I1
sg2167
(dp2181
VWirtschafts-Spionage
p2182
(dp2183
g2163
I40
sg2164
Vupgrade
p2184
sg2166
I80
sg2167
(lp2185
(dp2186
g2170
g2171
sg2172
g2173
sg2174
g2175
sg2176
I0
sg2177
I0
sg2178
(dp2187
g2167
(dp2188
VDieb
p2189
(dp2190
g2163
I60
sg2164
Vequipment
p2191
sg2166
I200
sg2167
(lp2192
(dp2193
g2178
(dp2194
Vaccount
p2195
I-150
ssg2176
F0.5
sg2174
Vchange
p2196
sg2170
Venemy
p2197
sg2172
Vplayer
p2198
sa(dp2199
g2178
(dp2200
Vaccount
p2201
I80
ssg2176
F0.7
sg2174
Vchange
p2202
sg2170
Vown
p2203
sg2172
Vplayer
p2204
sasS'num_uses'
p2205
I-1
ssssasg2205
I-1
ssVID-Spionage
p2206
(dp2207
g2163
I40
sg2164
Vequipment
p2208
sg2166
I70
sg2167
(lp2209
sg2205
I-1
ssssasg2205
I1
sssS'shield'
p2210
I10
sssI9
(dp2211
S'elite_parameters'
p2212
(dp2213
S'ticks'
p2214
(dp2215
I0
(lp2216
ssS'damage'
p2217
(dp2218
I0
(lp2219
sssS'basic_parameters'
p2220
(dp2221
S'delay_walk'
p2222
I0
sS'life'
p2223
I100
sS'walk_dist'
p2224
I0
sS'name'
p2225
VFlak
p2226
sS'shield_factor'
p2227
F0.6
sS'num_enemies'
p2228
I3
sS'attack_min'
p2229
I60
sS'delay_shoot'
p2230
I15
sS'unit_type'
p2231
Vvehicle
p2232
sS'max_life'
p2233
I100
sg55
I0
sS'attack_max'
p2234
I80
sS'shoot_dist'
p2235
I5
sS'price'
p2236
I200
sS'elite'
p2237
I0
sS'id'
p2238
I9
sS'actions'
p2239
(dp2240
Vnix
p2241
(dp2242
S'delay'
p2243
I0
sS'category'
p2244
S'upgrade'
p2245
sg2236
I0
sg2239
(lp2246
sS'num_uses'
p2247
I-1
sssS'shield'
p2248
I0
sssI10
(dp2249
S'elite_parameters'
p2250
(dp2251
S'ticks'
p2252
(dp2253
I0
(lp2254
(dp2255
g1245
g1246
sg1247
g1248
sg1249
g1250
sg1251
I0
sg1252
I0
sg1253
(dp2256
sasI400
(lp2257
(dp2258
g1245
g1246
sg1247
g1248
sg1249
g1250
sg1251
I0
sg1252
I0
sg1253
(dp2259
Vdelay_walk
p2260
I-2
sVelite
p2261
I1
ssassS'damage'
p2262
(dp2263
I0
(lp2264
sssS'basic_parameters'
p2265
(dp2266
S'delay_walk'
p2267
I11
sS'life'
p2268
I40
sS'walk_dist'
p2269
I6
sS'name'
p2270
VMotorrad
p2271
sS'shield_factor'
p2272
F0.45
sS'num_enemies'
p2273
I4
sS'attack_min'
p2274
I5
sS'delay_shoot'
p2275
I15
sS'unit_type'
p2276
Vvehicle
p2277
sS'max_life'
p2278
I40
sg55
I0
sS'attack_max'
p2279
I10
sS'shoot_dist'
p2280
I5
sg2134
I40
sS'elite'
p2281
I0
sS'id'
p2282
I10
sg2135
(dp2283
VSchutzweste
p2284
(dp2285
g2131
I0
sg2132
Vupgrade
p2286
sg2134
I30
sg2135
(lp2287
(dp2288
g2138
S'self'
p2289
sg2140
g2282
sg2142
S'change'
p2290
sg2144
I0
sg2145
I0
sg2146
(dp2291
Vmax_shield
p2292
I8
sVshield
p2293
I8
ssasg2151
I1
ssVneue Reifen
p2294
(dp2295
g2131
I0
sg2132
Vupgrade
p2296
sg2134
I20
sg2135
(lp2297
(dp2298
g2138
g2289
sg2140
g2282
sg2142
g2290
sg2144
I0
sg2145
I0
sg2146
(dp2299
Vwalk_dist
p2300
I1
sVelite
p2301
I1
sg2135
(dp2302
Vleichteres Motorrad
p2303
(dp2304
g2131
I0
sg2132
Vupgrade
p2305
sg2134
I30
sg2135
(lp2306
(dp2307
g2138
g2289
sg2140
g2282
sg2142
g2290
sg2144
I0
sg2145
I0
sg2146
(dp2308
Vdelay_walk
p2309
I-1
sVwalk_dist
p2310
I1
sVelite
p2311
I1
ssasg2151
I1
ssssasg2151
I1
ssVDrive by lernen
p2312
(dp2313
g2131
I0
sg2132
Vupgrade
p2314
sg2134
I30
sg2135
(lp2315
(dp2316
g2138
g2289
sg2140
g2282
sg2142
g2290
sg2144
I0
sg2145
I0
sg2146
(dp2317
Vattack_min
p2318
I7
sVelite
p2319
I1
sVattack_max
p2320
I5
ssasg2151
I1
sssS'shield'
p2321
I0
sssI11
(dp2322
S'elite_parameters'
p2323
(dp2324
S'ticks'
p2325
(dp2326
I0
(lp2327
ssS'damage'
p2328
(dp2329
I0
(lp2330
sssS'basic_parameters'
p2331
(dp2332
S'delay_walk'
p2333
I18
sS'life'
p2334
I80
sS'walk_dist'
p2335
I5
sS'name'
p2336
VJavelin
p2337
sS'shield_factor'
p2338
F2.5
sS'num_enemies'
p2339
I2
sS'attack_min'
p2340
I8
sS'delay_shoot'
p2341
I20
sS'unit_type'
p2342
Vsoldier
p2343
sS'max_life'
p2344
I80
sg55
I50
sS'attack_max'
p2345
I12
sS'shoot_dist'
p2346
I9
sg1508
I200
sS'elite'
p2347
I0
sg1515
I11
sg1509
(dp2348
Vschneller ziehen
p2349
(dp2350
g294
I0
sg295
Vupgrade
p2351
sg297
I30
sg298
(lp2352
(dp2353
g301
g302
sg303
g304
sg305
g306
sg307
I0
sg308
I0
sg309
(dp2354
Vdelay_walk
p2355
I-3
sVelite
p2356
I1
ssasg320
I1
ssVschneller laden
p2357
(dp2358
S'delay'
p2359
I0
sS'category'
p2360
Vupgrade
p2361
sS'price'
p2362
I40
sS'actions'
p2363
(lp2364
(dp2365
S'target'
p2366
S'self'
p2367
sS'level'
p2368
S'id'
p2369
sS'type'
p2370
S'change'
p2371
sS'random'
p2372
I0
sS'num_units'
p2373
I0
sS'changes'
p2374
(dp2375
Velite
p2376
I1
sVdelay_shoot
p2377
I-4
ssasS'num_uses'
p2378
I1
ssVgroessere Sprengkraft
p2379
(dp2380
g2359
I0
sg2360
Vupgrade
p2381
sg2362
I30
sg2363
(lp2382
(dp2383
g2366
g2367
sg2368
g2369
sg2370
g2371
sg2372
I0
sg2373
I0
sg2374
(dp2384
Vnum_enemies
p2385
I2
sVattack_min
p2386
I2
sVelite
p2387
I1
sVattack_max
p2388
I3
sg2363
(dp2389
Vneue Sprengtechnologie
p2390
(dp2391
g2359
I0
sg2360
Vupgrade
p2392
sg2362
I40
sg2363
(lp2393
(dp2394
g2366
g2367
sg2368
g2369
sg2370
g2371
sg2372
I0
sg2373
I0
sg2374
(dp2395
Vshield_factor
p2396
F0.4
sVelite
p2397
I1
ssasg2378
I1
ssssasg2378
I1
sssS'shield'
p2398
I50
ssss.