(dp0
S'building_parameters'
p1
(dp2
I0
(dp3
S'elite_parameters'
p4
(dp5
S'ticks'
p6
(dp7
I0
(lp8
sI150
(lp9
(dp10
S'target'
p11
S'self'
p12
sS'level'
p13
S'id'
p14
sS'type'
p15
S'change'
p16
sS'random'
p17
I0
sS'num_units'
p18
I0
sS'changes'
p19
(dp20
S'actions'
p21
(dp22
VWerkstatt bauen
p23
(dp24
S'delay'
p25
I0
sS'category'
p26
Vshop
p27
sS'price'
p28
I600
sg21
(lp29
(dp30
g15
Vnew
p31
sg11
Vown
p32
sS'parameters'
p33
I3
sg13
Vbuildings
p34
sasS'num_uses'
p35
I-1
ssssassS'damage'
p36
(dp37
I0
(lp38
sssS'basic_parameters'
p39
(dp40
S'shop_units'
p41
(lp42
I1
aI10
asS'life'
p43
I800
sS'shop_transporter'
p44
(lp45
I0
asS'capacity'
p46
I25
sS'name'
p47
VHauptquartier
p48
sS'shield_factor'
p49
F0.4
sS'attack_min'
p50
I0
sS'delay_shoot'
p51
I15
sS'id'
p52
I0
sS'price'
p53
I1000
sS'max_life'
p54
I800
sS'max_shield'
p55
I100
sS'delay_out'
p56
I10
sS'attack_max'
p57
I0
sS'enter'
p58
Vsoldier
p59
sS'shoot_dist'
p60
I6
sS'actions'
p61
(dp62
VArzneistudium +
p63
(dp64
S'delay'
p65
I0
sS'category'
p66
Vupgrade
p67
sS'price'
p68
I400
sS'actions'
p69
(lp70
(dp71
S'target'
p72
S'self'
p73
sS'level'
p74
S'id'
p75
sS'type'
p76
S'change'
p77
sS'random'
p78
I0
sS'num_units'
p79
I0
sS'changes'
p80
(dp81
Vshop_units
p82
(lp83
I6
assa(dp84
g76
Vnew
p85
sg72
Vown
p86
sS'parameters'
p87
(lp88
I6
asg74
Vgroups
p89
sasS'num_uses'
p90
I1
ssVKommandant +
p91
(dp92
S'delay'
p93
I0
sS'category'
p94
Vupgrade
p95
sS'price'
p96
I500
sS'actions'
p97
(lp98
(dp99
S'target'
p100
S'self'
p101
sS'level'
p102
S'id'
p103
sS'type'
p104
S'change'
p105
sS'random'
p106
I0
sS'num_units'
p107
I0
sS'changes'
p108
(dp109
Vshop_units
p110
(lp111
I8
assa(dp112
S'type'
p113
Vnew
p114
sS'target'
p115
Vown
p116
sS'parameters'
p117
(lp118
I8
asS'level'
p119
Vgroups
p120
sasS'num_uses'
p121
I1
ssVHelikopter-Plattform +
p122
(dp123
S'delay'
p124
I0
sS'category'
p125
Vupgrade
p126
sS'price'
p127
I400
sS'actions'
p128
(lp129
(dp130
S'target'
p131
S'self'
p132
sS'level'
p133
S'id'
p134
sS'type'
p135
S'change'
p136
sS'random'
p137
I0
sS'num_units'
p138
I0
sS'changes'
p139
(dp140
Vshop_transporter
p141
(lp142
I1
assa(dp143
g135
Vnew
p144
sg131
Vown
p145
sS'parameters'
p146
I1
sg133
Vtransporter
p147
sasS'num_uses'
p148
I1
sssS'elite'
p149
I0
sS'delay_in'
p150
I20
sS'num_enemies'
p151
I4
sS'shield'
p152
I100
sssI1
(dp153
S'elite_parameters'
p154
(dp155
S'ticks'
p156
(dp157
I500
(lp158
ssS'damage'
p159
(dp160
I0
(lp161
sssS'basic_parameters'
p162
(dp163
S'life'
p164
I600
sS'shop_transporter'
p165
(lp166
sS'capacity'
p167
I15
sS'name'
p168
VKaserne
p169
sS'delay_out'
p170
I10
sS'shield_factor'
p171
F0.4
sS'attack_min'
p172
I0
sS'shield'
p173
I80
sS'delay_shoot'
p174
I15
sS'delay_in'
p175
I20
sS'price'
p176
I600
sS'max_life'
p177
I600
sg55
I80
sS'actions'
p178
(dp179
VSniper +
p180
(dp181
S'delay'
p182
I0
sS'category'
p183
Vupgrade
p184
sS'price'
p185
I200
sS'actions'
p186
(lp187
(dp188
S'target'
p189
S'self'
p190
sS'level'
p191
S'id'
p192
sS'type'
p193
S'change'
p194
sS'random'
p195
I0
sS'num_units'
p196
I0
sS'changes'
p197
(dp198
Vshop_units
p199
(lp200
I3
assa(dp201
S'type'
p202
Vnew
p203
sS'target'
p204
Vown
p205
sS'parameters'
p206
(lp207
I3
asS'level'
p208
Vgroups
p209
sasS'num_uses'
p210
I1
ssVVerteidigung
p211
(dp212
S'delay'
p213
I20
sS'category'
p214
Vupgrade
p215
sS'price'
p216
I100
sS'actions'
p217
(lp218
(dp219
S'target'
p220
S'self'
p221
sS'level'
p222
S'id'
p223
sS'type'
p224
S'change'
p225
sS'random'
p226
I0
sS'num_units'
p227
I0
sS'changes'
p228
(dp229
Vattack_min
p230
I20
sVattack_max
p231
I40
ssasS'num_uses'
p232
I1
ssVMG-Soldat
p233
(dp234
S'delay'
p235
I0
sS'category'
p236
Vupgrade
p237
sS'price'
p238
I250
sS'actions'
p239
(lp240
(dp241
g220
g221
sg222
g223
sg224
g225
sg226
I0
sg227
I0
sg228
(dp242
Vshop_units
p243
(lp244
I2
asVelite
p245
I1
sS'actions'
p246
(dp247
VCyborg
p248
(dp249
S'delay'
p250
I0
sS'category'
p251
Vupgrade
p252
sS'price'
p253
I200
sg246
(lp254
(dp255
S'target'
p256
S'self'
p257
sS'level'
p258
S'id'
p259
sS'type'
p260
S'change'
p261
sS'random'
p262
I0
sS'num_units'
p263
I0
sS'changes'
p264
(dp265
Vshop_units
p266
(lp267
I7
asVelite
p268
I1
ssasS'num_uses'
p269
I1
ssVMG-Soldat Ausbildung
p270
(dp271
S'delay'
p272
I0
sS'category'
p273
Vequipment
p274
sS'price'
p275
I0
sS'actions'
p276
(lp277
(dp278
S'target'
p279
Vown
p280
sS'level'
p281
Vid
p282
sS'type'
p283
Vchange
p284
sS'random'
p285
F0.0
sS'num_units'
p286
I1
sS'changes'
p287
(dp288
Vshop_units
p289
(lp290
I2
assasS'num_uses'
p291
I-1
ssssasS'num_uses'
p292
I1
ssVJavelin +
p293
(dp294
S'delay'
p295
I0
sS'category'
p296
Vupgrade
p297
sS'price'
p298
I400
sS'actions'
p299
(lp300
(dp301
S'target'
p302
S'self'
p303
sS'level'
p304
S'id'
p305
sS'type'
p306
S'change'
p307
sS'random'
p308
I0
sS'num_units'
p309
I0
sS'changes'
p310
(dp311
Vshop_units
p312
(lp313
I11
asVelite
p314
I1
ssa(dp315
g306
Vnew
p316
sg302
Vown
p317
sS'parameters'
p318
(lp319
I11
asg304
Vgroups
p320
sasS'num_uses'
p321
I1
sssS'enter'
p322
Vsoldier
p323
sS'id'
p324
I1
sS'shoot_dist'
p325
I6
sS'elite'
p326
I0
sS'shop_units'
p327
(lp328
I0
asS'num_enemies'
p329
I4
sS'attack_max'
p330
I0
sssI2
(dp331
S'elite_parameters'
p332
(dp333
S'ticks'
p334
(dp335
I0
(lp336
ssS'damage'
p337
(dp338
I0
(lp339
sssS'basic_parameters'
p340
(dp341
S'life'
p342
I500
sS'shop_transporter'
p343
(lp344
sS'capacity'
p345
I10
sS'name'
p346
VLazarett
p347
sS'shield_factor'
p348
F0.4
sS'attack_min'
p349
I0
sS'shield'
p350
I75
sS'delay_shoot'
p351
I15
sS'delay_in'
p352
I20
sS'price'
p353
I500
sS'max_life'
p354
I500
sg55
I75
sS'delay_out'
p355
I10
sS'enter'
p356
Vsoldier
p357
sS'id'
p358
I2
sS'shoot_dist'
p359
I6
sS'actions'
p360
(dp361
V10x heilen
p362
(dp363
S'delay'
p364
I50
sS'category'
p365
Vstandard
p366
sg353
I400
sg360
(lp367
(dp368
S'target'
p369
Vown
p370
sS'level'
p371
Vid
p372
sS'type'
p373
Vchange
p374
sS'random'
p375
F0.0
sS'num_units'
p376
I0
sS'changes'
p377
(dp378
Vlife
p379
I50
ssasS'num_uses'
p380
I-1
ssV1x heilen
p381
(dp382
g364
I40
sg365
Vstandard
p383
sg353
I70
sg360
(lp384
(dp385
g369
Vown
p386
sg371
Vid
p387
sg373
Vchange
p388
sg375
F0.0
sg376
I1
sg377
(dp389
Vlife
p390
I50
ssasg380
I-1
ssVArztneistudium
p391
(dp392
S'delay'
p393
I0
sS'category'
p394
Vupgrade
p395
sS'price'
p396
I200
sS'actions'
p397
(lp398
(dp399
S'target'
p400
S'self'
p401
sS'level'
p402
S'id'
p403
sS'type'
p404
S'change'
p405
sS'random'
p406
I0
sS'num_units'
p407
I0
sS'changes'
p408
(dp409
Vshop_units
p410
(lp411
I6
assasS'num_uses'
p412
I1
ssV5x heilen
p413
(dp414
g364
I50
sg365
Vstandard
p415
sg353
I200
sg360
(lp416
(dp417
g369
Vown
p418
sg371
Vid
p419
sg373
Vchange
p420
sg375
F0.0
sg376
I5
sg377
(dp421
Vlife
p422
I50
ssasg380
I-1
sssS'elite'
p423
I0
sS'shop_units'
p424
(lp425
sS'num_enemies'
p426
I4
sS'attack_max'
p427
I0
sssI3
(dp428
g332
(dp429
g334
(dp430
I0
(lp431
ssg337
(dp432
I0
(lp433
sssg340
(dp434
g342
I500
sg343
(lp435
I0
asg345
I10
sg346
VWerkstatt
p436
sg348
F0.4
sg349
I0
sg350
I80
sg351
I15
sg352
I20
sg353
I700
sg354
I500
sg55
I80
sg355
I10
sg356
Vvehicle
p437
sg358
I3
sg359
I6
sg360
(dp438
VFahrzeug Transporter
p439
(dp440
S'delay'
p441
I0
sS'category'
p442
Vupgrade
p443
sS'price'
p444
I150
sS'actions'
p445
(lp446
(dp447
S'target'
p448
S'self'
p449
sS'level'
p450
S'id'
p451
sS'type'
p452
S'change'
p453
sS'random'
p454
I0
sS'num_units'
p455
I0
sS'changes'
p456
(dp457
Vshop_transporter
p458
(lp459
I2
asVelite
p460
I1
ssasS'num_uses'
p461
I1
ssVArtillerie
p462
(dp463
S'delay'
p464
I0
sS'category'
p465
Vupgrade
p466
sS'price'
p467
I300
sS'actions'
p468
(lp469
(dp470
S'target'
p471
S'self'
p472
sS'level'
p473
S'id'
p474
sS'type'
p475
S'change'
p476
sS'random'
p477
I0
sS'num_units'
p478
I0
sS'changes'
p479
(dp480
Vshop_units
p481
(lp482
I5
asVelite
p483
I1
ssasS'num_uses'
p484
I1
ssVVerteidigung
p485
(dp486
S'delay'
p487
I0
sS'category'
p488
Vupgrade
p489
sS'price'
p490
I50
sS'actions'
p491
(lp492
(dp493
g400
g401
sg402
g403
sg404
g405
sg406
I0
sg407
I0
sg408
(dp494
Vattack_min
p495
I30
sVattack_max
p496
I50
ssasS'num_uses'
p497
I1
sssg423
I0
sg424
(lp498
I4
asg426
I4
sg427
I0
sssI4
(dp499
g332
(dp500
g334
(dp501
I0
(lp502
ssg337
(dp503
I0
(lp504
sssg340
(dp505
g342
I600
sg343
(lp506
sg345
I15
sg346
VFlughafen
p507
sg348
F0.4
sg349
I0
sg350
I50
sg351
I15
sg352
I20
sg353
I400
sg354
I600
sg55
I50
sg355
I10
sg356
Vvehicle
p508
sg358
I4
sg359
I6
sg360
(dp509
VFlak & Verteidigung
p510
(dp511
g441
I0
sg442
Vupgrade
p512
sg444
I100
sg445
(lp513
(dp514
g448
g449
sg450
g451
sg452
g453
sg454
I0
sg455
I0
sg456
(dp515
Vshop_units
p516
(lp517
I9
asVattack_min
p518
I30
sVelite
p519
I1
sVattack_max
p520
I50
ssasg461
I1
ssVHelikopter Landeplattform
p521
(dp522
g364
I0
sg365
Vupgrade
p523
sg353
I400
sg360
(lp524
(dp525
g369
S'self'
p526
sg371
g358
sg373
S'change'
p527
sg375
I0
sg376
I0
sg377
(dp528
Vshop_transporter
p529
(lp530
I1
asVelite
p531
I1
sS'actions'
p532
(dp533
VFallschirmspringer
p534
(dp535
S'delay'
p536
I0
sS'category'
p537
S'upgrade'
p538
sS'price'
p539
I0
sS'actions'
p540
(lp541
sS'num_uses'
p542
I-1
ssssasg380
I1
sssg423
I0
sg424
(lp543
sg426
I4
sg427
I0
sssI5
(dp544
S'elite_parameters'
p545
(dp546
S'ticks'
p547
(dp548
I0
(lp549
ssS'damage'
p550
(dp551
I0
(lp552
sssS'basic_parameters'
p553
(dp554
S'life'
p555
I100
sS'shop_transporter'
p556
(lp557
sS'capacity'
p558
I0
sS'name'
p559
Vnix
p560
sS'shield_factor'
p561
F0.6
sS'elite'
p562
I0
sS'shop_units'
p563
(lp564
sS'attack_min'
p565
I60
sS'delay_shoot'
p566
I15
sS'id'
p567
I5
sS'price'
p568
I200
sS'max_life'
p569
I100
sg55
I0
sS'actions'
p570
(dp571
Vnix
p572
(dp573
S'delay'
p574
I0
sS'category'
p575
S'upgrade'
p576
sg568
I0
sg570
(lp577
sS'num_uses'
p578
I-1
sssS'attack_max'
p579
I80
sS'enter'
p580
Vsoldier
p581
sS'shoot_dist'
p582
I5
sS'delay_out'
p583
I0
sS'delay_in'
p584
I0
sS'num_enemies'
p585
I3
sS'shield'
p586
I0
sssI6
(dp587
g545
(dp588
g547
(dp589
I0
(lp590
ssg550
(dp591
I0
(lp592
sssg553
(dp593
g555
I80
sg556
(lp594
sg558
I5
sg559
VMG-Nest
p595
sg561
F0.5
sg562
I0
sg563
(lp596
sg565
I20
sg566
I15
sg567
I6
sg568
I100
sg569
I80
sg55
I20
sg570
(dp597
Vzweites Geschuetz
p598
(dp599
S'delay'
p600
I0
sS'category'
p601
Vupgrade
p602
sS'price'
p603
I50
sS'actions'
p604
(lp605
sS'num_uses'
p606
I1
ssVPanzerabwehr
p607
(dp608
S'delay'
p609
I20
sS'category'
p610
Vupgrade
p611
sS'price'
p612
I150
sS'actions'
p613
(lp614
(dp615
g204
S'self'
p616
sg208
S'id'
p617
sg202
S'change'
p618
sS'random'
p619
I0
sS'num_units'
p620
I0
sS'changes'
p621
(dp622
Vshoot_dist
p623
I1
sVattack_min
p624
I-10
sVelite
p625
I2
sVshield_factor
p626
F2.0
sVattack_max
p627
I-20
ssasS'num_uses'
p628
I1
ssVBetonguss
p629
(dp630
g609
I0
sg610
Vupgrade
p631
sg612
I50
sg613
(lp632
(dp633
g204
g616
sg208
g617
sg202
g618
sg619
I0
sg620
I0
sg621
(dp634
Velite
p635
I1
sVmax_shield
p636
I15
sVshield
p637
I30
ssasg628
I1
ssVMoerser
p638
(dp639
S'delay'
p640
I0
sS'category'
p641
Vupgrade
p642
sS'price'
p643
I150
sS'actions'
p644
(lp645
(dp646
S'target'
p647
S'self'
p648
sS'level'
p649
S'id'
p650
sS'type'
p651
S'change'
p652
sS'random'
p653
I0
sS'num_units'
p654
I0
sS'changes'
p655
(dp656
Vshoot_dist
p657
I3
sVattack_min
p658
I15
sVnum_enemies
p659
I4
sVdelay_shoot
p660
I11
sVattack_max
p661
I25
ssasS'num_uses'
p662
I1
sssg579
I35
sg580
Vsoldier
p663
sg582
I6
sg583
I10
sg584
I15
sg585
I4
sg586
I20
ssssS'unit_parameters'
p664
(dp665
I0
(dp666
S'elite_parameters'
p667
(dp668
S'ticks'
p669
(dp670
I1000
(lp671
(dp672
S'target'
p673
S'self'
p674
sS'level'
p675
S'id'
p676
sS'type'
p677
S'change'
p678
sS'random'
p679
I0
sS'num_units'
p680
I0
sS'changes'
p681
(dp682
Vlife
p683
I10
sVelite
p684
I1
sVshield
p685
I15
ssasI500
(lp686
(dp687
g673
g674
sg675
g676
sg677
g678
sg679
I0
sg680
I0
sg681
(dp688
Vlife
p689
I10
sVelite
p690
I1
sVshield
p691
I15
ssassS'damage'
p692
(dp693
I1000
(lp694
(dp695
S'target'
p696
S'self'
p697
sS'level'
p698
S'id'
p699
sS'type'
p700
S'change'
p701
sS'random'
p702
I0
sS'num_units'
p703
I0
sS'changes'
p704
(dp705
Vshoot_dist
p706
I2
sVmax_life
p707
I8
sVelite
p708
I1
sVattack_max
p709
I11
ssasI500
(lp710
(dp711
g673
g674
sg675
g676
sg677
g678
sg679
I0
sg680
I0
sg681
(dp712
Velite
p713
I1
sVattack_max
p714
I8
ssasI750
(lp715
(dp716
g696
g697
sg698
g699
sg700
g701
sg702
I0
sg703
I0
sg704
(dp717
Vattack_min
p718
I8
sVelite
p719
I1
sVattack_max
p720
I10
ssasssS'basic_parameters'
p721
(dp722
S'delay_walk'
p723
I15
sS'life'
p724
I50
sS'walk_dist'
p725
I5
sS'name'
p726
VSoldat
p727
sS'num_enemies'
p728
I4
sS'attack_min'
p729
I10
sS'delay_shoot'
p730
I15
sS'id'
p731
I0
sS'unit_type'
p732
Vsoldier
p733
sS'max_life'
p734
I50
sg55
I0
sS'attack_max'
p735
I20
sS'shoot_dist'
p736
I6
sS'price'
p737
I70
sS'elite'
p738
I0
sS'shield_factor'
p739
F0.5
sS'actions'
p740
(dp741
V2 HG
p742
(dp743
S'delay'
p744
I0
sS'category'
p745
Vequipment
p746
sg176
I70
sg178
(lp747
(dp748
S'target'
p749
S'self'
p750
sS'level'
p751
S'id'
p752
sS'type'
p753
S'change'
p754
sS'random'
p755
I0
sS'num_units'
p756
I0
sS'changes'
p757
(dp758
S'actions'
p759
(dp760
VHG
p761
(dp762
S'delay'
p763
I7
sS'category'
p764
Vstandard
p765
sS'price'
p766
I0
sg759
(lp767
(dp768
g749
Venemy
p769
sg751
Vid
p770
sg753
Vchange
p771
sg755
F0.25
sg756
I3
sg757
(dp772
Vlife
p773
I-10
ssasS'num_uses'
p774
I2
ssssasS'num_uses'
p775
I-1
ssVSchutzweste
p776
(dp777
g364
I0
sg365
Vupgrade
p778
sg353
I30
sg360
(lp779
(dp780
g369
g526
sg371
g358
sg373
g527
sg375
I0
sg376
I0
sg377
(dp781
Vmax_shield
p782
I10
sVshield
p783
I10
sg360
(dp784
VSchild & wenig heilen
p785
(dp786
g364
I0
sg365
Vupgrade
p787
sg353
I50
sg360
(lp788
(dp789
g369
g526
sg371
g358
sg373
g527
sg375
I0
sg376
I0
sg377
(dp790
Vmax_shield
p791
I15
sVlife
p792
I15
sVmax_life
p793
I6
sVelite
p794
I1
sVshield
p795
I15
ssasg380
I1
ssssasg380
I1
ssVneue Schuhe
p796
(dp797
g744
I0
sg745
Vupgrade
p798
sg176
I20
sg178
(lp799
(dp800
S'target'
p801
Vself
p802
sS'level'
p803
Vid
p804
sS'type'
p805
Vchange
p806
sS'random'
p807
F0.0
sS'num_units'
p808
F1.0
sS'changes'
p809
(dp810
Vdelay_walk
p811
I-2
sVwalk_dist
p812
I1
sVelite
p813
I1
sg178
(dp814
ssasg775
I1
ssVneue Munition
p815
(dp816
g744
I0
sg745
Vupgrade
p817
sg176
I20
sg178
(lp818
(dp819
g801
S'self'
p820
sg803
g324
sg805
S'change'
p821
sg807
I0
sg808
I0
sg809
(dp822
Vattack_min
p823
I5
sVattack_max
p824
I5
sg178
(dp825
VSchnellfeuer
p826
(dp827
g744
I0
sg745
Vupgrade
p828
sg176
I30
sg178
(lp829
(dp830
g801
g820
sg803
g324
sg805
g821
sg807
I0
sg808
I0
sg809
(dp831
Vnum_enemies
p832
I2
sVattack_min
p833
I4
sVelite
p834
I1
sVattack_max
p835
I8
sS'actions'
p836
(dp837
VFlammenwerfer
p838
(dp839
g609
I0
sg610
Vupgrade
p840
sg612
I40
sg613
(lp841
(dp842
g204
g616
sg208
g617
sg202
g618
sg619
I0
sg620
I0
sg621
(dp843
Vnum_enemies
p844
I4
sVattack_min
p845
I10
sVelite
p846
I1
sVattack_max
p847
I10
ssasg628
I1
ssVSchildexperte
p848
(dp849
S'delay'
p850
I0
sS'category'
p851
Vupgrade
p852
sS'price'
p853
I0
sg836
(lp854
sS'num_uses'
p855
I0
ssssasg775
I1
ssVSchildexperte
p856
(dp857
g744
I0
sg745
Vupgrade
p858
sg176
I30
sg178
(lp859
(dp860
g801
g820
sg803
g324
sg805
g821
sg807
I0
sg808
I0
sg809
(dp861
Vshield_factor
p862
F0.1
sVattack_min
p863
I6
sVelite
p864
I1
sVattack_max
p865
I4
sg178
(dp866
VSchnellfeuer
p867
(dp868
S'delay'
p869
I0
sS'category'
p870
Vupgrade
p871
sS'price'
p872
I0
sS'actions'
p873
(lp874
sS'num_uses'
p875
I0
ssVPanzerbrecher
p876
(dp877
g609
I0
sg610
Vupgrade
p878
sg612
I40
sg613
(lp879
(dp880
g204
g616
sg208
g617
sg202
g618
sg619
I0
sg620
I0
sg621
(dp881
Vshield_factor
p882
F0.2
sVattack_min
p883
I4
sVelite
p884
I1
sVattack_max
p885
I10
ssasg628
I1
ssssasg775
I1
ssssasg775
I1
sssS'shield'
p886
I0
sssI1
(dp887
g667
(dp888
g669
(dp889
I1000
(lp890
(dp891
g801
g820
sg803
g324
sg805
g821
sg807
I0
sg808
I0
sg809
(dp892
Velite
p893
I1
sVwalk_dist
p894
I1
sVmax_shield
p895
I10
sVshield
p896
I10
ssasI400
(lp897
(dp898
S'target'
p899
S'self'
p900
sS'level'
p901
S'id'
p902
sS'type'
p903
S'change'
p904
sS'random'
p905
I0
sS'num_units'
p906
I0
sS'changes'
p907
(dp908
Vdelay_walk
p909
I-2
sVlife
p910
I20
sVwalk_dist
p911
I1
sVelite
p912
I1
ssasI700
(lp913
(dp914
g899
g900
sg901
g902
sg903
g904
sg905
I0
sg906
I0
sg907
(dp915
Vmax_shield
p916
I8
sVlife
p917
I15
sVmax_life
p918
I10
sVelite
p919
I1
sVshield
p920
I13
ssassg692
(dp921
I0
(lp922
sssg721
(dp923
g723
I15
sg724
I40
sg725
I5
sg726
VIngenieur
p924
sg728
I1
sg729
I3
sg730
I15
sg731
I1
sg732
Vsoldier
p925
sg734
I40
sg55
I0
sg735
I5
sg736
I2
sg737
I100
sg738
I0
sg739
F0.4
sg740
(dp926
VSchild-Mech
p927
(dp928
g640
I8
sg641
Vupgrade
p929
sg643
I80
sg644
(lp930
(dp931
g647
Vown
p932
sg649
Vid
p933
sg651
Vchange
p934
sg653
F0.0
sg654
I0
sg655
(dp935
Vshield
p936
I10
ssa(dp937
g647
g648
sg649
g650
sg651
g652
sg653
I0
sg654
I0
sg655
(dp938
g644
(dp939
Vreparieren 3x10
p940
(dp941
g640
I7
sg641
Vstandard
p942
sg643
I50
sg644
(lp943
(dp944
g647
Vown
p945
sg649
Vid
p946
sg651
Vchange
p947
sg653
F0.2
sg654
I3
sg655
(dp948
Vshield
p949
I10
ssasg662
I-1
ssVTeile ersetzen 6x10
p950
(dp951
g640
I7
sg641
Vstandard
p952
sg643
I90
sg644
(lp953
(dp954
g647
Vown
p955
sg649
Vid
p956
sg651
Vchange
p957
sg653
F0.1
sg654
I6
sg655
(dp958
Vshield
p959
I10
ssasg662
I-1
ssssasg662
I1
ssVBruecke bauen
p960
(dp961
S'delay'
p962
I40
sS'category'
p963
Vshop
p964
sS'price'
p965
I100
sS'actions'
p966
(lp967
(dp968
S'target'
p969
S'self'
p970
sS'level'
p971
S'id'
p972
sS'type'
p973
S'change'
p974
sS'random'
p975
I0
sS'num_units'
p976
I0
sS'changes'
p977
(dp978
Vlife
p979
I0
ssasS'num_uses'
p980
I-1
ssVMG-Nest
p981
(dp982
S'delay'
p983
I30
sS'category'
p984
Vshop
p985
sS'price'
p986
I70
sS'actions'
p987
(lp988
(dp989
g104
Vnew
p990
sg100
Vown
p991
sS'parameters'
p992
I6
sg102
Vbuildings
p993
sasS'num_uses'
p994
I-1
ssVleichtere Ausruestung
p995
(dp996
g640
I0
sg641
Vupgrade
p997
sg643
I30
sg644
(lp998
(dp999
g647
g648
sg649
g650
sg651
g652
sg653
I0
sg654
I0
sg655
(dp1000
Vdelay_walk
p1001
I-2
sVwalk_dist
p1002
I1
sVelite
p1003
I1
ssasg662
I1
ssVWerkstatt
p1004
(dp1005
g393
I60
sg394
Vshop
p1006
sg396
I700
sg397
(lp1007
(dp1008
g404
Vnew
p1009
sg400
Vown
p1010
sS'parameters'
p1011
I3
sg402
Vbuildings
p1012
sasg412
I-1
ssVFlugplatz
p1013
(dp1014
g487
I50
sg488
Vshop
p1015
sg490
I400
sg491
(lp1016
(dp1017
S'type'
p1018
Vnew
p1019
sS'target'
p1020
Vown
p1021
sS'parameters'
p1022
I4
sS'level'
p1023
Vbuildings
p1024
sasg497
I-1
ssVLazarett
p1025
(dp1026
g487
I50
sg488
Vshop
p1027
sg490
I500
sg491
(lp1028
(dp1029
g1018
Vnew
p1030
sg1020
Vown
p1031
sg1022
I2
sg1023
Vbuildings
p1032
sasg497
I-1
ssVKaserne
p1033
(dp1034
g744
I60
sg745
Vshop
p1035
sg176
I600
sg178
(lp1036
(dp1037
g805
Vnew
p1038
sg801
Vown
p1039
sS'parameters'
p1040
I1
sg803
Vbuildings
p1041
sasg775
I-1
ssVKampfingenieur
p1042
(dp1043
g235
I0
sg236
Vupgrade
p1044
sg238
I70
sg239
(lp1045
(dp1046
g220
g221
sg222
g223
sg224
g225
sg226
I0
sg227
I0
sg228
(dp1047
Vshield
p1048
I8
sVattack_min
p1049
I10
sg239
(dp1050
V3 Granaten
p1051
(dp1052
g235
I0
sg236
Vequipment
p1053
sg238
I70
sg239
(lp1054
(dp1055
g220
Vself
p1056
sg222
Vid
p1057
sg224
Vchange
p1058
sg226
F0.4
sg227
I3
sg228
(dp1059
g239
(dp1060
VGranate
p1061
(dp1062
g235
I10
sg236
Vstandard
p1063
sg238
I0
sg239
(lp1064
(dp1065
g220
Venemy
p1066
sg222
Vid
p1067
sg224
Vchange
p1068
sg226
F0.4
sg227
I3
sg228
(dp1069
Vlife
p1070
I-15
ssasg292
I3
ssssasg292
I-1
sssVmax_shield
p1071
I8
sVattack_max
p1072
I15
sVelite
p1073
I1
ssasg292
I1
sssg886
I0
sssI2
(dp1074
g667
(dp1075
g669
(dp1076
I400
(lp1077
(dp1078
g899
g900
sg901
g902
sg903
g904
sg905
I0
sg906
I0
sg907
(dp1079
Vdelay_walk
p1080
I-2
sVlife
p1081
I15
sVelite
p1082
I1
sVshield
p1083
I8
ssasI800
(lp1084
(dp1085
g899
g900
sg901
g902
sg903
g904
sg905
I0
sg906
I0
sg907
(dp1086
Vlife
p1087
I15
sVmax_life
p1088
I10
sVelite
p1089
I1
sVshield
p1090
I10
sVdelay_shoot
p1091
I-2
ssassg692
(dp1092
I500
(lp1093
(dp1094
S'target'
p1095
S'self'
p1096
sS'level'
p1097
S'id'
p1098
sS'type'
p1099
S'change'
p1100
sS'random'
p1101
I0
sS'num_units'
p1102
I0
sS'changes'
p1103
(dp1104
Vshield_factor
p1105
F0.1
sVattack_min
p1106
I10
sVelite
p1107
I1
sS'actions'
p1108
(dp1109
VSchusstraining
p1110
(dp1111
S'delay'
p1112
I0
sS'category'
p1113
Vupgrade
p1114
sS'price'
p1115
I40
sg1108
(lp1116
(dp1117
g302
g303
sg304
g305
sg306
g307
sg308
I0
sg309
I0
sg310
(dp1118
Vshoot_dist
p1119
I1
sVelite
p1120
I1
sVdelay_shoot
p1121
I-4
ssasS'num_uses'
p1122
I1
ssssasssg721
(dp1123
g723
I18
sg724
I80
sg725
I5
sg726
VMG-Soldat
p1124
sg728
I10
sg729
I20
sg730
I20
sg731
I2
sg732
Vsoldier
p1125
sg734
I80
sg55
I20
sg735
I60
sg736
I7
sg737
I175
sg738
I0
sg739
F0.55
sg740
(dp1126
Vbessere Munition
p1127
(dp1128
g235
I0
sg236
Vupgrade
p1129
sg238
I40
sg239
(lp1130
(dp1131
g220
g221
sg222
g223
sg224
g225
sg226
I0
sg227
I0
sg228
(dp1132
Vattack_min
p1133
I10
sVattack_max
p1134
I5
sg239
(dp1135
VPanzerbrecher
p1136
(dp1137
g235
I0
sg236
Vupgrade
p1138
sg238
I60
sg239
(lp1139
(dp1140
g220
g221
sg222
g223
sg224
g225
sg226
I0
sg227
I0
sg228
(dp1141
Vshield_factor
p1142
F0.1
sVelite
p1143
I1
sVattack_max
p1144
I15
sg239
(dp1145
VBazooka
p1146
(dp1147
g235
I0
sg236
Vupgrade
p1148
sg238
I80
sg239
(lp1149
(dp1150
g220
g221
sg222
g223
sg224
g225
sg226
I0
sg227
I0
sg228
(dp1151
Vshield_factor
p1152
F0.15
sVattack_min
p1153
I15
sVelite
p1154
I1
sVnum_enemies
p1155
I2
sVattack_max
p1156
I10
ssasg292
I1
ssssasg292
I1
ssssasg292
I1
ssVKampfausbildung
p1157
(dp1158
S'delay'
p1159
I0
sS'category'
p1160
Vupgrade
p1161
sS'price'
p1162
I40
sS'actions'
p1163
(lp1164
(dp1165
S'target'
p1166
S'self'
p1167
sS'level'
p1168
S'id'
p1169
sS'type'
p1170
S'change'
p1171
sS'random'
p1172
I0
sS'num_units'
p1173
I0
sS'changes'
p1174
(dp1175
Vshoot_dist
p1176
I1
sVelite
p1177
I1
sVdelay_shoot
p1178
I-5
ssasS'num_uses'
p1179
I1
ssVSpeed I
p1180
(dp1181
g487
I0
sg488
Vupgrade
p1182
sg490
I40
sg491
(lp1183
(dp1184
g220
g221
sg222
g223
sg224
g225
sg226
I0
sg227
I0
sg228
(dp1185
Vdelay_walk
p1186
I-5
sVelite
p1187
I1
sg239
(dp1188
VSpeed II
p1189
(dp1190
g235
I0
sg236
Vupgrade
p1191
sg238
I50
sg239
(lp1192
(dp1193
g220
g221
sg222
g223
sg224
g225
sg226
I0
sg227
I0
sg228
(dp1194
Vdelay_walk
p1195
I-5
sVwalk_dist
p1196
I1
sVelite
p1197
I1
sVdelay_shoot
p1198
I-3
ssasg292
I1
ssssasg497
I1
sssg886
I20
sssI3
(dp1199
g667
(dp1200
g669
(dp1201
I400
(lp1202
(dp1203
g899
g900
sg901
g902
sg903
g904
sg905
I0
sg906
I0
sg907
(dp1204
Vmax_shield
p1205
I8
sVattack_min
p1206
I5
sVelite
p1207
I1
sVshield
p1208
I8
ssasI800
(lp1209
(dp1210
g899
g900
sg901
g902
sg903
g904
sg905
I0
sg906
I0
sg907
(dp1211
Vshield_factor
p1212
F0.1
sVattack_min
p1213
I8
sVelite
p1214
I1
sVattack_max
p1215
I14
ssassg692
(dp1216
I0
(lp1217
sI250
(lp1218
(dp1219
g400
g401
sg402
g403
sg404
g405
sg406
I0
sg407
I0
sg408
(dp1220
Vattack_min
p1221
I8
sVelite
p1222
I1
sVattack_max
p1223
I8
sg397
(dp1224
Vschneller laden
p1225
(dp1226
g393
I0
sg394
Vupgrade
p1227
sg396
I40
sg397
(lp1228
(dp1229
g400
g401
sg402
g403
sg404
g405
sg406
I0
sg407
I0
sg408
(dp1230
Vdelay_shoot
p1231
I-4
ssasg412
I1
ssssasssg721
(dp1232
g723
I15
sg724
I50
sg725
I5
sg726
VSniper
p1233
sg728
I1
sg729
I40
sg730
I20
sg731
I3
sg732
Vsoldier
p1234
sg734
I50
sg55
I0
sg735
I60
sg736
I10
sg737
I200
sg738
I0
sg739
F0.6
sg740
(dp1235
VSchutzweste
p1236
(dp1237
g182
I0
sg183
Vupgrade
p1238
sg185
I30
sg186
(lp1239
(dp1240
g189
g190
sg191
g192
sg193
g194
sg195
I0
sg196
I0
sg197
(dp1241
Vmax_shield
p1242
I10
sVshield
p1243
I10
ssasg210
I1
ssVSpeed I (ziehen und laden)
p1244
(dp1245
g182
I0
sg183
Vupgrade
p1246
sg185
I30
sg186
(lp1247
(dp1248
g189
g190
sg191
g192
sg193
g194
sg195
I0
sg196
I0
sg197
(dp1249
Vwalk_dist
p1250
I1
sVelite
p1251
I1
sVdelay_shoot
p1252
I-2
ssasg210
I1
ssVhoehere Schussweite
p1253
(dp1254
S'delay'
p1255
I0
sS'category'
p1256
Vupgrade
p1257
sS'price'
p1258
I40
sS'actions'
p1259
(lp1260
(dp1261
S'target'
p1262
S'self'
p1263
sS'level'
p1264
S'id'
p1265
sS'type'
p1266
S'change'
p1267
sS'random'
p1268
I0
sS'num_units'
p1269
I0
sS'changes'
p1270
(dp1271
Vshoot_dist
p1272
I1
sVelite
p1273
I1
sg1259
(dp1274
VDistanzexperte
p1275
(dp1276
g1255
I0
sg1256
Vupgrade
p1277
sg1258
I50
sg1259
(lp1278
(dp1279
g1262
g1263
sg1264
g1265
sg1266
g1267
sg1268
I0
sg1269
I0
sg1270
(dp1280
Vshoot_dist
p1281
I1
sVattack_min
p1282
I8
sVelite
p1283
I1
sg1259
(dp1284
ssasS'num_uses'
p1285
I1
ssssasg1285
I1
ssVPraezision
p1286
(dp1287
S'delay'
p1288
I0
sS'category'
p1289
Vupgrade
p1290
sS'price'
p1291
I30
sg532
(lp1292
(dp1293
S'target'
p1294
S'self'
p1295
sS'level'
p1296
S'id'
p1297
sS'type'
p1298
S'change'
p1299
sS'random'
p1300
I0
sS'num_units'
p1301
I0
sS'changes'
p1302
(dp1303
Vattack_min
p1304
I15
sVelite
p1305
I1
sVattack_max
p1306
I8
sg397
(dp1307
Vbessere Munition
p1308
(dp1309
g393
I0
sg394
Vupgrade
p1310
sg396
I40
sg397
(lp1311
(dp1312
g400
g401
sg402
g403
sg404
g405
sg406
I0
sg407
I0
sg408
(dp1313
Vshield_factor
p1314
F0.05
sVattack_min
p1315
I15
sVelite
p1316
I1
sVattack_max
p1317
I10
sg397
(dp1318
VSchildzerstoerer
p1319
(dp1320
g393
I0
sg394
Vupgrade
p1321
sg396
I30
sg397
(lp1322
(dp1323
g400
g401
sg402
g403
sg404
g405
sg406
I0
sg407
I0
sg408
(dp1324
Vshield_factor
p1325
F0.2
sVelite
p1326
I1
sVattack_max
p1327
I8
sg299
(dp1328
VDoppelschuss
p1329
(dp1330
g295
I0
sg296
Vupgrade
p1331
sg298
I0
sg299
(lp1332
sg321
I0
ssssasg412
I1
ssssasg412
I1
ssVDoppelschuss
p1333
(dp1334
g1255
I0
sg1256
Vupgrade
p1335
sg1258
I60
sg1259
(lp1336
(dp1337
g1262
g1263
sg1264
g1265
sg1266
g1267
sg1268
I0
sg1269
I0
sg1270
(dp1338
Vnum_enemies
p1339
I1
sVattack_min
p1340
I8
sVelite
p1341
I1
sVattack_max
p1342
I15
sg299
(dp1343
VSchildzerstoerer
p1344
(dp1345
g295
I0
sg296
Vupgrade
p1346
sg298
I0
sg299
(lp1347
sg321
I0
ssssasg1285
I1
ssssasS'num_uses'
p1348
I1
sssg886
I0
sssI4
(dp1349
g667
(dp1350
g669
(dp1351
I0
(lp1352
sI600
(lp1353
(dp1354
g899
g900
sg901
g902
sg903
g904
sg905
I0
sg906
I0
sg907
(dp1355
Vdelay_walk
p1356
I-3
sVelite
p1357
I1
sVshield
p1358
I30
sVmax_shield
p1359
I15
ssasI300
(lp1360
(dp1361
g899
g900
sg901
g902
sg903
g904
sg905
I0
sg906
I0
sg907
(dp1362
Vdelay_walk
p1363
I-2
sVelite
p1364
I1
sVshield
p1365
I15
sVdelay_shoot
p1366
I-3
ssassg692
(dp1367
I500
(lp1368
(dp1369
g189
g190
sg191
g192
sg193
g194
sg195
I0
sg196
I0
sg197
(dp1370
Vshield_factor
p1371
F0.07
sVattack_min
p1372
I10
sVelite
p1373
I1
sVattack_max
p1374
I5
ssasssg721
(dp1375
g723
I18
sg724
I100
sg725
I5
sg726
VPanzer
p1376
sg728
I8
sg729
I50
sg730
I18
sg731
I4
sg732
Vvehicle
p1377
sg734
I100
sg55
I100
sg735
I90
sg736
I7
sg737
I400
sg738
I0
sg739
F0.6
sg740
(dp1378
VShottpanzerung
p1379
(dp1380
g609
I0
sg610
Vupgrade
p1381
sg612
I70
sg613
(lp1382
(dp1383
g204
g616
sg208
g617
sg202
g618
sg619
I0
sg620
I0
sg621
(dp1384
Vdelay_walk
p1385
I3
sVelite
p1386
I1
sVshield
p1387
I50
sg613
(dp1388
VVerbundpanzerung
p1389
(dp1390
g609
I0
sg610
Vupgrade
p1391
sg612
I40
sg613
(lp1392
(dp1393
g204
g616
sg208
g617
sg202
g618
sg619
I0
sg620
I0
sg621
(dp1394
Vdelay_walk
p1395
I-3
sVlife
p1396
I10
sVelite
p1397
I1
sVshield
p1398
I25
sVmax_shield
p1399
I15
ssasg628
I1
sssVmax_shield
p1400
I30
ssasg628
I1
ssVHartkernmunition
p1401
(dp1402
S'delay'
p1403
I0
sS'category'
p1404
Vupgrade
p1405
sS'price'
p1406
I30
sS'actions'
p1407
(lp1408
(dp1409
S'target'
p1410
Vself
p1411
sS'level'
p1412
Vid
p1413
sS'type'
p1414
Vchange
p1415
sS'random'
p1416
F0.0
sS'num_units'
p1417
I0
sS'changes'
p1418
(dp1419
Vshield_factor
p1420
F0.15
sVelite
p1421
I1
sVattack_max
p1422
I8
sS'actions'
p1423
(dp1424
VUrangeschoss
p1425
(dp1426
S'delay'
p1427
I0
sS'category'
p1428
Vupgrade
p1429
sS'price'
p1430
I80
sg1423
(lp1431
(dp1432
S'target'
p1433
Vself
p1434
sS'level'
p1435
Vid
p1436
sS'type'
p1437
Vchange
p1438
sS'random'
p1439
F0.0
sS'num_units'
p1440
I0
sS'changes'
p1441
(dp1442
Vshield_factor
p1443
F0.2
sVattack_min
p1444
I15
sVelite
p1445
I1
sVattack_max
p1446
I15
ssasS'num_uses'
p1447
I1
ssssasS'num_uses'
p1448
I1
ssVSpeed I
p1449
(dp1450
g487
I0
sg488
Vupgrade
p1451
sg490
I20
sg491
(lp1452
(dp1453
g1410
S'self'
p1454
sg1412
S'id'
p1455
sg1414
S'change'
p1456
sg1416
I0
sg1417
I0
sg1418
(dp1457
Vdelay_walk
p1458
I-2
sg1407
(dp1459
VSpeed II
p1460
(dp1461
g1403
I0
sg1404
Vupgrade
p1462
sg1406
I40
sg1407
(lp1463
(dp1464
g1410
g1454
sg1412
g1455
sg1414
g1456
sg1416
I0
sg1417
I0
sg1418
(dp1465
Vdelay_walk
p1466
I-2
sVwalk_dist
p1467
I1
sVelite
p1468
I1
ssasg1448
I1
ssssasg497
I1
sssg886
I100
sssI5
(dp1469
g667
(dp1470
g669
(dp1471
I0
(lp1472
sI500
(lp1473
(dp1474
S'target'
p1475
S'self'
p1476
sS'level'
p1477
S'id'
p1478
sS'type'
p1479
S'change'
p1480
sS'random'
p1481
I0
sS'num_units'
p1482
I0
sS'changes'
p1483
(dp1484
Vmax_life
p1485
I10
sVelite
p1486
I1
ssassg692
(dp1487
I0
(lp1488
sssg721
(dp1489
g723
I15
sg724
I100
sg725
I5
sg726
VArtillerie
p1490
sg728
I10
sg729
I0
sg730
I35
sg731
I5
sg732
Vvehicle
p1491
sg734
I100
sg55
I70
sg735
I0
sg736
I10
sg737
I600
sg738
I0
sg739
F0.5
sg740
(dp1492
Vgroessere Schussweite I
p1493
(dp1494
g1403
I0
sg1404
Vupgrade
p1495
sg1406
I40
sg1407
(lp1496
(dp1497
g1410
g1454
sg1412
g1455
sg1414
g1456
sg1416
I0
sg1417
I0
sg1418
(dp1498
Vshoot_dist
p1499
I1
sVelite
p1500
I1
sg468
(dp1501
Vgroessere Schussweite II
p1502
(dp1503
g464
I0
sg465
Vupgrade
p1504
sg467
I50
sg468
(lp1505
(dp1506
g471
g472
sg473
g474
sg475
g476
sg477
I0
sg478
I0
sg479
(dp1507
Vshoot_dist
p1508
I1
sVelite
p1509
I1
ssasg484
I1
ssVStreuung erhoehen
p1510
(dp1511
g464
I0
sg465
Vupgrade
p1512
sg467
I40
sg468
(lp1513
(dp1514
g471
g472
sg473
g474
sg475
g476
sg477
I0
sg478
I0
sg479
(dp1515
Vnum_enemies
p1516
I5
sVattack_min
p1517
I15
sVelite
p1518
I1
ssasg484
I1
ssssasg1448
I1
ssVAufbauen
p1519
(dp1520
S'delay'
p1521
I25
sS'category'
p1522
Vstandard
p1523
sS'price'
p1524
I0
sS'actions'
p1525
(lp1526
(dp1527
S'target'
p1528
S'self'
p1529
sS'level'
p1530
S'id'
p1531
sS'type'
p1532
S'change'
p1533
sS'random'
p1534
I0
sS'num_units'
p1535
I0
sS'changes'
p1536
(dp1537
Vattack_min
p1538
I100
sVwalk_dist
p1539
I-5
sVattack_max
p1540
I200
sg1525
(dp1541
VTransport
p1542
(dp1543
S'delay'
p1544
I30
sS'category'
p1545
Vequipment
p1546
sS'price'
p1547
I0
sS'actions'
p1548
(lp1549
(dp1550
S'target'
p1551
S'self'
p1552
sS'level'
p1553
S'id'
p1554
sS'type'
p1555
S'change'
p1556
sS'random'
p1557
I0
sS'num_units'
p1558
I0
sS'changes'
p1559
(dp1560
Vattack_min
p1561
I-100
sVwalk_dist
p1562
I5
sVattack_max
p1563
I-200
sg1548
(dp1564
VAufbau
p1565
(dp1566
g1544
I25
sg1545
Vstandard
p1567
sg1547
I0
sg1548
(lp1568
(dp1569
g1551
g1552
sg1553
g1554
sg1555
g1556
sg1557
I0
sg1558
I0
sg1559
(dp1570
Vattack_min
p1571
I100
sVattack_max
p1572
I200
sVwalk_dist
p1573
I-5
ssasS'num_uses'
p1574
I1
ssssasg1574
I-1
ssssasS'num_uses'
p1575
I1
ssVSpeed I
p1576
(dp1577
g487
I0
sg488
Vupgrade
p1578
sg490
I80
sg491
(lp1579
(dp1580
g471
g472
sg473
g474
sg475
g476
sg477
I0
sg478
I0
sg479
(dp1581
Vdelay_walk
p1582
I-4
sVelite
p1583
I1
sVdelay_shoot
p1584
I-8
sg468
(dp1585
VSpeed II
p1586
(dp1587
g464
I0
sg465
Vupgrade
p1588
sg467
I50
sg468
(lp1589
(dp1590
g471
g472
sg473
g474
sg475
g476
sg477
I0
sg478
I0
sg479
(dp1591
Vdelay_walk
p1592
I-2
sVelite
p1593
I1
sVdelay_shoot
p1594
I-8
ssasg484
I1
ssssasg497
I1
sssg886
I70
sssI6
(dp1595
S'elite_parameters'
p1596
(dp1597
S'ticks'
p1598
(dp1599
I800
(lp1600
(dp1601
g899
g900
sg901
g902
sg903
g904
sg905
I0
sg906
I0
sg907
(dp1602
Vmax_shield
p1603
I8
sVlife
p1604
I100
sVmax_life
p1605
I10
sVelite
p1606
I1
sVshield
p1607
I15
ssasI400
(lp1608
(dp1609
g899
g900
sg901
g902
sg903
g904
sg905
I0
sg906
I0
sg907
(dp1610
Vlife
p1611
I100
sVmax_life
p1612
I8
sVelite
p1613
I1
ssassS'damage'
p1614
(dp1615
I0
(lp1616
sssS'basic_parameters'
p1617
(dp1618
S'delay_walk'
p1619
I15
sS'life'
p1620
I50
sS'walk_dist'
p1621
I5
sS'name'
p1622
VArzt
p1623
sS'num_enemies'
p1624
I3
sS'attack_min'
p1625
I0
sS'delay_shoot'
p1626
I15
sg1098
I6
sS'unit_type'
p1627
Vsoldier
p1628
sS'max_life'
p1629
I50
sg55
I10
sS'attack_max'
p1630
I0
sS'shoot_dist'
p1631
I5
sg1115
I120
sS'elite'
p1632
I0
sS'shield_factor'
p1633
F0.4
sg1108
(dp1634
VSchmerzmittel
p1635
(dp1636
g393
I0
sg394
Vshop
p1637
sg396
I35
sg397
(lp1638
(dp1639
g647
Vself
p1640
sg649
Vid
p1641
sg651
Vchange
p1642
sg653
F0.15
sg654
I0
sg655
(dp1643
Vlife
p1644
I30
ssasg412
I-1
ssVOperation 120
p1645
(dp1646
g640
I12
sg641
Vstandard
p1647
sg643
I130
sg644
(lp1648
(dp1649
g647
Vown
p1650
sg649
Vid
p1651
sg651
Vchange
p1652
sg653
F0.2
sg654
I13
sg655
(dp1653
Vlife
p1654
I10
ssasg662
I-1
ssVVerband 50
p1655
(dp1656
g640
I8
sg641
Vstandard
p1657
sg643
I60
sg644
(lp1658
(dp1659
g647
Vown
p1660
sg649
Vid
p1661
sg651
Vchange
p1662
sg653
F0.2
sg654
I5
sg655
(dp1663
Vlife
p1664
I10
ssasg662
I-1
ssVSpeed I
p1665
(dp1666
g393
I0
sg394
Vupgrade
p1667
sg396
I30
sg397
(lp1668
(dp1669
g400
g401
sg402
g403
sg404
g405
sg406
I0
sg407
I0
sg408
(dp1670
Vwalk_dist
p1671
I1
sVelite
p1672
I1
sg397
(dp1673
VSpeed II
p1674
(dp1675
g393
I0
sg394
Vupgrade
p1676
sg396
I50
sg397
(lp1677
(dp1678
g400
g401
sg402
g403
sg404
g405
sg406
I0
sg407
I0
sg408
(dp1679
Vdelay_walk
p1680
I-4
sVwalk_dist
p1681
I2
sVelite
p1682
I1
ssasg412
I1
ssssasg412
I1
sssS'shield'
p1683
I10
sssI7
(dp1684
S'elite_parameters'
p1685
(dp1686
S'ticks'
p1687
(dp1688
I0
(lp1689
ssS'damage'
p1690
(dp1691
I0
(lp1692
sssS'basic_parameters'
p1693
(dp1694
S'delay_walk'
p1695
I15
sS'life'
p1696
I60
sS'walk_dist'
p1697
I5
sS'name'
p1698
VCyborg
p1699
sS'num_enemies'
p1700
I5
sS'attack_min'
p1701
I20
sS'delay_shoot'
p1702
I15
sg192
I7
sS'unit_type'
p1703
Vsoldier
p1704
sS'max_life'
p1705
I60
sg55
I40
sS'attack_max'
p1706
I35
sS'shoot_dist'
p1707
I7
sg185
I120
sS'elite'
p1708
I0
sS'shield_factor'
p1709
F0.6
sg186
(dp1710
VSpeed I
p1711
(dp1712
S'delay'
p1713
I0
sS'category'
p1714
S'upgrade'
p1715
sS'price'
p1716
I0
sS'actions'
p1717
(lp1718
sS'num_uses'
p1719
I-1
sssS'shield'
p1720
I40
sssI8
(dp1721
S'elite_parameters'
p1722
(dp1723
S'ticks'
p1724
(dp1725
I0
(lp1726
sI250
(lp1727
(dp1728
S'target'
p1729
S'self'
p1730
sS'level'
p1731
S'id'
p1732
sS'type'
p1733
S'change'
p1734
sS'random'
p1735
I0
sS'num_units'
p1736
I0
sS'changes'
p1737
(dp1738
Velite
p1739
I1
sVlife
p1740
I20
sVmax_shield
p1741
I5
sVshield
p1742
I10
ssasI500
(lp1743
(dp1744
g1729
g1730
sg1731
g1732
sg1733
g1734
sg1735
I0
sg1736
I0
sg1737
(dp1745
Velite
p1746
I1
sVlife
p1747
I100
sVmax_life
p1748
I10
sVmax_shield
p1749
I5
sVshield
p1750
I20
ssassS'damage'
p1751
(dp1752
I0
(lp1753
sI500
(lp1754
sssS'basic_parameters'
p1755
(dp1756
S'delay_walk'
p1757
I15
sS'life'
p1758
I70
sS'walk_dist'
p1759
I5
sS'name'
p1760
VKommandant
p1761
sS'num_enemies'
p1762
I4
sS'attack_min'
p1763
I20
sS'delay_shoot'
p1764
I15
sg103
I8
sS'unit_type'
p1765
Vsoldier
p1766
sS'max_life'
p1767
I70
sg55
I10
sS'attack_max'
p1768
I30
sS'shoot_dist'
p1769
I6
sg986
I250
sS'elite'
p1770
I4
sS'shield_factor'
p1771
F0.6
sg987
(dp1772
VLuftunterstuetzung
p1773
(dp1774
g983
I40
sg984
Vstandard
p1775
sg986
I150
sg987
(lp1776
(dp1777
g100
Venemy
p1778
sg102
Vid
p1779
sg104
Vchange
p1780
sg106
F0.6
sg107
I7
sg108
(dp1781
Vlife
p1782
I-17
sVshield
p1783
I-12
ssasg994
I-1
ssVDrill Sergent
p1784
(dp1785
S'delay'
p1786
I0
sS'category'
p1787
Vstandard
p1788
sS'price'
p1789
I100
sS'actions'
p1790
(lp1791
(dp1792
S'target'
p1793
Vown
p1794
sS'level'
p1795
Vid
p1796
sS'type'
p1797
Vchange
p1798
sS'random'
p1799
F0.0
sS'num_units'
p1800
I0
sS'changes'
p1801
(dp1802
Vattack_min
p1803
I10
sVattack_max
p1804
I8
sVdelay_shoot
p1805
I-3
ssasS'num_uses'
p1806
I-1
ssVFallschirmspringer
p1807
(dp1808
g850
I20
sg851
Vstandard
p1809
sg853
I450
sg836
(lp1810
(dp1811
g76
Vnew
p1812
sg72
Vown
p1813
sg87
(lp1814
I0
aI0
aI2
asg74
Vgroups
p1815
sasg855
I-1
ssVSpionageausbildung
p1816
(dp1817
S'delay'
p1818
I0
sS'category'
p1819
Vupgrade
p1820
sS'price'
p1821
I170
sS'actions'
p1822
(lp1823
(dp1824
S'target'
p1825
S'self'
p1826
sS'level'
p1827
S'id'
p1828
sS'type'
p1829
S'change'
p1830
sS'random'
p1831
I0
sS'num_units'
p1832
I0
sS'changes'
p1833
(dp1834
Velite
p1835
I1
sg1822
(dp1836
VWirtschafts-Spionage
p1837
(dp1838
g1818
I40
sg1819
Vupgrade
p1839
sg1821
I80
sg1822
(lp1840
(dp1841
g1825
g1826
sg1827
g1828
sg1829
g1830
sg1831
I0
sg1832
I0
sg1833
(dp1842
g1822
(dp1843
VDieb
p1844
(dp1845
g1818
I60
sg1819
Vequipment
p1846
sg1821
I200
sg1822
(lp1847
(dp1848
g1829
Vchange
p1849
sg1831
F0.5
sg1833
(dp1850
Vaccount
p1851
I-150
ssg1825
Venemy
p1852
sg1827
Vplayer
p1853
sa(dp1854
g1829
Vchange
p1855
sg1831
F0.7
sg1833
(dp1856
Vaccount
p1857
I80
ssg1825
Vown
p1858
sg1827
Vplayer
p1859
sasS'num_uses'
p1860
I-1
ssssasg1860
I-1
ssVID-Spionage
p1861
(dp1862
g1818
I40
sg1819
Vequipment
p1863
sg1821
I70
sg1822
(lp1864
sg1860
I-1
ssssasg1860
I1
sssS'shield'
p1865
I10
sssI9
(dp1866
S'elite_parameters'
p1867
(dp1868
S'ticks'
p1869
(dp1870
I0
(lp1871
ssS'damage'
p1872
(dp1873
I0
(lp1874
sssS'basic_parameters'
p1875
(dp1876
S'delay_walk'
p1877
I0
sS'life'
p1878
I100
sS'walk_dist'
p1879
I0
sS'name'
p1880
VFlak
p1881
sS'num_enemies'
p1882
I3
sS'attack_min'
p1883
I60
sS'delay_shoot'
p1884
I15
sS'id'
p1885
I9
sS'unit_type'
p1886
Vvehicle
p1887
sS'max_life'
p1888
I100
sg55
I0
sS'attack_max'
p1889
I80
sS'shoot_dist'
p1890
I5
sS'price'
p1891
I200
sS'elite'
p1892
I0
sS'shield_factor'
p1893
F0.6
sS'actions'
p1894
(dp1895
Vnix
p1896
(dp1897
S'delay'
p1898
I0
sS'category'
p1899
S'upgrade'
p1900
sg1891
I0
sg1894
(lp1901
sS'num_uses'
p1902
I-1
sssS'shield'
p1903
I0
sssI10
(dp1904
S'elite_parameters'
p1905
(dp1906
S'ticks'
p1907
(dp1908
I0
(lp1909
(dp1910
g899
g900
sg901
g902
sg903
g904
sg905
I0
sg906
I0
sg907
(dp1911
sasI400
(lp1912
(dp1913
g899
g900
sg901
g902
sg903
g904
sg905
I0
sg906
I0
sg907
(dp1914
Vdelay_walk
p1915
I-2
sVelite
p1916
I1
ssassS'damage'
p1917
(dp1918
I0
(lp1919
sssS'basic_parameters'
p1920
(dp1921
S'delay_walk'
p1922
I11
sS'life'
p1923
I40
sS'walk_dist'
p1924
I6
sS'name'
p1925
VMotorrad
p1926
sS'num_enemies'
p1927
I4
sS'attack_min'
p1928
I5
sS'delay_shoot'
p1929
I15
sS'id'
p1930
I10
sS'unit_type'
p1931
Vvehicle
p1932
sS'max_life'
p1933
I40
sg55
I0
sS'attack_max'
p1934
I10
sS'shoot_dist'
p1935
I5
sg1789
I40
sS'elite'
p1936
I0
sS'shield_factor'
p1937
F0.45
sg1790
(dp1938
VSchutzweste
p1939
(dp1940
g1786
I0
sg1787
Vupgrade
p1941
sg1789
I30
sg1790
(lp1942
(dp1943
g1793
S'self'
p1944
sg1795
g1930
sg1797
S'change'
p1945
sg1799
I0
sg1800
I0
sg1801
(dp1946
Vmax_shield
p1947
I8
sVshield
p1948
I8
ssasg1806
I1
ssVneue Reifen
p1949
(dp1950
g1786
I0
sg1787
Vupgrade
p1951
sg1789
I20
sg1790
(lp1952
(dp1953
g1793
g1944
sg1795
g1930
sg1797
g1945
sg1799
I0
sg1800
I0
sg1801
(dp1954
Vwalk_dist
p1955
I1
sVelite
p1956
I1
sg1790
(dp1957
Vleichteres Motorrad
p1958
(dp1959
g1786
I0
sg1787
Vupgrade
p1960
sg1789
I30
sg1790
(lp1961
(dp1962
g1793
g1944
sg1795
g1930
sg1797
g1945
sg1799
I0
sg1800
I0
sg1801
(dp1963
Vdelay_walk
p1964
I-1
sVwalk_dist
p1965
I1
sVelite
p1966
I1
ssasg1806
I1
ssssasg1806
I1
ssVDrive by lernen
p1967
(dp1968
g1786
I0
sg1787
Vupgrade
p1969
sg1789
I30
sg1790
(lp1970
(dp1971
g1793
g1944
sg1795
g1930
sg1797
g1945
sg1799
I0
sg1800
I0
sg1801
(dp1972
Vattack_min
p1973
I7
sVelite
p1974
I1
sVattack_max
p1975
I5
ssasg1806
I1
sssS'shield'
p1976
I0
sssI11
(dp1977
S'elite_parameters'
p1978
(dp1979
S'ticks'
p1980
(dp1981
I0
(lp1982
ssS'damage'
p1983
(dp1984
I0
(lp1985
sssS'basic_parameters'
p1986
(dp1987
S'delay_walk'
p1988
I18
sS'life'
p1989
I80
sS'walk_dist'
p1990
I5
sS'name'
p1991
VJavelin
p1992
sS'num_enemies'
p1993
I2
sS'attack_min'
p1994
I8
sS'delay_shoot'
p1995
I20
sg1169
I11
sS'unit_type'
p1996
Vsoldier
p1997
sS'max_life'
p1998
I80
sg55
I50
sS'attack_max'
p1999
I12
sS'shoot_dist'
p2000
I9
sg1162
I200
sS'elite'
p2001
I0
sS'shield_factor'
p2002
F2.5
sg1163
(dp2003
Vschneller ziehen
p2004
(dp2005
g295
I0
sg296
Vupgrade
p2006
sg298
I30
sg299
(lp2007
(dp2008
g302
g303
sg304
g305
sg306
g307
sg308
I0
sg309
I0
sg310
(dp2009
Vdelay_walk
p2010
I-3
sVelite
p2011
I1
ssasg321
I1
ssVschneller laden
p2012
(dp2013
S'delay'
p2014
I0
sS'category'
p2015
Vupgrade
p2016
sS'price'
p2017
I40
sS'actions'
p2018
(lp2019
(dp2020
S'target'
p2021
S'self'
p2022
sS'level'
p2023
S'id'
p2024
sS'type'
p2025
S'change'
p2026
sS'random'
p2027
I0
sS'num_units'
p2028
I0
sS'changes'
p2029
(dp2030
Velite
p2031
I1
sVdelay_shoot
p2032
I-4
ssasS'num_uses'
p2033
I1
ssVgroessere Sprengkraft
p2034
(dp2035
g2014
I0
sg2015
Vupgrade
p2036
sg2017
I30
sg2018
(lp2037
(dp2038
g2021
g2022
sg2023
g2024
sg2025
g2026
sg2027
I0
sg2028
I0
sg2029
(dp2039
Vnum_enemies
p2040
I2
sVattack_min
p2041
I2
sVelite
p2042
I1
sVattack_max
p2043
I3
sg2018
(dp2044
Vneue Sprengtechnologie
p2045
(dp2046
g2014
I0
sg2015
Vupgrade
p2047
sg2017
I40
sg2018
(lp2048
(dp2049
g2021
g2022
sg2023
g2024
sg2025
g2026
sg2027
I0
sg2028
I0
sg2029
(dp2050
Vshield_factor
p2051
F0.4
sVelite
p2052
I1
ssasg2033
I1
ssssasg2033
I1
sssS'shield'
p2053
I50
ssssS'engine_parameters'
p2054
(dp2055
S'max_victory_diff'
p2056
F200.0
sS'start_account'
p2057
F200.0
sS'all_sectors'
p2058
(dp2059
I1
(dp2060
S'victory'
p2061
I0
sS'weight'
p2062
F1.0
ssI2
(dp2063
g2061
I0
sg2062
F1.0
ssI3
(dp2064
g2061
I0
sg2062
F1.0
ssI4
(dp2065
g2061
I0
sg2062
F1.0
ssI5
(dp2066
g2061
I0
sg2062
F1.0
ssI6
(dp2067
g2061
I0
sg2062
F1.0
ssI7
(dp2068
g2061
I0
sg2062
F1.0
ssI8
(dp2069
g2061
I0
sg2062
F1.0
ssI9
(dp2070
g2061
I0
sg2062
F1.0
ssI10
(dp2071
g2061
I0
sg2062
F1.0
ssI11
(dp2072
g2061
I0
sg2062
F1.0
ssI12
(dp2073
g2061
I1
sg2062
F1.0
ssI13
(dp2074
g2061
I0
sg2062
F1.0
ssI14
(dp2075
g2061
I1
sg2062
F1.0
ssI15
(dp2076
g2061
I0
sg2062
F1.0
ssI16
(dp2077
g2061
I0
sg2062
F1.0
ssI17
(dp2078
g2061
I0
sg2062
F1.0
ssI18
(dp2079
g2061
I0
sg2062
F1.0
ssI19
(dp2080
g2061
I0
sg2062
F1.0
ssI20
(dp2081
g2061
I0
sg2062
F1.0
ssI21
(dp2082
g2061
I0
sg2062
F1.0
ssI22
(dp2083
g2061
I0
sg2062
F1.0
ssI23
(dp2084
g2061
I1
sg2062
F1.0
ssI24
(dp2085
g2061
I0
sg2062
F1.0
sssS'delay_damage'
p2086
F0.5
sS'extra_shoot_dist'
p2087
F2.0
sS'per_sector_per_tick'
p2088
F1.0
sS'take_over_factor'
p2089
F1.3
sS'tick_duration'
p2090
F11.0
sS'protection_effect'
p2091
F0.4
sS'protection_in'
p2092
F18.0
sS'sector_takeover'
p2093
F100.0
sS'protection_out'
p2094
F10.0
sS'constant_per_tick'
p2095
F4.0
ssS'transport_parameters'
p2096
(dp2097
I0
(dp2098
g154
(dp2099
g156
(dp2100
I0
(lp2101
ssg159
(dp2102
I0
(lp2103
sssg162
(dp2104
S'delay_walk'
p2105
I15
sg164
I100
sS'walk_dist'
p2106
I10
sg167
I10
sg168
VTransporter
p2107
sS'transports'
p2108
Vsoldier
p2109
sg171
F0.4
sg172
I0
sg173
I25
sg174
I20
sg175
I10
sg176
I200
sg177
I100
sg55
I25
sg170
I8
sg325
I5
sg178
(dp2110
VPanzerung
p2111
(dp2112
S'delay'
p2113
I0
sS'category'
p2114
Vupgrade
p2115
sS'price'
p2116
I50
sS'actions'
p2117
(lp2118
(dp2119
g673
g674
sg675
g676
sg677
g678
sg679
I0
sg680
I0
sg681
(dp2120
Vdelay_walk
p2121
I3
sVelite
p2122
I1
sVshield
p2123
I40
sg2117
(dp2124
VCasspir
p2125
(dp2126
g2113
I0
sg2114
Vupgrade
p2127
sg2116
I70
sg2117
(lp2128
(dp2129
g673
g674
sg675
g676
sg677
g678
sg679
I0
sg680
I0
sg681
(dp2130
Vdelay_walk
p2131
I-5
sVelite
p2132
I1
sVshield
p2133
I50
sVmax_shield
p2134
I40
ssasS'num_uses'
p2135
I1
sssVmax_shield
p2136
I30
ssasg2135
I1
ssVMG
p2137
(dp2138
g2113
I0
sg2114
Vupgrade
p2139
sg2116
I40
sg2117
(lp2140
(dp2141
g673
Vself
p2142
sg675
Vid
p2143
sg677
Vchange
p2144
sg679
F0.0
sg680
I0
sg681
(dp2145
Vattack_min
p2146
I20
sVelite
p2147
I1
sVattack_max
p2148
I40
sg2117
(dp2149
VKampfmaschine
p2150
(dp2151
g2113
I0
sg2114
Vupgrade
p2152
sg2116
I80
sg2117
(lp2153
(dp2154
g673
g674
sg675
g676
sg677
g678
sg679
I0
sg680
I0
sg681
(dp2155
Vshield_factor
p2156
F0.2
sVattack_min
p2157
I30
sVelite
p2158
I1
sVattack_max
p2159
I30
ssasg2135
I1
ssssasg2135
I1
ssVSpeed up (laden & ziehen)
p2160
(dp2161
g609
I0
sg610
Vupgrade
p2162
sg612
I30
sg613
(lp2163
(dp2164
g204
g616
sg208
g617
sg202
g618
sg619
I0
sg620
I0
sg621
(dp2165
Vdelay_walk
p2166
I-2
sVelite
p2167
I1
sVdelay_shoot
p2168
I-2
sg613
(dp2169
VSpeed up (nur ziehen)
p2170
(dp2171
g609
I0
sg610
Vupgrade
p2172
sg612
I40
sg613
(lp2173
(dp2174
g204
g616
sg208
g617
sg202
g618
sg619
I0
sg620
I0
sg621
(dp2175
Vdelay_walk
p2176
I-2
sVwalk_dist
p2177
I1
sVelite
p2178
I1
ssasg628
I1
ssssasg628
I1
ssVmehr Platz I
p2179
(dp2180
g2113
I0
sg2114
Vupgrade
p2181
sg2116
I30
sg2117
(lp2182
(dp2183
g673
g674
sg675
g676
sg677
g678
sg679
I0
sg680
I0
sg681
(dp2184
Velite
p2185
I1
sVcapacity
p2186
I5
sg2117
(dp2187
Vmehr Platz II
p2188
(dp2189
g2113
I0
sg2114
Vupgrade
p2190
sg2116
I40
sg2117
(lp2191
(dp2192
g673
g674
sg675
g676
sg677
g678
sg679
I0
sg680
I0
sg681
(dp2193
Velite
p2194
I1
sVcapacity
p2195
I8
ssasg2135
I1
ssssasg2135
I1
sssg326
I0
sg324
I0
sg329
I4
sg330
I0
sssI1
(dp2196
g332
(dp2197
g334
(dp2198
I0
(lp2199
ssg337
(dp2200
I0
(lp2201
sssg340
(dp2202
S'delay_walk'
p2203
I15
sg342
I100
sS'walk_dist'
p2204
I10
sg345
I10
sg346
VHelikopter
p2205
sS'transports'
p2206
Vsoldier
p2207
sg348
F0.4
sg349
I0
sg350
I50
sg351
I20
sg352
I10
sg353
I200
sg354
I100
sg55
I50
sg355
I8
sg359
I6
sg360
(dp2208
VBombe abwerfen
p2209
(dp2210
g364
I15
sg365
Vstandard
p2211
sg353
I80
sg360
(lp2212
(dp2213
g369
Venemy
p2214
sg371
Vid
p2215
sg373
Vchange
p2216
sg375
F0.3
sg376
I7
sg377
(dp2217
Vlife
p2218
I-6
sg360
(dp2219
ssasg380
I-1
ssVschneller fliegen
p2220
(dp2221
S'delay'
p2222
I0
sS'category'
p2223
Vupgrade
p2224
sS'price'
p2225
I30
sS'actions'
p2226
(lp2227
(dp2228
S'target'
p2229
S'self'
p2230
sS'level'
p2231
S'id'
p2232
sS'type'
p2233
S'change'
p2234
sS'random'
p2235
I0
sS'num_units'
p2236
I0
sS'changes'
p2237
(dp2238
Vdelay_walk
p2239
I-3
sg2226
(dp2240
Vsuper Speed
p2241
(dp2242
g2222
I0
sg2223
Vupgrade
p2243
sg2225
I50
sg2226
(lp2244
(dp2245
g2229
g2230
sg2231
g2232
sg2233
g2234
sg2235
I0
sg2236
I0
sg2237
(dp2246
Vdelay_walk
p2247
I-2
sVwalk_dist
p2248
I1
ssasS'num_uses'
p2249
I1
ssssasg2249
I1
sssg423
I0
sg358
I1
sg426
I4
sg427
I0
sssI2
(dp2250
S'elite_parameters'
p2251
(dp2252
S'ticks'
p2253
(dp2254
I0
(lp2255
ssS'damage'
p2256
(dp2257
I0
(lp2258
sssS'basic_parameters'
p2259
(dp2260
S'delay_walk'
p2261
I18
sS'life'
p2262
I150
sS'walk_dist'
p2263
I9
sS'capacity'
p2264
I3
sS'name'
p2265
VFahrzeug Transporter
p2266
sS'elite'
p2267
I0
sS'shield_factor'
p2268
F0.4
sS'attack_min'
p2269
I0
sS'delay_shoot'
p2270
I15
sg451
I2
sg444
I300
sS'max_life'
p2271
I150
sg55
I20
sS'delay_out'
p2272
I15
sS'attack_max'
p2273
I0
sg445
(dp2274
Vmehr Platz
p2275
(dp2276
g441
I0
sg442
Vupgrade
p2277
sg444
I50
sg445
(lp2278
(dp2279
g448
g449
sg450
g451
sg452
g453
sg454
I0
sg455
I0
sg456
(dp2280
Vcapacity
p2281
I2
ssasg461
I1
sssS'shoot_dist'
p2282
I5
sS'transports'
p2283
Vvehicle
p2284
sS'delay_in'
p2285
I25
sS'num_enemies'
p2286
I4
sS'shield'
p2287
I20
ssssS'card_parameters'
p2288
(dp2289
I200
(lp2290
(dp2291
S'num_cards'
p2292
I10
sS'description'
p2293
VEine Gruppe kann in einen Helikopter verladen werden und deshalb 10 pro Runde ziehen.
p2294
sg2117
(lp2295
(dp2296
S'target'
p2297
S'self'
p2298
sS'level'
p2299
S'id'
p2300
sS'type'
p2301
S'change'
p2302
sS'random'
p2303
F0.0
sS'num_units'
p2304
I0
sS'changes'
p2305
(dp2306
sasS'title'
p2307
VHelitransport
p2308
sa(dp2309
S'title'
p2310
VGiftgas
p2311
sS'num_cards'
p2312
I7
sg1259
(lp2313
(dp2314
S'target'
p2315
S'enemy'
p2316
sS'level'
p2317
S'id'
p2318
sS'type'
p2319
S'change'
p2320
sS'random'
p2321
F0.3
sS'num_units'
p2322
S'all'
p2323
sS'changes'
p2324
(dp2325
Vlife
p2326
I-8
ssa(dp2327
g2315
Vown
p2328
sg2317
Vid
p2329
sg2319
Vchange
p2330
sg2321
F0.3
sg2322
Vall
p2331
sg2324
(dp2332
Vlife
p2333
I-2
ssasS'description'
p2334
VAlle Einheiten werden verwundet. Gegnerische staerker als eigene
p2335
sa(dp2336
S'description'
p2337
VDescription
p2338
sS'num_cards'
p2339
I12
sS'actions'
p2340
(lp2341
(dp2342
g2315
Vown
p2343
sg2317
Vid
p2344
sg2319
Vchange
p2345
sg2321
F0.2
sg2322
I6
sg2324
(dp2346
Vlife
p2347
I20
ssasS'title'
p2348
VFeldapotheke
p2349
sa(dp2350
S'num_cards'
p2351
I1
sS'description'
p2352
VDescription
p2353
sS'actions'
p2354
(lp2355
(dp2356
g2301
S'new'
p2357
sg2297
S'own'
p2358
sS'parameters'
p2359
I0
sg2299
S'buildings'
p2360
sa(dp2361
g2297
S'self'
p2362
sg2299
S'id'
p2363
sg2301
S'change'
p2364
sg2303
F0.0
sg2304
I0
sg2305
(dp2365
Vlife
p2366
I0
ssasS'title'
p2367
VUnnamed Card
p2368
sa(dp2369
S'description'
p2370
Veine eigene Gruppe kann geheilt werden
p2371
sS'num_cards'
p2372
I4
sS'actions'
p2373
(lp2374
(dp2375
S'target'
p2376
S'self'
p2377
sS'level'
p2378
S'id'
p2379
sS'type'
p2380
S'change'
p2381
sS'random'
p2382
I0
sS'num_units'
p2383
S''
p2384
sS'changes'
p2385
(dp2386
Vlife
p2387
I0
ssasS'title'
p2388
Vmittleres Heilen
p2389
sass.