(dp0
S'building_parameters'
p1
(dp2
I0
(dp3
S'elite_parameters'
p4
(dp5
S'ticks'
p6
(dp7
I0
(lp8
sI150
(lp9
(dp10
S'target'
p11
S'self'
p12
sS'level'
p13
S'id'
p14
sS'type'
p15
S'change'
p16
sS'random'
p17
I0
sS'num_units'
p18
I0
sS'changes'
p19
(dp20
S'actions'
p21
(dp22
VWerkstatt bauen
p23
(dp24
S'delay'
p25
I0
sS'category'
p26
Vshop
p27
sS'price'
p28
I600
sg21
(lp29
(dp30
g15
Vnew
p31
sg11
Vown
p32
sS'parameters'
p33
I3
sg13
Vbuildings
p34
sasS'num_uses'
p35
I-1
ssssassS'damage'
p36
(dp37
I0
(lp38
sssS'basic_parameters'
p39
(dp40
S'life'
p41
I800
sS'shop_transporter'
p42
(lp43
I0
asS'capacity'
p44
I25
sS'name'
p45
VHauptquartier
p46
sS'shield_factor'
p47
F0.4
sS'attack_min'
p48
I0
sS'shield'
p49
I100
sS'delay_shoot'
p50
I15
sS'id'
p51
I0
sS'price'
p52
I1000
sS'delay_in'
p53
I20
sS'max_life'
p54
I800
sS'max_shield'
p55
I100
sS'delay_out'
p56
I10
sS'enter'
p57
Vsoldier
p58
sS'shoot_dist'
p59
I6
sS'actions'
p60
(dp61
VArzneistudium +
p62
(dp63
S'delay'
p64
I0
sS'category'
p65
Vupgrade
p66
sS'price'
p67
I400
sS'actions'
p68
(lp69
(dp70
S'target'
p71
S'self'
p72
sS'level'
p73
S'id'
p74
sS'type'
p75
S'change'
p76
sS'random'
p77
I0
sS'num_units'
p78
I0
sS'changes'
p79
(dp80
Vshop_units
p81
(lp82
I6
assa(dp83
g75
Vnew
p84
sg71
Vown
p85
sS'parameters'
p86
(lp87
I6
asg73
Vgroups
p88
sasS'num_uses'
p89
I1
ssVKommandant +
p90
(dp91
S'delay'
p92
I0
sS'category'
p93
Vupgrade
p94
sS'price'
p95
I500
sS'actions'
p96
(lp97
(dp98
S'target'
p99
S'self'
p100
sS'level'
p101
S'id'
p102
sS'type'
p103
S'change'
p104
sS'random'
p105
I0
sS'num_units'
p106
I0
sS'changes'
p107
(dp108
Vshop_units
p109
(lp110
I8
assa(dp111
S'type'
p112
Vnew
p113
sS'target'
p114
Vown
p115
sS'parameters'
p116
(lp117
I8
asS'level'
p118
Vgroups
p119
sasS'num_uses'
p120
I1
ssVHelikopter-Plattform +
p121
(dp122
S'delay'
p123
I0
sS'category'
p124
Vupgrade
p125
sS'price'
p126
I400
sS'actions'
p127
(lp128
(dp129
S'target'
p130
S'self'
p131
sS'level'
p132
S'id'
p133
sS'type'
p134
S'change'
p135
sS'random'
p136
I0
sS'num_units'
p137
I0
sS'changes'
p138
(dp139
Vshop_transporter
p140
(lp141
I1
assa(dp142
g134
Vnew
p143
sg130
Vown
p144
sS'parameters'
p145
I1
sg132
Vtransporter
p146
sasS'num_uses'
p147
I1
sssS'elite'
p148
I0
sS'shop_units'
p149
(lp150
I1
aI10
asS'num_enemies'
p151
I4
sS'attack_max'
p152
I0
sssI1
(dp153
S'elite_parameters'
p154
(dp155
S'ticks'
p156
(dp157
I500
(lp158
ssS'damage'
p159
(dp160
I0
(lp161
sssS'basic_parameters'
p162
(dp163
S'delay_out'
p164
I10
sS'life'
p165
I600
sS'shop_transporter'
p166
(lp167
sS'capacity'
p168
I15
sS'name'
p169
VKaserne
p170
sS'shield_factor'
p171
F0.4
sS'shop_units'
p172
(lp173
I0
asS'attack_min'
p174
I0
sS'delay_shoot'
p175
I15
sS'id'
p176
I1
sS'price'
p177
I600
sS'max_life'
p178
I600
sg55
I80
sS'actions'
p179
(dp180
VSniper +
p181
(dp182
S'delay'
p183
I0
sS'category'
p184
Vupgrade
p185
sS'price'
p186
I200
sS'actions'
p187
(lp188
(dp189
S'target'
p190
S'self'
p191
sS'level'
p192
S'id'
p193
sS'type'
p194
S'change'
p195
sS'random'
p196
I0
sS'num_units'
p197
I0
sS'changes'
p198
(dp199
Vshop_units
p200
(lp201
I3
assa(dp202
S'type'
p203
Vnew
p204
sS'target'
p205
Vown
p206
sS'parameters'
p207
(lp208
I3
asS'level'
p209
Vgroups
p210
sasS'num_uses'
p211
I1
ssVVerteidigung
p212
(dp213
S'delay'
p214
I20
sS'category'
p215
Vupgrade
p216
sS'price'
p217
I100
sS'actions'
p218
(lp219
(dp220
S'target'
p221
S'self'
p222
sS'level'
p223
S'id'
p224
sS'type'
p225
S'change'
p226
sS'random'
p227
I0
sS'num_units'
p228
I0
sS'changes'
p229
(dp230
Vattack_min
p231
I20
sVattack_max
p232
I40
ssasS'num_uses'
p233
I1
ssVMG-Soldat
p234
(dp235
S'delay'
p236
I0
sS'category'
p237
Vupgrade
p238
sS'price'
p239
I250
sS'actions'
p240
(lp241
(dp242
g221
g222
sg223
g224
sg225
g226
sg227
I0
sg228
I0
sg229
(dp243
Vshop_units
p244
(lp245
I2
asVelite
p246
I1
sS'actions'
p247
(dp248
VCyborg
p249
(dp250
S'delay'
p251
I0
sS'category'
p252
Vupgrade
p253
sS'price'
p254
I200
sg247
(lp255
(dp256
S'target'
p257
S'self'
p258
sS'level'
p259
S'id'
p260
sS'type'
p261
S'change'
p262
sS'random'
p263
I0
sS'num_units'
p264
I0
sS'changes'
p265
(dp266
Vshop_units
p267
(lp268
I7
asVelite
p269
I1
ssasS'num_uses'
p270
I1
ssVMG-Soldat Ausbildung
p271
(dp272
S'delay'
p273
I0
sS'category'
p274
Vequipment
p275
sS'price'
p276
I0
sS'actions'
p277
(lp278
(dp279
S'target'
p280
Vown
p281
sS'level'
p282
Vid
p283
sS'type'
p284
Vchange
p285
sS'random'
p286
F0.0
sS'num_units'
p287
I1
sS'changes'
p288
(dp289
Vshop_units
p290
(lp291
I2
assasS'num_uses'
p292
I-1
ssssasS'num_uses'
p293
I1
ssVJavelin +
p294
(dp295
S'delay'
p296
I0
sS'category'
p297
Vupgrade
p298
sS'price'
p299
I400
sS'actions'
p300
(lp301
(dp302
S'target'
p303
S'self'
p304
sS'level'
p305
S'id'
p306
sS'type'
p307
S'change'
p308
sS'random'
p309
I0
sS'num_units'
p310
I0
sS'changes'
p311
(dp312
Vshop_units
p313
(lp314
I11
asVelite
p315
I1
ssa(dp316
g307
Vnew
p317
sg303
Vown
p318
sS'parameters'
p319
(lp320
I11
asg305
Vgroups
p321
sasS'num_uses'
p322
I1
sssS'attack_max'
p323
I0
sS'enter'
p324
Vsoldier
p325
sS'shoot_dist'
p326
I6
sS'elite'
p327
I0
sS'delay_in'
p328
I20
sS'num_enemies'
p329
I4
sS'shield'
p330
I80
sssI2
(dp331
S'elite_parameters'
p332
(dp333
S'ticks'
p334
(dp335
I0
(lp336
ssS'damage'
p337
(dp338
I0
(lp339
sssS'basic_parameters'
p340
(dp341
S'shop_units'
p342
(lp343
sS'life'
p344
I500
sS'shop_transporter'
p345
(lp346
sS'capacity'
p347
I10
sS'name'
p348
VLazarett
p349
sS'shield_factor'
p350
F0.4
sS'attack_min'
p351
I0
sS'delay_shoot'
p352
I15
sS'id'
p353
I2
sS'price'
p354
I500
sS'max_life'
p355
I500
sg55
I75
sS'delay_out'
p356
I10
sS'attack_max'
p357
I0
sS'enter'
p358
Vsoldier
p359
sS'shoot_dist'
p360
I6
sS'actions'
p361
(dp362
V10x heilen
p363
(dp364
S'delay'
p365
I50
sS'category'
p366
Vstandard
p367
sg354
I400
sg361
(lp368
(dp369
S'target'
p370
Vown
p371
sS'level'
p372
Vid
p373
sS'type'
p374
Vchange
p375
sS'random'
p376
F0.0
sS'num_units'
p377
I0
sS'changes'
p378
(dp379
Vlife
p380
I50
ssasS'num_uses'
p381
I-1
ssV1x heilen
p382
(dp383
g365
I40
sg366
Vstandard
p384
sg354
I70
sg361
(lp385
(dp386
g370
Vown
p387
sg372
Vid
p388
sg374
Vchange
p389
sg376
F0.0
sg377
I1
sg378
(dp390
Vlife
p391
I50
ssasg381
I-1
ssVArztneistudium
p392
(dp393
S'delay'
p394
I0
sS'category'
p395
Vupgrade
p396
sS'price'
p397
I200
sS'actions'
p398
(lp399
(dp400
S'target'
p401
S'self'
p402
sS'level'
p403
S'id'
p404
sS'type'
p405
S'change'
p406
sS'random'
p407
I0
sS'num_units'
p408
I0
sS'changes'
p409
(dp410
Vshop_units
p411
(lp412
I6
assasS'num_uses'
p413
I1
ssV5x heilen
p414
(dp415
g365
I50
sg366
Vstandard
p416
sg354
I200
sg361
(lp417
(dp418
g370
Vown
p419
sg372
Vid
p420
sg374
Vchange
p421
sg376
F0.0
sg377
I5
sg378
(dp422
Vlife
p423
I50
ssasg381
I-1
sssS'elite'
p424
I0
sS'delay_in'
p425
I20
sS'num_enemies'
p426
I4
sS'shield'
p427
I75
sssI3
(dp428
g332
(dp429
g334
(dp430
I0
(lp431
ssg337
(dp432
I0
(lp433
sssg340
(dp434
g342
(lp435
I4
asg344
I500
sg345
(lp436
I0
asg347
I10
sg348
VWerkstatt
p437
sg350
F0.4
sg351
I0
sg352
I15
sg353
I3
sg354
I700
sg355
I500
sg55
I80
sg356
I10
sg357
I0
sg358
Vvehicle
p438
sg360
I6
sg361
(dp439
VFahrzeug Transporter
p440
(dp441
S'delay'
p442
I0
sS'category'
p443
Vupgrade
p444
sS'price'
p445
I150
sS'actions'
p446
(lp447
(dp448
S'target'
p449
S'self'
p450
sS'level'
p451
S'id'
p452
sS'type'
p453
S'change'
p454
sS'random'
p455
I0
sS'num_units'
p456
I0
sS'changes'
p457
(dp458
Vshop_transporter
p459
(lp460
I2
asVelite
p461
I1
ssasS'num_uses'
p462
I1
ssVArtillerie
p463
(dp464
S'delay'
p465
I0
sS'category'
p466
Vupgrade
p467
sS'price'
p468
I300
sS'actions'
p469
(lp470
(dp471
S'target'
p472
S'self'
p473
sS'level'
p474
S'id'
p475
sS'type'
p476
S'change'
p477
sS'random'
p478
I0
sS'num_units'
p479
I0
sS'changes'
p480
(dp481
Vshop_units
p482
(lp483
I5
asVelite
p484
I1
ssasS'num_uses'
p485
I1
ssVVerteidigung
p486
(dp487
S'delay'
p488
I0
sS'category'
p489
Vupgrade
p490
sS'price'
p491
I50
sS'actions'
p492
(lp493
(dp494
g401
g402
sg403
g404
sg405
g406
sg407
I0
sg408
I0
sg409
(dp495
Vattack_min
p496
I30
sVattack_max
p497
I50
ssasS'num_uses'
p498
I1
sssg424
I0
sg425
I20
sg426
I4
sg427
I80
sssI4
(dp499
g332
(dp500
g334
(dp501
I0
(lp502
ssg337
(dp503
I0
(lp504
sssg340
(dp505
g342
(lp506
sg344
I600
sg345
(lp507
sg347
I15
sg348
VFlughafen
p508
sg350
F0.4
sg351
I0
sg352
I15
sg353
I4
sg354
I400
sg355
I600
sg55
I50
sg356
I10
sg357
I0
sg358
Vvehicle
p509
sg360
I6
sg361
(dp510
VFlak & Verteidigung
p511
(dp512
g442
I0
sg443
Vupgrade
p513
sg445
I100
sg446
(lp514
(dp515
g449
g450
sg451
g452
sg453
g454
sg455
I0
sg456
I0
sg457
(dp516
Vshop_units
p517
(lp518
I9
asVattack_min
p519
I30
sVelite
p520
I1
sVattack_max
p521
I50
ssasg462
I1
ssVHelikopter Landeplattform
p522
(dp523
g365
I0
sg366
Vupgrade
p524
sg354
I400
sg361
(lp525
(dp526
g370
S'self'
p527
sg372
g353
sg374
S'change'
p528
sg376
I0
sg377
I0
sg378
(dp529
Vshop_transporter
p530
(lp531
I1
asVelite
p532
I1
sS'actions'
p533
(dp534
VFallschirmspringer
p535
(dp536
S'delay'
p537
I0
sS'category'
p538
S'upgrade'
p539
sS'price'
p540
I0
sS'actions'
p541
(lp542
sS'num_uses'
p543
I-1
ssssasg381
I1
sssg424
I0
sg425
I20
sg426
I4
sg427
I50
sssI5
(dp544
S'elite_parameters'
p545
(dp546
S'ticks'
p547
(dp548
I0
(lp549
ssS'damage'
p550
(dp551
I0
(lp552
sssS'basic_parameters'
p553
(dp554
S'life'
p555
I100
sS'shop_transporter'
p556
(lp557
sS'capacity'
p558
I0
sS'name'
p559
Vnix
p560
sS'shop_units'
p561
(lp562
sS'attack_min'
p563
I60
sS'shield'
p564
I0
sS'delay_shoot'
p565
I15
sS'id'
p566
I5
sS'price'
p567
I200
sS'delay_in'
p568
I0
sS'max_life'
p569
I100
sg55
I0
sS'actions'
p570
(dp571
Vnix
p572
(dp573
S'delay'
p574
I0
sS'category'
p575
S'upgrade'
p576
sg567
I0
sg570
(lp577
sS'num_uses'
p578
I-1
sssS'attack_max'
p579
I80
sS'enter'
p580
Vsoldier
p581
sS'shoot_dist'
p582
I5
sS'elite'
p583
I0
sS'shield_factor'
p584
F0.6
sS'num_enemies'
p585
I3
sS'delay_out'
p586
I0
sssI6
(dp587
g545
(dp588
g547
(dp589
I0
(lp590
ssg550
(dp591
I0
(lp592
sssg553
(dp593
g555
I80
sg556
(lp594
sg558
I5
sg559
VMG-Nest
p595
sg561
(lp596
sg563
I20
sg564
I20
sg565
I15
sg566
I6
sg567
I100
sg568
I15
sg569
I80
sg55
I20
sg570
(dp597
Vzweites Geschuetz
p598
(dp599
S'delay'
p600
I0
sS'category'
p601
Vupgrade
p602
sS'price'
p603
I50
sS'actions'
p604
(lp605
sS'num_uses'
p606
I1
ssVPanzerabwehr
p607
(dp608
S'delay'
p609
I10
sS'category'
p610
Vupgrade
p611
sS'price'
p612
I150
sS'actions'
p613
(lp614
(dp615
g205
S'self'
p616
sg209
S'id'
p617
sg203
S'change'
p618
sS'random'
p619
I0
sS'num_units'
p620
I0
sS'changes'
p621
(dp622
Vshield_factor
p623
F2.0
sVattack_min
p624
I-10
sS'actions'
p625
(dp626
VMoerser
p627
(dp628
S'delay'
p629
I0
sS'category'
p630
Vupgrade
p631
sS'price'
p632
I0
sg625
(lp633
sS'num_uses'
p634
I0
sssVattack_max
p635
I-20
sVshoot_dist
p636
I1
sVelite
p637
I2
ssasS'num_uses'
p638
I1
ssVBetonguss
p639
(dp640
g609
I0
sg610
Vupgrade
p641
sg612
I50
sg613
(lp642
(dp643
g205
g616
sg209
g617
sg203
g618
sg619
I0
sg620
I0
sg621
(dp644
Vmax_shield
p645
I15
sVelite
p646
I1
sVshield
p647
I30
ssasg638
I1
ssVMoerser
p648
(dp649
S'delay'
p650
I10
sS'category'
p651
Vupgrade
p652
sS'price'
p653
I150
sS'actions'
p654
(lp655
(dp656
S'target'
p657
S'self'
p658
sS'level'
p659
S'id'
p660
sS'type'
p661
S'change'
p662
sS'random'
p663
I0
sS'num_units'
p664
I0
sS'changes'
p665
(dp666
Vnum_enemies
p667
I4
sVattack_min
p668
I10
sg625
(dp669
VPanzerabwehr
p670
(dp671
g629
I0
sg630
Vupgrade
p672
sg632
I0
sg625
(lp673
sg634
I0
sssVdelay_shoot
p674
I10
sVshoot_dist
p675
I3
sVattack_max
p676
I55
ssasS'num_uses'
p677
I1
sssg579
I35
sg580
Vsoldier
p678
sg582
I6
sg583
I0
sg584
F0.5
sg585
I4
sg586
I10
ssssS'card_parameters'
p679
(dp680
I200
(lp681
(dp682
S'title'
p683
VHelitransport
p684
sS'num_cards'
p685
I10
sS'actions'
p686
(lp687
(dp688
S'target'
p689
S'self'
p690
sS'level'
p691
S'id'
p692
sS'type'
p693
S'change'
p694
sS'random'
p695
F0.0
sS'num_units'
p696
I0
sS'changes'
p697
(dp698
sasS'description'
p699
VEine Gruppe kann in einen Helikopter verladen werden und deshalb 10 pro Runde ziehen.
p700
sa(dp701
S'description'
p702
VAlle Einheiten werden verwundet. Gegnerische staerker als eigene
p703
sS'num_cards'
p704
I7
sS'actions'
p705
(lp706
(dp707
S'target'
p708
S'enemy'
p709
sS'level'
p710
S'id'
p711
sS'type'
p712
S'change'
p713
sS'random'
p714
F0.3
sS'num_units'
p715
S'all'
p716
sS'changes'
p717
(dp718
Vlife
p719
I-8
ssa(dp720
g708
Vown
p721
sg710
Vid
p722
sg712
Vchange
p723
sg714
F0.3
sg715
Vall
p724
sg717
(dp725
Vlife
p726
I-2
ssasS'title'
p727
VGiftgas
p728
sa(dp729
S'title'
p730
VFeldapotheke
p731
sS'description'
p732
VDescription
p733
sS'actions'
p734
(lp735
(dp736
g708
Vown
p737
sg710
Vid
p738
sg712
Vchange
p739
sg714
F0.2
sg715
I6
sg717
(dp740
Vlife
p741
I20
ssasS'num_cards'
p742
I12
sa(dp743
S'title'
p744
VUnnamed Card
p745
sS'num_cards'
p746
I1
sS'actions'
p747
(lp748
(dp749
g693
S'new'
p750
sg689
S'own'
p751
sS'parameters'
p752
I0
sg691
S'buildings'
p753
sa(dp754
g689
S'self'
p755
sg691
S'id'
p756
sg693
S'change'
p757
sg695
F0.0
sg696
I0
sg697
(dp758
Vlife
p759
I0
ssasS'description'
p760
VDescription
p761
sa(dp762
S'title'
p763
Vmittleres Heilen
p764
sS'description'
p765
Veine eigene Gruppe kann geheilt werden
p766
sS'actions'
p767
(lp768
(dp769
S'target'
p770
S'self'
p771
sS'level'
p772
S'id'
p773
sS'type'
p774
S'change'
p775
sS'random'
p776
I0
sS'num_units'
p777
S''
p778
sS'changes'
p779
(dp780
Vlife
p781
I0
ssasS'num_cards'
p782
I4
sassS'engine_parameters'
p783
(dp784
S'constant_per_tick'
p785
F4.0
sS'all_sectors'
p786
(dp787
I1
(dp788
S'victory'
p789
I0
sS'weight'
p790
F1.0
ssI2
(dp791
g789
I0
sg790
F1.0
ssI3
(dp792
g789
I0
sg790
F1.0
ssI4
(dp793
g789
I0
sg790
F1.0
ssI5
(dp794
g789
I2
sg790
F1.0
ssI6
(dp795
g789
I0
sg790
F1.0
ssI7
(dp796
g789
I0
sg790
F1.0
ssI8
(dp797
g789
I0
sg790
F1.0
ssI9
(dp798
g789
I1
sg790
F1.0
ssI10
(dp799
g789
I1
sg790
F1.0
ssI11
(dp800
g789
I0
sg790
F1.0
ssI12
(dp801
g789
I0
sg790
F1.0
ssI13
(dp802
g789
I0
sg790
F1.0
ssI14
(dp803
g789
I0
sg790
F1.0
ssI15
(dp804
g789
I0
sg790
F1.0
ssI16
(dp805
g789
I2
sg790
F1.0
ssI17
(dp806
g789
I0
sg790
F1.0
ssI18
(dp807
g789
I0
sg790
F1.0
sssS'delay_damage'
p808
F0.5
sS'start_account'
p809
F200.0
sS'extra_shoot_dist'
p810
F2.0
sS'per_sector_per_tick'
p811
F1.0
sS'protection_in'
p812
F18.0
sS'tick_duration'
p813
F11.0
sS'protection_effect'
p814
F0.4
sS'take_over_factor'
p815
F1.3
sS'sector_takeover'
p816
F100.0
sS'protection_out'
p817
F10.0
sS'max_victory_diff'
p818
F350.0
ssS'transport_parameters'
p819
(dp820
I0
(dp821
g154
(dp822
g156
(dp823
I0
(lp824
ssg159
(dp825
I0
(lp826
sssg162
(dp827
S'delay_walk'
p828
I15
sg165
I100
sS'walk_dist'
p829
I10
sg168
I10
sg169
VTransporter
p830
sg327
I0
sg171
F0.4
sg174
I0
sg175
I20
sg176
I0
sg177
I200
sg178
I100
sg55
I25
sg164
I8
sg323
I0
sg179
(dp831
VPanzerung
p832
(dp833
S'delay'
p834
I0
sS'category'
p835
Vupgrade
p836
sS'price'
p837
I50
sg686
(lp838
(dp839
S'target'
p840
S'self'
p841
sS'level'
p842
S'id'
p843
sS'type'
p844
S'change'
p845
sS'random'
p846
I0
sS'num_units'
p847
I0
sS'changes'
p848
(dp849
Vdelay_walk
p850
I3
sVelite
p851
I1
sVshield
p852
I40
sg686
(dp853
VCasspir
p854
(dp855
g834
I0
sg835
Vupgrade
p856
sg837
I70
sg686
(lp857
(dp858
g840
g841
sg842
g843
sg844
g845
sg846
I0
sg847
I0
sg848
(dp859
Vdelay_walk
p860
I-5
sVelite
p861
I1
sVshield
p862
I50
sVmax_shield
p863
I40
ssasS'num_uses'
p864
I1
sssVmax_shield
p865
I30
ssasg864
I1
ssVMG
p866
(dp867
g834
I0
sg835
Vupgrade
p868
sg837
I40
sg686
(lp869
(dp870
g840
Vself
p871
sg842
Vid
p872
sg844
Vchange
p873
sg846
F0.0
sg847
I0
sg848
(dp874
Vattack_min
p875
I20
sVelite
p876
I1
sVattack_max
p877
I40
sg686
(dp878
VKampfmaschine
p879
(dp880
g834
I0
sg835
Vupgrade
p881
sg837
I80
sg686
(lp882
(dp883
g840
g841
sg842
g843
sg844
g845
sg846
I0
sg847
I0
sg848
(dp884
Vshield_factor
p885
F0.2
sVattack_min
p886
I30
sVelite
p887
I1
sVattack_max
p888
I30
ssasg864
I1
ssssasg864
I1
ssVSpeed up (laden & ziehen)
p889
(dp890
g609
I0
sg610
Vupgrade
p891
sg612
I30
sg613
(lp892
(dp893
g205
g616
sg209
g617
sg203
g618
sg619
I0
sg620
I0
sg621
(dp894
Vdelay_walk
p895
I-2
sVelite
p896
I1
sg613
(dp897
VSpeed up (nur ziehen)
p898
(dp899
g609
I0
sg610
Vupgrade
p900
sg612
I40
sg613
(lp901
(dp902
g205
g616
sg209
g617
sg203
g618
sg619
I0
sg620
I0
sg621
(dp903
Vdelay_walk
p904
I-2
sVwalk_dist
p905
I1
sVelite
p906
I1
ssasg638
I1
sssVdelay_shoot
p907
I-2
ssasg638
I1
ssVmehr Platz I
p908
(dp909
g834
I0
sg835
Vupgrade
p910
sg837
I30
sg686
(lp911
(dp912
g840
g841
sg842
g843
sg844
g845
sg846
I0
sg847
I0
sg848
(dp913
Vcapacity
p914
I5
sVelite
p915
I1
sg686
(dp916
Vmehr Platz II
p917
(dp918
g834
I0
sg835
Vupgrade
p919
sg837
I40
sg686
(lp920
(dp921
g840
g841
sg842
g843
sg844
g845
sg846
I0
sg847
I0
sg848
(dp922
Vcapacity
p923
I8
sVelite
p924
I1
ssasg864
I1
ssssasg864
I1
sssg326
I5
sS'transports'
p925
Vsoldier
p926
sg328
I10
sg329
I4
sg330
I25
sssI1
(dp927
g332
(dp928
g334
(dp929
I0
(lp930
ssg337
(dp931
I0
(lp932
sssg340
(dp933
S'delay_walk'
p934
I15
sg344
I100
sS'walk_dist'
p935
I10
sg347
I10
sg348
VHelikopter
p936
sg424
I0
sg350
F0.4
sg351
I0
sg352
I20
sg353
I1
sg354
I200
sg355
I100
sg55
I50
sg356
I8
sg357
I0
sg361
(dp937
VBombe abwerfen
p938
(dp939
g365
I15
sg366
Vstandard
p940
sg354
I80
sg361
(lp941
(dp942
g370
Venemy
p943
sg372
Vid
p944
sg374
Vchange
p945
sg376
F0.3
sg377
I7
sg378
(dp946
Vlife
p947
I-6
sg361
(dp948
ssasg381
I-1
ssVschneller fliegen
p949
(dp950
S'delay'
p951
I0
sS'category'
p952
Vupgrade
p953
sS'price'
p954
I30
sS'actions'
p955
(lp956
(dp957
S'target'
p958
S'self'
p959
sS'level'
p960
S'id'
p961
sS'type'
p962
S'change'
p963
sS'random'
p964
I0
sS'num_units'
p965
I0
sS'changes'
p966
(dp967
Vdelay_walk
p968
I-3
sg955
(dp969
Vsuper Speed
p970
(dp971
g951
I0
sg952
Vupgrade
p972
sg954
I50
sg955
(lp973
(dp974
g958
g959
sg960
g961
sg962
g963
sg964
I0
sg965
I0
sg966
(dp975
Vdelay_walk
p976
I-2
sVwalk_dist
p977
I1
ssasS'num_uses'
p978
I1
ssssasg978
I1
sssg360
I6
sS'transports'
p979
Vsoldier
p980
sg425
I10
sg426
I4
sg427
I50
sssI2
(dp981
S'elite_parameters'
p982
(dp983
S'ticks'
p984
(dp985
I0
(lp986
ssS'damage'
p987
(dp988
I0
(lp989
sssS'basic_parameters'
p990
(dp991
S'delay_walk'
p992
I18
sS'life'
p993
I150
sS'walk_dist'
p994
I9
sS'capacity'
p995
I3
sS'name'
p996
VFahrzeug Transporter
p997
sS'transports'
p998
Vvehicle
p999
sS'shield_factor'
p1000
F0.4
sS'attack_min'
p1001
I0
sS'shield'
p1002
I20
sS'delay_shoot'
p1003
I15
sS'delay_in'
p1004
I25
sg445
I300
sS'max_life'
p1005
I150
sg55
I20
sS'delay_out'
p1006
I15
sS'shoot_dist'
p1007
I5
sS'num_enemies'
p1008
I4
sS'elite'
p1009
I0
sg452
I2
sg446
(dp1010
Vmehr Platz
p1011
(dp1012
g442
I0
sg443
Vupgrade
p1013
sg445
I50
sg446
(lp1014
(dp1015
g449
g450
sg451
g452
sg453
g454
sg455
I0
sg456
I0
sg457
(dp1016
Vcapacity
p1017
I2
ssasg462
I1
sssS'attack_max'
p1018
I0
ssssS'unit_parameters'
p1019
(dp1020
I0
(dp1021
S'elite_parameters'
p1022
(dp1023
S'ticks'
p1024
(dp1025
I1000
(lp1026
(dp1027
g840
g841
sg842
g843
sg844
g845
sg846
I0
sg847
I0
sg848
(dp1028
Vlife
p1029
I10
sVelite
p1030
I1
sVshield
p1031
I15
ssasI500
(lp1032
(dp1033
g840
g841
sg842
g843
sg844
g845
sg846
I0
sg847
I0
sg848
(dp1034
Vlife
p1035
I10
sVelite
p1036
I1
sVshield
p1037
I15
ssassS'damage'
p1038
(dp1039
I1000
(lp1040
(dp1041
S'target'
p1042
S'self'
p1043
sS'level'
p1044
S'id'
p1045
sS'type'
p1046
S'change'
p1047
sS'random'
p1048
I0
sS'num_units'
p1049
I0
sS'changes'
p1050
(dp1051
Vshoot_dist
p1052
I2
sVmax_life
p1053
I8
sVelite
p1054
I1
sVattack_max
p1055
I11
ssasI500
(lp1056
(dp1057
g840
g841
sg842
g843
sg844
g845
sg846
I0
sg847
I0
sg848
(dp1058
Velite
p1059
I1
sVattack_max
p1060
I8
ssasI750
(lp1061
(dp1062
g1042
g1043
sg1044
g1045
sg1046
g1047
sg1048
I0
sg1049
I0
sg1050
(dp1063
Vattack_min
p1064
I8
sVelite
p1065
I1
sVattack_max
p1066
I10
ssasssS'basic_parameters'
p1067
(dp1068
S'delay_walk'
p1069
I15
sS'life'
p1070
I50
sS'walk_dist'
p1071
I5
sS'name'
p1072
VSoldat
p1073
sS'shield_factor'
p1074
F0.5
sS'num_enemies'
p1075
I4
sS'attack_min'
p1076
I10
sS'delay_shoot'
p1077
I15
sS'unit_type'
p1078
Vsoldier
p1079
sS'max_life'
p1080
I50
sg55
I0
sS'attack_max'
p1081
I20
sS'shoot_dist'
p1082
I6
sS'price'
p1083
I70
sS'elite'
p1084
I0
sS'id'
p1085
I0
sS'actions'
p1086
(dp1087
Vneue Munition
p1088
(dp1089
S'delay'
p1090
I0
sS'category'
p1091
Vupgrade
p1092
sg177
I20
sg179
(lp1093
(dp1094
S'target'
p1095
S'self'
p1096
sS'level'
p1097
g176
sS'type'
p1098
S'change'
p1099
sS'random'
p1100
I0
sS'num_units'
p1101
I0
sS'changes'
p1102
(dp1103
Vattack_min
p1104
I5
sVattack_max
p1105
I5
sg179
(dp1106
VSchnellfeuer
p1107
(dp1108
g1090
I0
sg1091
Vupgrade
p1109
sg177
I30
sg179
(lp1110
(dp1111
g1095
g1096
sg1097
g176
sg1098
g1099
sg1100
I0
sg1101
I0
sg1102
(dp1112
Vnum_enemies
p1113
I2
sVattack_min
p1114
I4
sVelite
p1115
I1
sVattack_max
p1116
I8
sS'actions'
p1117
(dp1118
VFlammenwerfer
p1119
(dp1120
g609
I0
sg610
Vupgrade
p1121
sg612
I40
sg613
(lp1122
(dp1123
g205
g616
sg209
g617
sg203
g618
sg619
I0
sg620
I0
sg621
(dp1124
Vnum_enemies
p1125
I4
sVattack_min
p1126
I10
sVelite
p1127
I1
sVattack_max
p1128
I10
ssasg638
I1
ssVSchildexperte
p1129
(dp1130
S'delay'
p1131
I0
sS'category'
p1132
Vupgrade
p1133
sS'price'
p1134
I0
sg1117
(lp1135
sS'num_uses'
p1136
I0
ssssasS'num_uses'
p1137
I1
ssVSchildexperte
p1138
(dp1139
g1090
I0
sg1091
Vupgrade
p1140
sg177
I30
sg179
(lp1141
(dp1142
g1095
g1096
sg1097
g176
sg1098
g1099
sg1100
I0
sg1101
I0
sg1102
(dp1143
Vshield_factor
p1144
F0.1
sVattack_min
p1145
I6
sVelite
p1146
I1
sVattack_max
p1147
I4
sg179
(dp1148
VSchnellfeuer
p1149
(dp1150
S'delay'
p1151
I0
sS'category'
p1152
Vupgrade
p1153
sS'price'
p1154
I0
sS'actions'
p1155
(lp1156
sS'num_uses'
p1157
I0
ssVPanzerbrecher
p1158
(dp1159
g609
I0
sg610
Vupgrade
p1160
sg612
I40
sg613
(lp1161
(dp1162
g205
g616
sg209
g617
sg203
g618
sg619
I0
sg620
I0
sg621
(dp1163
Vshield_factor
p1164
F0.2
sVattack_min
p1165
I4
sVelite
p1166
I1
sVattack_max
p1167
I10
ssasg638
I1
ssssasg1137
I1
ssssasg1137
I1
ssVSchutzweste
p1168
(dp1169
g365
I0
sg366
Vupgrade
p1170
sg354
I30
sg361
(lp1171
(dp1172
g370
g527
sg372
g353
sg374
g528
sg376
I0
sg377
I0
sg378
(dp1173
Vmax_shield
p1174
I10
sVshield
p1175
I10
sg361
(dp1176
VSchild & wenig heilen
p1177
(dp1178
g365
I0
sg366
Vupgrade
p1179
sg354
I50
sg361
(lp1180
(dp1181
g370
g527
sg372
g353
sg374
g528
sg376
I0
sg377
I0
sg378
(dp1182
Velite
p1183
I1
sVlife
p1184
I15
sVmax_life
p1185
I6
sVmax_shield
p1186
I15
sVshield
p1187
I15
ssasg381
I1
ssssasg381
I1
ssV2 HG
p1188
(dp1189
g1090
I0
sg1091
Vequipment
p1190
sg177
I70
sg179
(lp1191
(dp1192
S'target'
p1193
S'self'
p1194
sS'level'
p1195
S'id'
p1196
sS'type'
p1197
S'change'
p1198
sS'random'
p1199
I0
sS'num_units'
p1200
I0
sS'changes'
p1201
(dp1202
S'actions'
p1203
(dp1204
VHG
p1205
(dp1206
S'delay'
p1207
I7
sS'category'
p1208
Vstandard
p1209
sS'price'
p1210
I0
sg1203
(lp1211
(dp1212
g1193
Venemy
p1213
sg1195
Vid
p1214
sg1197
Vchange
p1215
sg1199
F0.25
sg1200
I3
sg1201
(dp1216
Vlife
p1217
I-10
ssasS'num_uses'
p1218
I2
ssssasg1137
I-1
ssVneue Schuhe
p1219
(dp1220
g1090
I0
sg1091
Vupgrade
p1221
sg177
I20
sg179
(lp1222
(dp1223
g1095
Vself
p1224
sg1097
Vid
p1225
sg1098
Vchange
p1226
sg1100
F0.0
sg1101
F1.0
sg1102
(dp1227
Vdelay_walk
p1228
I-2
sVwalk_dist
p1229
I1
sVelite
p1230
I1
sg179
(dp1231
ssasg1137
I1
sssS'shield'
p1232
I0
sssI1
(dp1233
g1022
(dp1234
g1024
(dp1235
I1000
(lp1236
(dp1237
g1095
g1096
sg1097
g176
sg1098
g1099
sg1100
I0
sg1101
I0
sg1102
(dp1238
Vmax_shield
p1239
I10
sVwalk_dist
p1240
I1
sVelite
p1241
I1
sVshield
p1242
I10
ssasI400
(lp1243
(dp1244
S'target'
p1245
S'self'
p1246
sS'level'
p1247
S'id'
p1248
sS'type'
p1249
S'change'
p1250
sS'random'
p1251
I0
sS'num_units'
p1252
I0
sS'changes'
p1253
(dp1254
Vdelay_walk
p1255
I-2
sVlife
p1256
I20
sVwalk_dist
p1257
I1
sVelite
p1258
I1
ssasI700
(lp1259
(dp1260
g1245
g1246
sg1247
g1248
sg1249
g1250
sg1251
I0
sg1252
I0
sg1253
(dp1261
Velite
p1262
I1
sVlife
p1263
I15
sVmax_life
p1264
I10
sVmax_shield
p1265
I8
sVshield
p1266
I13
ssassg1038
(dp1267
I0
(lp1268
sssg1067
(dp1269
g1069
I15
sg1070
I40
sg1071
I5
sg1072
VIngenieur
p1270
sg1074
F0.4
sg1075
I1
sg1076
I3
sg1077
I15
sg1078
Vsoldier
p1271
sg1080
I40
sg55
I0
sg1081
I5
sg1082
I2
sg1083
I100
sg1084
I0
sg1085
I1
sg1086
(dp1272
VSchild-Mech
p1273
(dp1274
g650
I8
sg651
Vupgrade
p1275
sg653
I80
sg654
(lp1276
(dp1277
g657
Vown
p1278
sg659
Vid
p1279
sg661
Vchange
p1280
sg663
F0.0
sg664
I0
sg665
(dp1281
Vshield
p1282
I10
ssa(dp1283
g657
g658
sg659
g660
sg661
g662
sg663
I0
sg664
I0
sg665
(dp1284
g654
(dp1285
Vreparieren 3x10
p1286
(dp1287
g650
I7
sg651
Vstandard
p1288
sg653
I50
sg654
(lp1289
(dp1290
g657
Vown
p1291
sg659
Vid
p1292
sg661
Vchange
p1293
sg663
F0.2
sg664
I3
sg665
(dp1294
Vshield
p1295
I10
ssasg677
I-1
ssVTeile ersetzen 6x10
p1296
(dp1297
g650
I7
sg651
Vstandard
p1298
sg653
I90
sg654
(lp1299
(dp1300
g657
Vown
p1301
sg659
Vid
p1302
sg661
Vchange
p1303
sg663
F0.1
sg664
I6
sg665
(dp1304
Vshield
p1305
I10
ssasg677
I-1
ssssasg677
I1
ssVBruecke bauen
p1306
(dp1307
S'delay'
p1308
I40
sS'category'
p1309
Vshop
p1310
sS'price'
p1311
I100
sS'actions'
p1312
(lp1313
(dp1314
S'target'
p1315
S'self'
p1316
sS'level'
p1317
S'id'
p1318
sS'type'
p1319
S'change'
p1320
sS'random'
p1321
I0
sS'num_units'
p1322
I0
sS'changes'
p1323
(dp1324
Vlife
p1325
I0
ssasS'num_uses'
p1326
I-1
ssVMG-Nest
p1327
(dp1328
S'delay'
p1329
I30
sS'category'
p1330
Vshop
p1331
sS'price'
p1332
I70
sS'actions'
p1333
(lp1334
(dp1335
g103
Vnew
p1336
sg99
Vown
p1337
sS'parameters'
p1338
I6
sg101
Vbuildings
p1339
sasS'num_uses'
p1340
I-1
ssVleichtere Ausruestung
p1341
(dp1342
g650
I0
sg651
Vupgrade
p1343
sg653
I30
sg654
(lp1344
(dp1345
g657
g658
sg659
g660
sg661
g662
sg663
I0
sg664
I0
sg665
(dp1346
Vdelay_walk
p1347
I-2
sVwalk_dist
p1348
I1
sVelite
p1349
I1
ssasg677
I1
ssVWerkstatt
p1350
(dp1351
g394
I60
sg395
Vshop
p1352
sg397
I700
sg398
(lp1353
(dp1354
g405
Vnew
p1355
sg401
Vown
p1356
sS'parameters'
p1357
I3
sg403
Vbuildings
p1358
sasg413
I-1
ssVFlugplatz
p1359
(dp1360
g488
I50
sg489
Vshop
p1361
sg491
I400
sg492
(lp1362
(dp1363
S'type'
p1364
Vnew
p1365
sS'target'
p1366
Vown
p1367
sS'parameters'
p1368
I4
sS'level'
p1369
Vbuildings
p1370
sasg498
I-1
ssVLazarett
p1371
(dp1372
g488
I50
sg489
Vshop
p1373
sg491
I500
sg492
(lp1374
(dp1375
g1364
Vnew
p1376
sg1366
Vown
p1377
sg1368
I2
sg1369
Vbuildings
p1378
sasg498
I-1
ssVKaserne
p1379
(dp1380
g1090
I60
sg1091
Vshop
p1381
sg177
I600
sg179
(lp1382
(dp1383
g1098
Vnew
p1384
sg1095
Vown
p1385
sS'parameters'
p1386
I1
sg1097
Vbuildings
p1387
sasg1137
I-1
ssVKampfingenieur
p1388
(dp1389
g236
I0
sg237
Vupgrade
p1390
sg239
I70
sg240
(lp1391
(dp1392
g221
g222
sg223
g224
sg225
g226
sg227
I0
sg228
I0
sg229
(dp1393
Vshield
p1394
I8
sVattack_min
p1395
I10
sg240
(dp1396
V3 Granaten
p1397
(dp1398
g236
I0
sg237
Vequipment
p1399
sg239
I70
sg240
(lp1400
(dp1401
g221
Vself
p1402
sg223
Vid
p1403
sg225
Vchange
p1404
sg227
F0.4
sg228
I3
sg229
(dp1405
g240
(dp1406
VGranate
p1407
(dp1408
g236
I10
sg237
Vstandard
p1409
sg239
I0
sg240
(lp1410
(dp1411
g221
Venemy
p1412
sg223
Vid
p1413
sg225
Vchange
p1414
sg227
F0.4
sg228
I3
sg229
(dp1415
Vlife
p1416
I-15
ssasg293
I3
ssssasg293
I-1
sssVmax_shield
p1417
I8
sVattack_max
p1418
I15
sVelite
p1419
I1
ssasg293
I1
sssg1232
I0
sssI2
(dp1420
g1022
(dp1421
g1024
(dp1422
I400
(lp1423
(dp1424
g1245
g1246
sg1247
g1248
sg1249
g1250
sg1251
I0
sg1252
I0
sg1253
(dp1425
Vdelay_walk
p1426
I-2
sVlife
p1427
I15
sVelite
p1428
I1
sVshield
p1429
I8
ssasI800
(lp1430
(dp1431
g1245
g1246
sg1247
g1248
sg1249
g1250
sg1251
I0
sg1252
I0
sg1253
(dp1432
Vlife
p1433
I15
sVmax_life
p1434
I10
sVelite
p1435
I1
sVshield
p1436
I10
sVdelay_shoot
p1437
I-2
ssassg1038
(dp1438
I500
(lp1439
(dp1440
S'target'
p1441
S'self'
p1442
sS'level'
p1443
S'id'
p1444
sS'type'
p1445
S'change'
p1446
sS'random'
p1447
I0
sS'num_units'
p1448
I0
sS'changes'
p1449
(dp1450
Vshield_factor
p1451
F0.1
sVattack_min
p1452
I10
sVelite
p1453
I1
sS'actions'
p1454
(dp1455
VSchusstraining
p1456
(dp1457
S'delay'
p1458
I0
sS'category'
p1459
Vupgrade
p1460
sS'price'
p1461
I40
sg1454
(lp1462
(dp1463
g303
g304
sg305
g306
sg307
g308
sg309
I0
sg310
I0
sg311
(dp1464
Vshoot_dist
p1465
I1
sVelite
p1466
I1
sVdelay_shoot
p1467
I-4
ssasS'num_uses'
p1468
I1
ssssasssg1067
(dp1469
g1069
I18
sg1070
I80
sg1071
I5
sg1072
VMG-Soldat
p1470
sg1074
F0.55
sg1075
I10
sg1076
I20
sg1077
I20
sg1078
Vsoldier
p1471
sg1080
I80
sg55
I20
sg1081
I60
sg1082
I7
sg1083
I175
sg1084
I0
sg1085
I2
sg1086
(dp1472
Vbessere Munition
p1473
(dp1474
g236
I0
sg237
Vupgrade
p1475
sg239
I40
sg240
(lp1476
(dp1477
g221
g222
sg223
g224
sg225
g226
sg227
I0
sg228
I0
sg229
(dp1478
Vattack_min
p1479
I10
sVattack_max
p1480
I5
sg240
(dp1481
VPanzerbrecher
p1482
(dp1483
g236
I0
sg237
Vupgrade
p1484
sg239
I60
sg240
(lp1485
(dp1486
g221
g222
sg223
g224
sg225
g226
sg227
I0
sg228
I0
sg229
(dp1487
Vshield_factor
p1488
F0.1
sVelite
p1489
I1
sVattack_max
p1490
I15
sg240
(dp1491
VBazooka
p1492
(dp1493
g236
I0
sg237
Vupgrade
p1494
sg239
I80
sg240
(lp1495
(dp1496
g221
g222
sg223
g224
sg225
g226
sg227
I0
sg228
I0
sg229
(dp1497
Vshield_factor
p1498
F0.15
sVattack_min
p1499
I15
sVelite
p1500
I1
sVnum_enemies
p1501
I2
sVattack_max
p1502
I10
ssasg293
I1
ssssasg293
I1
ssssasg293
I1
ssVKampfausbildung
p1503
(dp1504
S'delay'
p1505
I0
sS'category'
p1506
Vupgrade
p1507
sS'price'
p1508
I40
sS'actions'
p1509
(lp1510
(dp1511
S'target'
p1512
S'self'
p1513
sS'level'
p1514
S'id'
p1515
sS'type'
p1516
S'change'
p1517
sS'random'
p1518
I0
sS'num_units'
p1519
I0
sS'changes'
p1520
(dp1521
Vshoot_dist
p1522
I1
sVelite
p1523
I1
sVdelay_shoot
p1524
I-5
ssasS'num_uses'
p1525
I1
ssVSpeed I
p1526
(dp1527
g488
I0
sg489
Vupgrade
p1528
sg491
I40
sg492
(lp1529
(dp1530
g221
g222
sg223
g224
sg225
g226
sg227
I0
sg228
I0
sg229
(dp1531
Vdelay_walk
p1532
I-5
sVelite
p1533
I1
sg240
(dp1534
VSpeed II
p1535
(dp1536
g236
I0
sg237
Vupgrade
p1537
sg239
I50
sg240
(lp1538
(dp1539
g221
g222
sg223
g224
sg225
g226
sg227
I0
sg228
I0
sg229
(dp1540
Vdelay_walk
p1541
I-5
sVwalk_dist
p1542
I1
sVelite
p1543
I1
sVdelay_shoot
p1544
I-3
ssasg293
I1
ssssasg498
I1
sssg1232
I20
sssI3
(dp1545
g1022
(dp1546
g1024
(dp1547
I400
(lp1548
(dp1549
g1245
g1246
sg1247
g1248
sg1249
g1250
sg1251
I0
sg1252
I0
sg1253
(dp1550
Velite
p1551
I1
sVattack_min
p1552
I5
sVmax_shield
p1553
I8
sVshield
p1554
I8
ssasI800
(lp1555
(dp1556
g1245
g1246
sg1247
g1248
sg1249
g1250
sg1251
I0
sg1252
I0
sg1253
(dp1557
Vshield_factor
p1558
F0.1
sVattack_min
p1559
I8
sVelite
p1560
I1
sVattack_max
p1561
I14
ssassg1038
(dp1562
I0
(lp1563
sI250
(lp1564
(dp1565
g401
g402
sg403
g404
sg405
g406
sg407
I0
sg408
I0
sg409
(dp1566
Vattack_min
p1567
I8
sVelite
p1568
I1
sVattack_max
p1569
I8
sg398
(dp1570
Vschneller laden
p1571
(dp1572
g394
I0
sg395
Vupgrade
p1573
sg397
I40
sg398
(lp1574
(dp1575
g401
g402
sg403
g404
sg405
g406
sg407
I0
sg408
I0
sg409
(dp1576
Vdelay_shoot
p1577
I-4
ssasg413
I1
ssssasssg1067
(dp1578
g1069
I15
sg1070
I50
sg1071
I5
sg1072
VSniper
p1579
sg1074
F0.6
sg1075
I1
sg1076
I40
sg1077
I20
sg1078
Vsoldier
p1580
sg1080
I50
sg55
I0
sg1081
I60
sg1082
I10
sg1083
I200
sg1084
I0
sg1085
I3
sg1086
(dp1581
VSchutzweste
p1582
(dp1583
g183
I0
sg184
Vupgrade
p1584
sg186
I30
sg187
(lp1585
(dp1586
g190
g191
sg192
g193
sg194
g195
sg196
I0
sg197
I0
sg198
(dp1587
Vmax_shield
p1588
I10
sVshield
p1589
I10
ssasg211
I1
ssVSpeed I (ziehen und laden)
p1590
(dp1591
g183
I0
sg184
Vupgrade
p1592
sg186
I30
sg187
(lp1593
(dp1594
g190
g191
sg192
g193
sg194
g195
sg196
I0
sg197
I0
sg198
(dp1595
Vwalk_dist
p1596
I1
sVelite
p1597
I1
sVdelay_shoot
p1598
I-2
ssasg211
I1
ssVhoehere Schussweite
p1599
(dp1600
S'delay'
p1601
I0
sS'category'
p1602
Vupgrade
p1603
sS'price'
p1604
I40
sg705
(lp1605
(dp1606
S'target'
p1607
S'self'
p1608
sS'level'
p1609
S'id'
p1610
sS'type'
p1611
S'change'
p1612
sS'random'
p1613
I0
sS'num_units'
p1614
I0
sS'changes'
p1615
(dp1616
Vshoot_dist
p1617
I1
sVelite
p1618
I1
sg705
(dp1619
VDistanzexperte
p1620
(dp1621
g1601
I0
sg1602
Vupgrade
p1622
sg1604
I50
sg705
(lp1623
(dp1624
g1607
g1608
sg1609
g1610
sg1611
g1612
sg1613
I0
sg1614
I0
sg1615
(dp1625
Vshoot_dist
p1626
I1
sVattack_min
p1627
I8
sVelite
p1628
I1
sg705
(dp1629
ssasS'num_uses'
p1630
I1
ssssasg1630
I1
ssVPraezision
p1631
(dp1632
S'delay'
p1633
I0
sS'category'
p1634
Vupgrade
p1635
sS'price'
p1636
I30
sg533
(lp1637
(dp1638
S'target'
p1639
S'self'
p1640
sS'level'
p1641
S'id'
p1642
sS'type'
p1643
S'change'
p1644
sS'random'
p1645
I0
sS'num_units'
p1646
I0
sS'changes'
p1647
(dp1648
Vattack_min
p1649
I15
sVelite
p1650
I1
sVattack_max
p1651
I8
sg398
(dp1652
Vbessere Munition
p1653
(dp1654
g394
I0
sg395
Vupgrade
p1655
sg397
I40
sg398
(lp1656
(dp1657
g401
g402
sg403
g404
sg405
g406
sg407
I0
sg408
I0
sg409
(dp1658
Vshield_factor
p1659
F0.05
sVattack_min
p1660
I15
sVelite
p1661
I1
sVattack_max
p1662
I10
sg398
(dp1663
VSchildzerstoerer
p1664
(dp1665
g394
I0
sg395
Vupgrade
p1666
sg397
I30
sg398
(lp1667
(dp1668
g401
g402
sg403
g404
sg405
g406
sg407
I0
sg408
I0
sg409
(dp1669
Vshield_factor
p1670
F0.2
sVelite
p1671
I1
sVattack_max
p1672
I8
sg300
(dp1673
VDoppelschuss
p1674
(dp1675
g296
I0
sg297
Vupgrade
p1676
sg299
I0
sg300
(lp1677
sg322
I0
ssssasg413
I1
ssssasg413
I1
ssVDoppelschuss
p1678
(dp1679
g1601
I0
sg1602
Vupgrade
p1680
sg1604
I60
sg705
(lp1681
(dp1682
g1607
g1608
sg1609
g1610
sg1611
g1612
sg1613
I0
sg1614
I0
sg1615
(dp1683
Vnum_enemies
p1684
I1
sVattack_min
p1685
I8
sVelite
p1686
I1
sVattack_max
p1687
I15
sg300
(dp1688
VSchildzerstoerer
p1689
(dp1690
g296
I0
sg297
Vupgrade
p1691
sg299
I0
sg300
(lp1692
sg322
I0
ssssasg1630
I1
ssssasS'num_uses'
p1693
I1
sssg1232
I0
sssI4
(dp1694
g1022
(dp1695
g1024
(dp1696
I0
(lp1697
sI600
(lp1698
(dp1699
g1245
g1246
sg1247
g1248
sg1249
g1250
sg1251
I0
sg1252
I0
sg1253
(dp1700
Vdelay_walk
p1701
I-3
sVelite
p1702
I1
sVshield
p1703
I30
sVmax_shield
p1704
I15
ssasI300
(lp1705
(dp1706
g1245
g1246
sg1247
g1248
sg1249
g1250
sg1251
I0
sg1252
I0
sg1253
(dp1707
Vdelay_walk
p1708
I-2
sVelite
p1709
I1
sVshield
p1710
I15
sVdelay_shoot
p1711
I-3
ssassg1038
(dp1712
I500
(lp1713
(dp1714
g190
g191
sg192
g193
sg194
g195
sg196
I0
sg197
I0
sg198
(dp1715
Vshield_factor
p1716
F0.07
sVattack_min
p1717
I10
sVelite
p1718
I1
sVattack_max
p1719
I5
ssasssg1067
(dp1720
g1069
I18
sg1070
I100
sg1071
I5
sg1072
VPanzer
p1721
sg1074
F0.6
sg1075
I8
sg1076
I50
sg1077
I18
sg1078
Vvehicle
p1722
sg1080
I100
sg55
I100
sg1081
I90
sg1082
I7
sg1083
I400
sg1084
I0
sg1085
I4
sg1086
(dp1723
VShottpanzerung
p1724
(dp1725
g609
I0
sg610
Vupgrade
p1726
sg612
I70
sg613
(lp1727
(dp1728
g205
g616
sg209
g617
sg203
g618
sg619
I0
sg620
I0
sg621
(dp1729
Vdelay_walk
p1730
I3
sVelite
p1731
I1
sVshield
p1732
I50
sg613
(dp1733
VVerbundpanzerung
p1734
(dp1735
g609
I0
sg610
Vupgrade
p1736
sg612
I40
sg613
(lp1737
(dp1738
g205
g616
sg209
g617
sg203
g618
sg619
I0
sg620
I0
sg621
(dp1739
Vdelay_walk
p1740
I-3
sVlife
p1741
I10
sVelite
p1742
I1
sVshield
p1743
I25
sVmax_shield
p1744
I15
ssasg638
I1
sssVmax_shield
p1745
I30
ssasg638
I1
ssVHartkernmunition
p1746
(dp1747
S'delay'
p1748
I0
sS'category'
p1749
Vupgrade
p1750
sS'price'
p1751
I30
sS'actions'
p1752
(lp1753
(dp1754
S'target'
p1755
Vself
p1756
sS'level'
p1757
Vid
p1758
sS'type'
p1759
Vchange
p1760
sS'random'
p1761
F0.0
sS'num_units'
p1762
I0
sS'changes'
p1763
(dp1764
Vshield_factor
p1765
F0.15
sVelite
p1766
I1
sVattack_max
p1767
I8
sS'actions'
p1768
(dp1769
VUrangeschoss
p1770
(dp1771
S'delay'
p1772
I0
sS'category'
p1773
Vupgrade
p1774
sS'price'
p1775
I80
sg1768
(lp1776
(dp1777
S'target'
p1778
Vself
p1779
sS'level'
p1780
Vid
p1781
sS'type'
p1782
Vchange
p1783
sS'random'
p1784
F0.0
sS'num_units'
p1785
I0
sS'changes'
p1786
(dp1787
Vshield_factor
p1788
F0.2
sVattack_min
p1789
I15
sVelite
p1790
I1
sVattack_max
p1791
I15
ssasS'num_uses'
p1792
I1
ssssasS'num_uses'
p1793
I1
ssVSpeed I
p1794
(dp1795
g488
I0
sg489
Vupgrade
p1796
sg491
I20
sg492
(lp1797
(dp1798
g1755
S'self'
p1799
sg1757
S'id'
p1800
sg1759
S'change'
p1801
sg1761
I0
sg1762
I0
sg1763
(dp1802
Vdelay_walk
p1803
I-2
sg1752
(dp1804
VSpeed II
p1805
(dp1806
g1748
I0
sg1749
Vupgrade
p1807
sg1751
I40
sg1752
(lp1808
(dp1809
g1755
g1799
sg1757
g1800
sg1759
g1801
sg1761
I0
sg1762
I0
sg1763
(dp1810
Vdelay_walk
p1811
I-2
sVwalk_dist
p1812
I1
sVelite
p1813
I1
ssasg1793
I1
ssssasg498
I1
sssg1232
I100
sssI5
(dp1814
g1022
(dp1815
g1024
(dp1816
I0
(lp1817
sI500
(lp1818
(dp1819
S'target'
p1820
S'self'
p1821
sS'level'
p1822
S'id'
p1823
sS'type'
p1824
S'change'
p1825
sS'random'
p1826
I0
sS'num_units'
p1827
I0
sS'changes'
p1828
(dp1829
Vmax_life
p1830
I10
sVelite
p1831
I1
ssassg1038
(dp1832
I0
(lp1833
sssg1067
(dp1834
g1069
I15
sg1070
I100
sg1071
I5
sg1072
VArtillerie
p1835
sg1074
F0.5
sg1075
I10
sg1076
I0
sg1077
I35
sg1078
Vvehicle
p1836
sg1080
I100
sg55
I70
sg1081
I0
sg1082
I10
sg1083
I600
sg1084
I0
sg1085
I5
sg1086
(dp1837
Vgroessere Schussweite I
p1838
(dp1839
g1748
I0
sg1749
Vupgrade
p1840
sg1751
I40
sg1752
(lp1841
(dp1842
g1755
g1799
sg1757
g1800
sg1759
g1801
sg1761
I0
sg1762
I0
sg1763
(dp1843
Vshoot_dist
p1844
I1
sVelite
p1845
I1
sg469
(dp1846
Vgroessere Schussweite II
p1847
(dp1848
g465
I0
sg466
Vupgrade
p1849
sg468
I50
sg469
(lp1850
(dp1851
g472
g473
sg474
g475
sg476
g477
sg478
I0
sg479
I0
sg480
(dp1852
Vshoot_dist
p1853
I1
sVelite
p1854
I1
ssasg485
I1
ssVStreuung erhoehen
p1855
(dp1856
g465
I0
sg466
Vupgrade
p1857
sg468
I40
sg469
(lp1858
(dp1859
g472
g473
sg474
g475
sg476
g477
sg478
I0
sg479
I0
sg480
(dp1860
Vnum_enemies
p1861
I5
sVattack_min
p1862
I15
sVelite
p1863
I1
ssasg485
I1
ssssasg1793
I1
ssVAufbauen
p1864
(dp1865
S'delay'
p1866
I25
sS'category'
p1867
Vstandard
p1868
sS'price'
p1869
I0
sS'actions'
p1870
(lp1871
(dp1872
S'target'
p1873
S'self'
p1874
sS'level'
p1875
S'id'
p1876
sS'type'
p1877
S'change'
p1878
sS'random'
p1879
I0
sS'num_units'
p1880
I0
sS'changes'
p1881
(dp1882
Vwalk_dist
p1883
I-5
sVattack_min
p1884
I100
sVattack_max
p1885
I200
sg1870
(dp1886
VTransport
p1887
(dp1888
S'delay'
p1889
I30
sS'category'
p1890
Vequipment
p1891
sS'price'
p1892
I0
sS'actions'
p1893
(lp1894
(dp1895
S'target'
p1896
S'self'
p1897
sS'level'
p1898
S'id'
p1899
sS'type'
p1900
S'change'
p1901
sS'random'
p1902
I0
sS'num_units'
p1903
I0
sS'changes'
p1904
(dp1905
Vwalk_dist
p1906
I5
sVattack_min
p1907
I-100
sVattack_max
p1908
I-200
sg1893
(dp1909
VAufbau
p1910
(dp1911
g1889
I25
sg1890
Vstandard
p1912
sg1892
I0
sg1893
(lp1913
(dp1914
g1896
g1897
sg1898
g1899
sg1900
g1901
sg1902
I0
sg1903
I0
sg1904
(dp1915
Vattack_min
p1916
I100
sVattack_max
p1917
I200
sVwalk_dist
p1918
I-5
ssasS'num_uses'
p1919
I1
ssssasg1919
I-1
ssssasS'num_uses'
p1920
I1
ssVSpeed I
p1921
(dp1922
g488
I0
sg489
Vupgrade
p1923
sg491
I80
sg492
(lp1924
(dp1925
g472
g473
sg474
g475
sg476
g477
sg478
I0
sg479
I0
sg480
(dp1926
Vdelay_walk
p1927
I-4
sVelite
p1928
I1
sg469
(dp1929
VSpeed II
p1930
(dp1931
g465
I0
sg466
Vupgrade
p1932
sg468
I50
sg469
(lp1933
(dp1934
g472
g473
sg474
g475
sg476
g477
sg478
I0
sg479
I0
sg480
(dp1935
Vdelay_walk
p1936
I-2
sVelite
p1937
I1
sVdelay_shoot
p1938
I-8
ssasg485
I1
sssVdelay_shoot
p1939
I-8
ssasg498
I1
sssg1232
I70
sssI6
(dp1940
S'elite_parameters'
p1941
(dp1942
S'ticks'
p1943
(dp1944
I800
(lp1945
(dp1946
g1245
g1246
sg1247
g1248
sg1249
g1250
sg1251
I0
sg1252
I0
sg1253
(dp1947
Velite
p1948
I1
sVlife
p1949
I100
sVmax_life
p1950
I10
sVmax_shield
p1951
I8
sVshield
p1952
I15
ssasI400
(lp1953
(dp1954
g1245
g1246
sg1247
g1248
sg1249
g1250
sg1251
I0
sg1252
I0
sg1253
(dp1955
Vlife
p1956
I100
sVmax_life
p1957
I8
sVelite
p1958
I1
ssassS'damage'
p1959
(dp1960
I0
(lp1961
sssS'basic_parameters'
p1962
(dp1963
S'delay_walk'
p1964
I15
sS'life'
p1965
I50
sS'walk_dist'
p1966
I5
sS'name'
p1967
VArzt
p1968
sS'shield_factor'
p1969
F0.4
sS'num_enemies'
p1970
I3
sS'attack_min'
p1971
I0
sS'delay_shoot'
p1972
I15
sS'unit_type'
p1973
Vsoldier
p1974
sS'max_life'
p1975
I50
sg55
I10
sS'attack_max'
p1976
I0
sS'shoot_dist'
p1977
I5
sg1461
I120
sS'elite'
p1978
I0
sg1444
I6
sg1454
(dp1979
VSchmerzmittel
p1980
(dp1981
g394
I0
sg395
Vshop
p1982
sg397
I35
sg398
(lp1983
(dp1984
g657
Vself
p1985
sg659
Vid
p1986
sg661
Vchange
p1987
sg663
F0.15
sg664
I0
sg665
(dp1988
Vlife
p1989
I30
ssasg413
I-1
ssVOperation 120
p1990
(dp1991
g650
I12
sg651
Vstandard
p1992
sg653
I130
sg654
(lp1993
(dp1994
g657
Vown
p1995
sg659
Vid
p1996
sg661
Vchange
p1997
sg663
F0.2
sg664
I13
sg665
(dp1998
Vlife
p1999
I10
ssasg677
I-1
ssVSpeed I
p2000
(dp2001
g394
I0
sg395
Vupgrade
p2002
sg397
I30
sg398
(lp2003
(dp2004
g401
g402
sg403
g404
sg405
g406
sg407
I0
sg408
I0
sg409
(dp2005
Vwalk_dist
p2006
I1
sVelite
p2007
I1
sg398
(dp2008
VSpeed II
p2009
(dp2010
g394
I0
sg395
Vupgrade
p2011
sg397
I50
sg398
(lp2012
(dp2013
g401
g402
sg403
g404
sg405
g406
sg407
I0
sg408
I0
sg409
(dp2014
Vdelay_walk
p2015
I-4
sVwalk_dist
p2016
I2
sVelite
p2017
I1
ssasg413
I1
ssssasg413
I1
ssVVerband 50
p2018
(dp2019
g650
I8
sg651
Vstandard
p2020
sg653
I60
sg654
(lp2021
(dp2022
g657
Vown
p2023
sg659
Vid
p2024
sg661
Vchange
p2025
sg663
F0.2
sg664
I5
sg665
(dp2026
Vlife
p2027
I10
ssasg677
I-1
sssS'shield'
p2028
I10
sssI7
(dp2029
S'elite_parameters'
p2030
(dp2031
S'ticks'
p2032
(dp2033
I0
(lp2034
ssS'damage'
p2035
(dp2036
I0
(lp2037
sssS'basic_parameters'
p2038
(dp2039
S'delay_walk'
p2040
I15
sS'life'
p2041
I60
sS'walk_dist'
p2042
I5
sS'name'
p2043
VCyborg
p2044
sS'shield_factor'
p2045
F0.6
sS'num_enemies'
p2046
I5
sS'attack_min'
p2047
I20
sS'delay_shoot'
p2048
I15
sS'unit_type'
p2049
Vsoldier
p2050
sS'max_life'
p2051
I60
sg55
I40
sS'attack_max'
p2052
I35
sS'shoot_dist'
p2053
I7
sg186
I120
sS'elite'
p2054
I0
sg193
I7
sg187
(dp2055
VSpeed I
p2056
(dp2057
S'delay'
p2058
I0
sS'category'
p2059
S'upgrade'
p2060
sS'price'
p2061
I0
sS'actions'
p2062
(lp2063
sS'num_uses'
p2064
I-1
sssS'shield'
p2065
I40
sssI8
(dp2066
S'elite_parameters'
p2067
(dp2068
S'ticks'
p2069
(dp2070
I0
(lp2071
sI250
(lp2072
(dp2073
S'target'
p2074
S'self'
p2075
sS'level'
p2076
S'id'
p2077
sS'type'
p2078
S'change'
p2079
sS'random'
p2080
I0
sS'num_units'
p2081
I0
sS'changes'
p2082
(dp2083
Vmax_shield
p2084
I5
sVlife
p2085
I20
sVelite
p2086
I1
sVshield
p2087
I10
ssasI500
(lp2088
(dp2089
g2074
g2075
sg2076
g2077
sg2078
g2079
sg2080
I0
sg2081
I0
sg2082
(dp2090
Vmax_shield
p2091
I5
sVlife
p2092
I100
sVmax_life
p2093
I10
sVelite
p2094
I1
sVshield
p2095
I20
ssassS'damage'
p2096
(dp2097
I0
(lp2098
sI500
(lp2099
sssS'basic_parameters'
p2100
(dp2101
S'delay_walk'
p2102
I15
sS'life'
p2103
I70
sS'walk_dist'
p2104
I5
sS'name'
p2105
VKommandant
p2106
sS'shield_factor'
p2107
F0.6
sS'num_enemies'
p2108
I4
sS'attack_min'
p2109
I20
sS'delay_shoot'
p2110
I15
sS'unit_type'
p2111
Vsoldier
p2112
sS'max_life'
p2113
I70
sg55
I10
sS'attack_max'
p2114
I30
sS'shoot_dist'
p2115
I6
sg1332
I250
sS'elite'
p2116
I4
sg102
I8
sg1333
(dp2117
VLuftunterstuetzung
p2118
(dp2119
g1329
I40
sg1330
Vstandard
p2120
sg1332
I150
sg1333
(lp2121
(dp2122
g99
Venemy
p2123
sg101
Vid
p2124
sg103
Vchange
p2125
sg105
F0.6
sg106
I7
sg107
(dp2126
Vlife
p2127
I-17
sVshield
p2128
I-12
ssasg1340
I-1
ssVDrill Sergent
p2129
(dp2130
S'delay'
p2131
I0
sS'category'
p2132
Vstandard
p2133
sS'price'
p2134
I100
sS'actions'
p2135
(lp2136
(dp2137
S'target'
p2138
Vown
p2139
sS'level'
p2140
Vid
p2141
sS'type'
p2142
Vchange
p2143
sS'random'
p2144
F0.0
sS'num_units'
p2145
I0
sS'changes'
p2146
(dp2147
Vattack_min
p2148
I10
sVattack_max
p2149
I8
sVdelay_shoot
p2150
I-3
ssasS'num_uses'
p2151
I-1
ssVFallschirmspringer
p2152
(dp2153
g1131
I20
sg1132
Vstandard
p2154
sg1134
I450
sg1117
(lp2155
(dp2156
g75
Vnew
p2157
sg71
Vown
p2158
sg86
(lp2159
I0
aI0
aI2
asg73
Vgroups
p2160
sasg1136
I-1
ssVSpionageausbildung
p2161
(dp2162
S'delay'
p2163
I0
sS'category'
p2164
Vupgrade
p2165
sS'price'
p2166
I170
sS'actions'
p2167
(lp2168
(dp2169
S'target'
p2170
S'self'
p2171
sS'level'
p2172
S'id'
p2173
sS'type'
p2174
S'change'
p2175
sS'random'
p2176
I0
sS'num_units'
p2177
I0
sS'changes'
p2178
(dp2179
Velite
p2180
I1
sg2167
(dp2181
VWirtschafts-Spionage
p2182
(dp2183
g2163
I40
sg2164
Vupgrade
p2184
sg2166
I80
sg2167
(lp2185
(dp2186
g2170
g2171
sg2172
g2173
sg2174
g2175
sg2176
I0
sg2177
I0
sg2178
(dp2187
g2167
(dp2188
VDieb
p2189
(dp2190
g2163
I60
sg2164
Vequipment
p2191
sg2166
I200
sg2167
(lp2192
(dp2193
g2178
(dp2194
Vaccount
p2195
I-150
ssg2176
F0.5
sg2174
Vchange
p2196
sg2170
Venemy
p2197
sg2172
Vplayer
p2198
sa(dp2199
g2178
(dp2200
Vaccount
p2201
I80
ssg2176
F0.7
sg2174
Vchange
p2202
sg2170
Vown
p2203
sg2172
Vplayer
p2204
sasS'num_uses'
p2205
I-1
ssssasg2205
I-1
ssVID-Spionage
p2206
(dp2207
g2163
I40
sg2164
Vequipment
p2208
sg2166
I70
sg2167
(lp2209
sg2205
I-1
ssssasg2205
I1
sssS'shield'
p2210
I10
sssI9
(dp2211
S'elite_parameters'
p2212
(dp2213
S'ticks'
p2214
(dp2215
I0
(lp2216
ssS'damage'
p2217
(dp2218
I0
(lp2219
sssS'basic_parameters'
p2220
(dp2221
S'delay_walk'
p2222
I0
sS'life'
p2223
I100
sS'walk_dist'
p2224
I0
sS'name'
p2225
VFlak
p2226
sS'shield_factor'
p2227
F0.6
sS'num_enemies'
p2228
I3
sS'attack_min'
p2229
I60
sS'delay_shoot'
p2230
I15
sS'unit_type'
p2231
Vvehicle
p2232
sS'max_life'
p2233
I100
sg55
I0
sS'attack_max'
p2234
I80
sS'shoot_dist'
p2235
I5
sS'price'
p2236
I200
sS'elite'
p2237
I0
sS'id'
p2238
I9
sS'actions'
p2239
(dp2240
Vnix
p2241
(dp2242
S'delay'
p2243
I0
sS'category'
p2244
S'upgrade'
p2245
sg2236
I0
sg2239
(lp2246
sS'num_uses'
p2247
I-1
sssS'shield'
p2248
I0
sssI10
(dp2249
S'elite_parameters'
p2250
(dp2251
S'ticks'
p2252
(dp2253
I0
(lp2254
(dp2255
g1245
g1246
sg1247
g1248
sg1249
g1250
sg1251
I0
sg1252
I0
sg1253
(dp2256
sasI400
(lp2257
(dp2258
g1245
g1246
sg1247
g1248
sg1249
g1250
sg1251
I0
sg1252
I0
sg1253
(dp2259
Vdelay_walk
p2260
I-2
sVelite
p2261
I1
ssassS'damage'
p2262
(dp2263
I0
(lp2264
sssS'basic_parameters'
p2265
(dp2266
S'delay_walk'
p2267
I11
sS'life'
p2268
I40
sS'walk_dist'
p2269
I6
sS'name'
p2270
VMotorrad
p2271
sS'shield_factor'
p2272
F0.45
sS'num_enemies'
p2273
I4
sS'attack_min'
p2274
I5
sS'delay_shoot'
p2275
I15
sS'unit_type'
p2276
Vvehicle
p2277
sS'max_life'
p2278
I40
sg55
I0
sS'attack_max'
p2279
I10
sS'shoot_dist'
p2280
I5
sg2134
I40
sS'elite'
p2281
I0
sS'id'
p2282
I10
sg2135
(dp2283
VSchutzweste
p2284
(dp2285
g2131
I0
sg2132
Vupgrade
p2286
sg2134
I30
sg2135
(lp2287
(dp2288
g2138
S'self'
p2289
sg2140
g2282
sg2142
S'change'
p2290
sg2144
I0
sg2145
I0
sg2146
(dp2291
Vmax_shield
p2292
I8
sVshield
p2293
I8
ssasg2151
I1
ssVneue Reifen
p2294
(dp2295
g2131
I0
sg2132
Vupgrade
p2296
sg2134
I20
sg2135
(lp2297
(dp2298
g2138
g2289
sg2140
g2282
sg2142
g2290
sg2144
I0
sg2145
I0
sg2146
(dp2299
Vwalk_dist
p2300
I1
sVelite
p2301
I1
sg2135
(dp2302
Vleichteres Motorrad
p2303
(dp2304
g2131
I0
sg2132
Vupgrade
p2305
sg2134
I30
sg2135
(lp2306
(dp2307
g2138
g2289
sg2140
g2282
sg2142
g2290
sg2144
I0
sg2145
I0
sg2146
(dp2308
Vdelay_walk
p2309
I-1
sVwalk_dist
p2310
I1
sVelite
p2311
I1
ssasg2151
I1
ssssasg2151
I1
ssVDrive by lernen
p2312
(dp2313
g2131
I0
sg2132
Vupgrade
p2314
sg2134
I30
sg2135
(lp2315
(dp2316
g2138
g2289
sg2140
g2282
sg2142
g2290
sg2144
I0
sg2145
I0
sg2146
(dp2317
Vattack_min
p2318
I7
sVelite
p2319
I1
sVattack_max
p2320
I5
ssasg2151
I1
sssS'shield'
p2321
I0
sssI11
(dp2322
S'elite_parameters'
p2323
(dp2324
S'ticks'
p2325
(dp2326
I0
(lp2327
ssS'damage'
p2328
(dp2329
I0
(lp2330
sssS'basic_parameters'
p2331
(dp2332
S'delay_walk'
p2333
I18
sS'life'
p2334
I80
sS'walk_dist'
p2335
I5
sS'name'
p2336
VJavelin
p2337
sS'shield_factor'
p2338
F2.5
sS'num_enemies'
p2339
I2
sS'attack_min'
p2340
I8
sS'delay_shoot'
p2341
I20
sS'unit_type'
p2342
Vsoldier
p2343
sS'max_life'
p2344
I80
sg55
I50
sS'attack_max'
p2345
I12
sS'shoot_dist'
p2346
I9
sg1508
I200
sS'elite'
p2347
I0
sg1515
I11
sg1509
(dp2348
Vschneller ziehen
p2349
(dp2350
g296
I0
sg297
Vupgrade
p2351
sg299
I30
sg300
(lp2352
(dp2353
g303
g304
sg305
g306
sg307
g308
sg309
I0
sg310
I0
sg311
(dp2354
Vdelay_walk
p2355
I-3
sVelite
p2356
I1
ssasg322
I1
ssVschneller laden
p2357
(dp2358
S'delay'
p2359
I0
sS'category'
p2360
Vupgrade
p2361
sS'price'
p2362
I40
sS'actions'
p2363
(lp2364
(dp2365
S'target'
p2366
S'self'
p2367
sS'level'
p2368
S'id'
p2369
sS'type'
p2370
S'change'
p2371
sS'random'
p2372
I0
sS'num_units'
p2373
I0
sS'changes'
p2374
(dp2375
Velite
p2376
I1
sVdelay_shoot
p2377
I-4
ssasS'num_uses'
p2378
I1
ssVgroessere Sprengkraft
p2379
(dp2380
g2359
I0
sg2360
Vupgrade
p2381
sg2362
I30
sg2363
(lp2382
(dp2383
g2366
g2367
sg2368
g2369
sg2370
g2371
sg2372
I0
sg2373
I0
sg2374
(dp2384
Vnum_enemies
p2385
I2
sVattack_min
p2386
I2
sVelite
p2387
I1
sVattack_max
p2388
I3
sg2363
(dp2389
Vneue Sprengtechnologie
p2390
(dp2391
g2359
I0
sg2360
Vupgrade
p2392
sg2362
I40
sg2363
(lp2393
(dp2394
g2366
g2367
sg2368
g2369
sg2370
g2371
sg2372
I0
sg2373
I0
sg2374
(dp2395
Vshield_factor
p2396
F0.4
sVelite
p2397
I1
ssasg2378
I1
ssssasg2378
I1
sssS'shield'
p2398
I50
ssss.