(dp0
S'building_parameters'
p1
(dp2
I0
(dp3
S'elite_parameters'
p4
(dp5
S'ticks'
p6
(dp7
I0
(lp8
ssS'damage'
p9
(dp10
I0
(lp11
sssS'basic_parameters'
p12
(dp13
S'life'
p14
I800
sS'shop_transporter'
p15
(lp16
sS'capacity'
p17
I25
sS'name'
p18
VHauptquartier
p19
sS'shop_units'
p20
(lp21
I1
aI10
asS'attack_min'
p22
I0
sS'shield'
p23
I100
sS'delay_shoot'
p24
I15
sS'delay_in'
p25
I20
sS'price'
p26
I2000
sS'actions'
p27
(dp28
VArzneistudium +
p29
(dp30
S'delay'
p31
I0
sS'category'
p32
Vupgrade
p33
sS'price'
p34
I400
sS'actions'
p35
(lp36
(dp37
S'target'
p38
S'self'
p39
sS'level'
p40
S'id'
p41
sS'type'
p42
S'change'
p43
sS'random'
p44
I0
sS'num_units'
p45
I0
sS'changes'
p46
(dp47
Vshop_units
p48
(lp49
I6
assa(dp50
g42
Vnew
p51
sg38
Vown
p52
sS'parameters'
p53
(lp54
I6
asg40
Vgroups
p55
sasS'num_uses'
p56
I1
ssVKommandant +
p57
(dp58
S'delay'
p59
I0
sS'category'
p60
Vupgrade
p61
sS'price'
p62
I500
sS'actions'
p63
(lp64
(dp65
S'target'
p66
S'self'
p67
sS'level'
p68
S'id'
p69
sS'type'
p70
S'change'
p71
sS'random'
p72
I0
sS'num_units'
p73
I0
sS'changes'
p74
(dp75
Vshop_units
p76
(lp77
I8
assa(dp78
S'type'
p79
Vnew
p80
sS'target'
p81
Vown
p82
sS'parameters'
p83
(lp84
I8
asS'level'
p85
Vgroups
p86
sasS'num_uses'
p87
I1
ssVHelikopter-Plattform +
p88
(dp89
S'delay'
p90
I0
sS'category'
p91
Vupgrade
p92
sS'price'
p93
I400
sS'actions'
p94
(lp95
(dp96
S'target'
p97
S'self'
p98
sS'level'
p99
S'id'
p100
sS'type'
p101
S'change'
p102
sS'random'
p103
I0
sS'num_units'
p104
I0
sS'changes'
p105
(dp106
Vshop_transporter
p107
(lp108
I1
assa(dp109
g101
Vnew
p110
sg97
Vown
p111
sS'parameters'
p112
I1
sg99
Vtransporter
p113
sasS'num_uses'
p114
I1
sssS'max_life'
p115
I800
sS'max_shield'
p116
I100
sS'delay_out'
p117
I10
sS'enter'
p118
Vsoldier
p119
sS'id'
p120
I0
sS'shoot_dist'
p121
I6
sS'elite'
p122
I0
sS'shield_factor'
p123
F0.4
sS'num_enemies'
p124
I4
sS'attack_max'
p125
I0
sssI1
(dp126
S'elite_parameters'
p127
(dp128
S'ticks'
p129
(dp130
I500
(lp131
ssS'damage'
p132
(dp133
I0
(lp134
sssS'basic_parameters'
p135
(dp136
S'shop_units'
p137
(lp138
I0
asS'life'
p139
I600
sS'shop_transporter'
p140
(lp141
sS'capacity'
p142
I15
sS'name'
p143
VKaserne
p144
sS'shield_factor'
p145
F0.4
sS'attack_min'
p146
I0
sS'delay_shoot'
p147
I15
sS'delay_in'
p148
I20
sS'price'
p149
I600
sS'max_life'
p150
I600
sg116
I80
sS'delay_out'
p151
I10
sS'attack_max'
p152
I0
sS'enter'
p153
Vsoldier
p154
sS'shoot_dist'
p155
I6
sS'num_enemies'
p156
I4
sS'elite'
p157
I0
sS'id'
p158
I1
sS'actions'
p159
(dp160
VSniper +
p161
(dp162
S'delay'
p163
I0
sS'category'
p164
Vupgrade
p165
sS'price'
p166
I200
sS'actions'
p167
(lp168
(dp169
S'target'
p170
S'self'
p171
sS'level'
p172
S'id'
p173
sS'type'
p174
S'change'
p175
sS'random'
p176
I0
sS'num_units'
p177
I0
sS'changes'
p178
(dp179
Vshop_units
p180
(lp181
I3
assa(dp182
S'type'
p183
Vnew
p184
sS'target'
p185
Vown
p186
sS'parameters'
p187
(lp188
I3
asS'level'
p189
Vgroups
p190
sasS'num_uses'
p191
I1
ssVVerteidigung
p192
(dp193
S'delay'
p194
I20
sS'category'
p195
Vupgrade
p196
sS'price'
p197
I100
sS'actions'
p198
(lp199
(dp200
S'target'
p201
S'self'
p202
sS'level'
p203
S'id'
p204
sS'type'
p205
S'change'
p206
sS'random'
p207
I0
sS'num_units'
p208
I0
sS'changes'
p209
(dp210
Vattack_min
p211
I20
sVattack_max
p212
I40
ssasS'num_uses'
p213
I1
ssVMG-Soldat
p214
(dp215
S'delay'
p216
I0
sS'category'
p217
Vupgrade
p218
sS'price'
p219
I250
sS'actions'
p220
(lp221
(dp222
g201
g202
sg203
g204
sg205
g206
sg207
I0
sg208
I0
sg209
(dp223
Vshop_units
p224
(lp225
I2
asVelite
p226
I1
sS'actions'
p227
(dp228
VCyborg
p229
(dp230
S'delay'
p231
I0
sS'category'
p232
Vupgrade
p233
sS'price'
p234
I200
sg227
(lp235
(dp236
S'target'
p237
S'self'
p238
sS'level'
p239
S'id'
p240
sS'type'
p241
S'change'
p242
sS'random'
p243
I0
sS'num_units'
p244
I0
sS'changes'
p245
(dp246
Vshop_units
p247
(lp248
I7
asVelite
p249
I1
ssasS'num_uses'
p250
I1
ssssasS'num_uses'
p251
I1
ssVJavelin +
p252
(dp253
S'delay'
p254
I0
sS'category'
p255
Vupgrade
p256
sS'price'
p257
I400
sS'actions'
p258
(lp259
(dp260
S'target'
p261
S'self'
p262
sS'level'
p263
S'id'
p264
sS'type'
p265
S'change'
p266
sS'random'
p267
I0
sS'num_units'
p268
I0
sS'changes'
p269
(dp270
Vshop_units
p271
(lp272
I11
asVelite
p273
I1
ssa(dp274
g265
Vnew
p275
sg261
Vown
p276
sS'parameters'
p277
(lp278
I11
asg263
Vgroups
p279
sasS'num_uses'
p280
I1
sssS'shield'
p281
I80
sssI2
(dp282
S'elite_parameters'
p283
(dp284
S'ticks'
p285
(dp286
I0
(lp287
ssS'damage'
p288
(dp289
I0
(lp290
sssS'basic_parameters'
p291
(dp292
S'life'
p293
I500
sS'shop_transporter'
p294
(lp295
sS'capacity'
p296
I10
sS'name'
p297
VLazarett
p298
sS'shield_factor'
p299
F0.4
sS'shop_units'
p300
(lp301
sS'attack_min'
p302
I0
sS'delay_shoot'
p303
I15
sS'delay_in'
p304
I20
sS'price'
p305
I500
sS'actions'
p306
(dp307
V10x heilen
p308
(dp309
S'delay'
p310
I50
sS'category'
p311
Vstandard
p312
sg305
I400
sg306
(lp313
(dp314
S'target'
p315
Vown
p316
sS'level'
p317
Vid
p318
sS'type'
p319
Vchange
p320
sS'random'
p321
F0.0
sS'num_units'
p322
I0
sS'changes'
p323
(dp324
Vlife
p325
I50
ssasS'num_uses'
p326
I-1
ssV1x heilen
p327
(dp328
g310
I40
sg311
Vstandard
p329
sg305
I70
sg306
(lp330
(dp331
g315
Vown
p332
sg317
Vid
p333
sg319
Vchange
p334
sg321
F0.0
sg322
I1
sg323
(dp335
Vlife
p336
I50
ssasg326
I-1
ssVArztneistudium
p337
(dp338
S'delay'
p339
I0
sS'category'
p340
Vupgrade
p341
sS'price'
p342
I200
sS'actions'
p343
(lp344
(dp345
S'target'
p346
S'self'
p347
sS'level'
p348
S'id'
p349
sS'type'
p350
S'change'
p351
sS'random'
p352
I0
sS'num_units'
p353
I0
sS'changes'
p354
(dp355
Vshop_units
p356
(lp357
I6
assasS'num_uses'
p358
I1
ssV5x heilen
p359
(dp360
g310
I50
sg311
Vstandard
p361
sg305
I200
sg306
(lp362
(dp363
g315
Vown
p364
sg317
Vid
p365
sg319
Vchange
p366
sg321
F0.0
sg322
I5
sg323
(dp367
Vlife
p368
I50
ssasg326
I-1
sssS'max_life'
p369
I500
sg116
I75
sS'delay_out'
p370
I10
sS'attack_max'
p371
I0
sS'enter'
p372
Vsoldier
p373
sS'shoot_dist'
p374
I6
sS'elite'
p375
I0
sS'id'
p376
I2
sS'num_enemies'
p377
I4
sS'shield'
p378
I75
sssI3
(dp379
g283
(dp380
g285
(dp381
I0
(lp382
ssg288
(dp383
I0
(lp384
sssg291
(dp385
g293
I500
sg294
(lp386
I0
asg296
I10
sg297
VWerkstatt
p387
sg299
F0.4
sg300
(lp388
I4
asg302
I0
sg303
I15
sg304
I20
sg305
I700
sg306
(dp389
VFahrzeug Transporter
p390
(dp391
S'delay'
p392
I0
sS'category'
p393
Vupgrade
p394
sS'price'
p395
I150
sS'actions'
p396
(lp397
(dp398
S'target'
p399
S'self'
p400
sS'level'
p401
S'id'
p402
sS'type'
p403
S'change'
p404
sS'random'
p405
I0
sS'num_units'
p406
I0
sS'changes'
p407
(dp408
Vshop_transporter
p409
(lp410
I2
asVelite
p411
I1
ssasS'num_uses'
p412
I1
ssVArtillerie
p413
(dp414
S'delay'
p415
I0
sS'category'
p416
Vupgrade
p417
sS'price'
p418
I300
sS'actions'
p419
(lp420
(dp421
S'target'
p422
S'self'
p423
sS'level'
p424
S'id'
p425
sS'type'
p426
S'change'
p427
sS'random'
p428
I0
sS'num_units'
p429
I0
sS'changes'
p430
(dp431
Vshop_units
p432
(lp433
I5
asVelite
p434
I1
ssasS'num_uses'
p435
I1
ssVVerteidigung
p436
(dp437
S'delay'
p438
I0
sS'category'
p439
Vupgrade
p440
sS'price'
p441
I50
sS'actions'
p442
(lp443
(dp444
g346
g347
sg348
g349
sg350
g351
sg352
I0
sg353
I0
sg354
(dp445
Vattack_min
p446
I30
sVattack_max
p447
I50
ssasS'num_uses'
p448
I1
sssg369
I500
sg116
I80
sg370
I10
sg371
I0
sg372
Vvehicle
p449
sg374
I6
sg375
I0
sg376
I3
sg377
I4
sg378
I80
sssI4
(dp450
g283
(dp451
g285
(dp452
I0
(lp453
ssg288
(dp454
I0
(lp455
sssg291
(dp456
g293
I600
sg294
(lp457
sg296
I15
sg297
VFlughafen
p458
sg299
F0.4
sg300
(lp459
sg302
I0
sg303
I15
sg304
I20
sg305
I1000
sg306
(dp460
VFlak & Verteidigung
p461
(dp462
g392
I0
sg393
Vupgrade
p463
sg395
I100
sg396
(lp464
(dp465
g399
g400
sg401
g402
sg403
g404
sg405
I0
sg406
I0
sg407
(dp466
Vshop_units
p467
(lp468
I9
asVattack_min
p469
I30
sVelite
p470
I1
sVattack_max
p471
I50
ssasg412
I1
ssVHelikopter Landeplattform
p472
(dp473
g310
I0
sg311
Vupgrade
p474
sg305
I400
sg306
(lp475
(dp476
g315
S'self'
p477
sg317
g376
sg319
S'change'
p478
sg321
I0
sg322
I0
sg323
(dp479
Vshop_transporter
p480
(lp481
I1
asVelite
p482
I1
sS'actions'
p483
(dp484
VFallschirmspringer
p485
(dp486
S'delay'
p487
I0
sS'category'
p488
S'upgrade'
p489
sS'price'
p490
I0
sS'actions'
p491
(lp492
sS'num_uses'
p493
I-1
ssssasg326
I1
sssg369
I600
sg116
I50
sg370
I10
sg371
I0
sg372
Vvehicle
p494
sg374
I6
sg375
I0
sg376
I4
sg377
I4
sg378
I50
sssI5
(dp495
S'elite_parameters'
p496
(dp497
S'ticks'
p498
(dp499
I0
(lp500
ssS'damage'
p501
(dp502
I0
(lp503
sssS'basic_parameters'
p504
(dp505
S'life'
p506
I100
sS'shop_transporter'
p507
(lp508
sS'capacity'
p509
I0
sS'name'
p510
Vnix
p511
sS'shield_factor'
p512
F0.6
sS'attack_min'
p513
I60
sS'shield'
p514
I0
sS'delay_shoot'
p515
I15
sS'delay_in'
p516
I0
sS'price'
p517
I200
sS'max_life'
p518
I100
sg116
I0
sS'delay_out'
p519
I0
sS'enter'
p520
Vsoldier
p521
sS'id'
p522
I5
sS'shoot_dist'
p523
I5
sS'actions'
p524
(dp525
Vnix
p526
(dp527
S'delay'
p528
I0
sS'category'
p529
S'upgrade'
p530
sg517
I0
sg524
(lp531
sS'num_uses'
p532
I-1
sssS'elite'
p533
I0
sS'shop_units'
p534
(lp535
sS'num_enemies'
p536
I3
sS'attack_max'
p537
I80
sssI6
(dp538
g496
(dp539
g498
(dp540
I0
(lp541
ssg501
(dp542
I0
(lp543
sssg504
(dp544
g506
I80
sg507
(lp545
sg509
I5
sg510
VMG-Nest
p546
sg512
F0.5
sg513
I20
sg514
I20
sg515
I15
sg516
I15
sg517
I100
sg518
I80
sg116
I20
sg519
I10
sg520
Vsoldier
p547
sg522
I6
sg523
I6
sg524
(dp548
VPanzerabwehr
p549
(dp550
S'delay'
p551
I20
sS'category'
p552
Vupgrade
p553
sS'price'
p554
I150
sS'actions'
p555
(lp556
(dp557
g185
S'self'
p558
sg189
S'id'
p559
sg183
S'change'
p560
sS'random'
p561
I0
sS'num_units'
p562
I0
sS'changes'
p563
(dp564
Vshoot_dist
p565
I1
sVattack_min
p566
I-10
sVelite
p567
I2
sVshield_factor
p568
F2.0
sVattack_max
p569
I-20
ssasS'num_uses'
p570
I1
ssVBetonguss
p571
(dp572
g551
I0
sg552
Vupgrade
p573
sg554
I50
sg555
(lp574
(dp575
g185
g558
sg189
g559
sg183
g560
sg561
I0
sg562
I0
sg563
(dp576
Vmax_shield
p577
I15
sVelite
p578
I1
sVshield
p579
I30
ssasg570
I1
sssg533
I0
sg534
(lp580
sg536
I4
sg537
I35
ssssS'card_parameters'
p581
(dp582
I200
(lp583
(dp584
S'title'
p585
VHelitransport
p586
sS'description'
p587
VEine Gruppe kann in einen Helikopter verladen werden und deshalb 10 pro Runde ziehen.
p588
sS'actions'
p589
(lp590
(dp591
S'target'
p592
S'self'
p593
sS'level'
p594
S'id'
p595
sS'type'
p596
S'change'
p597
sS'random'
p598
F0.0
sS'num_units'
p599
I0
sS'changes'
p600
(dp601
sasS'num_cards'
p602
I10
sa(dp603
S'num_cards'
p604
I7
sS'description'
p605
VAlle Einheiten werden verwundet. Gegnerische staerker als eigene
p606
sS'actions'
p607
(lp608
(dp609
S'target'
p610
S'enemy'
p611
sS'level'
p612
S'id'
p613
sS'type'
p614
S'change'
p615
sS'random'
p616
F0.3
sS'num_units'
p617
S'all'
p618
sS'changes'
p619
(dp620
Vlife
p621
I-8
ssa(dp622
g610
Vown
p623
sg612
Vid
p624
sg614
Vchange
p625
sg616
F0.3
sg617
Vall
p626
sg619
(dp627
Vlife
p628
I-2
ssasS'title'
p629
VGiftgas
p630
sa(dp631
S'title'
p632
VFeldapotheke
p633
sS'num_cards'
p634
I12
sS'actions'
p635
(lp636
(dp637
g610
Vown
p638
sg612
Vid
p639
sg614
Vchange
p640
sg616
F0.2
sg617
I6
sg619
(dp641
Vlife
p642
I20
ssasS'description'
p643
VDescription
p644
sa(dp645
S'title'
p646
VUnnamed Card
p647
sS'description'
p648
VDescription
p649
sS'actions'
p650
(lp651
(dp652
g596
S'new'
p653
sg592
S'own'
p654
sS'parameters'
p655
I0
sg594
S'buildings'
p656
sa(dp657
g592
S'self'
p658
sg594
S'id'
p659
sg596
S'change'
p660
sg598
F0.0
sg599
I0
sg600
(dp661
Vlife
p662
I0
ssasS'num_cards'
p663
I1
sassS'engine_parameters'
p664
(dp665
S'constant_per_tick'
p666
F4.0
sS'all_sectors'
p667
(dp668
I1
(dp669
S'victory'
p670
I0
sS'weight'
p671
F1.0
ssI2
(dp672
g670
I0
sg671
F1.0
ssI3
(dp673
g670
I0
sg671
F1.0
ssI4
(dp674
g670
I0
sg671
F1.0
ssI5
(dp675
g670
I1
sg671
F1.0
ssI6
(dp676
g670
I0
sg671
F1.0
ssI7
(dp677
g670
I0
sg671
F2.0
ssI8
(dp678
g670
I0
sg671
F1.0
ssI9
(dp679
g670
I0
sg671
F1.0
ssI10
(dp680
g670
I0
sg671
F1.0
ssI11
(dp681
g670
I0
sg671
F1.0
ssI12
(dp682
g670
I0
sg671
F1.0
ssI13
(dp683
g670
I0
sg671
F2.0
ssI14
(dp684
g670
I1
sg671
F1.0
ssI15
(dp685
g670
I0
sg671
F1.0
ssI16
(dp686
g670
I0
sg671
F1.0
ssI17
(dp687
g670
I0
sg671
F1.0
ssI18
(dp688
g670
I0
sg671
F1.0
ssI19
(dp689
g670
I1
sg671
F1.0
sssS'delay_damage'
p690
F0.5
sS'start_account'
p691
F300.0
sS'extra_shoot_dist'
p692
F2.0
sS'per_sector_per_tick'
p693
F1.0
sS'protection_in'
p694
F18.0
sS'tick_duration'
p695
F11.0
sS'protection_effect'
p696
F0.4
sS'take_over_factor'
p697
F1.3
sS'sector_takeover'
p698
F170.0
sS'protection_out'
p699
F10.0
sS'max_victory_diff'
p700
F200.0
ssS'transport_parameters'
p701
(dp702
I0
(dp703
g127
(dp704
g129
(dp705
I0
(lp706
ssg132
(dp707
I0
(lp708
sssg135
(dp709
S'delay_walk'
p710
I15
sg139
I100
sS'walk_dist'
p711
I10
sg142
I10
sg143
VTransporter
p712
sg157
I0
sg145
F0.4
sg146
I0
sg147
I20
sg158
I0
sg149
I200
sg150
I100
sg116
I25
sg151
I7
sg152
I0
sg159
(dp713
VPanzerung
p714
(dp715
S'delay'
p716
I0
sS'category'
p717
Vupgrade
p718
sS'price'
p719
I50
sg589
(lp720
(dp721
S'target'
p722
S'self'
p723
sS'level'
p724
S'id'
p725
sS'type'
p726
S'change'
p727
sS'random'
p728
I0
sS'num_units'
p729
I0
sS'changes'
p730
(dp731
Vdelay_walk
p732
I3
sVelite
p733
I1
sVshield
p734
I40
sg589
(dp735
VCasspir
p736
(dp737
g716
I0
sg717
Vupgrade
p738
sg719
I70
sg589
(lp739
(dp740
g722
g723
sg724
g725
sg726
g727
sg728
I0
sg729
I0
sg730
(dp741
Vdelay_walk
p742
I-5
sVelite
p743
I1
sVshield
p744
I50
sVmax_shield
p745
I40
ssasS'num_uses'
p746
I1
sssVmax_shield
p747
I30
ssasg746
I1
ssVMG
p748
(dp749
g716
I0
sg717
Vupgrade
p750
sg719
I40
sg589
(lp751
(dp752
g722
Vself
p753
sg724
Vid
p754
sg726
Vchange
p755
sg728
F0.0
sg729
I0
sg730
(dp756
Vattack_min
p757
I20
sVelite
p758
I1
sVattack_max
p759
I40
sg589
(dp760
VKampfmaschine
p761
(dp762
g716
I0
sg717
Vupgrade
p763
sg719
I80
sg589
(lp764
(dp765
g722
g723
sg724
g725
sg726
g727
sg728
I0
sg729
I0
sg730
(dp766
Vshield_factor
p767
F0.2
sVattack_min
p768
I30
sVelite
p769
I1
sVattack_max
p770
I30
ssasg746
I1
ssssasg746
I1
ssVSpeed up (laden & ziehen)
p771
(dp772
g551
I0
sg552
Vupgrade
p773
sg554
I30
sg555
(lp774
(dp775
g185
g558
sg189
g559
sg183
g560
sg561
I0
sg562
I0
sg563
(dp776
Vdelay_walk
p777
I-2
sVelite
p778
I1
sg555
(dp779
VSpeed up (nur ziehen)
p780
(dp781
g551
I0
sg552
Vupgrade
p782
sg554
I40
sg555
(lp783
(dp784
g185
g558
sg189
g559
sg183
g560
sg561
I0
sg562
I0
sg563
(dp785
Vdelay_walk
p786
I-2
sVwalk_dist
p787
I1
sVelite
p788
I1
ssasg570
I1
sssVdelay_shoot
p789
I-2
ssasg570
I1
ssVmehr Platz I
p790
(dp791
g716
I0
sg717
Vupgrade
p792
sg719
I30
sg589
(lp793
(dp794
g722
g723
sg724
g725
sg726
g727
sg728
I0
sg729
I0
sg730
(dp795
Vcapacity
p796
I5
sVelite
p797
I1
sg589
(dp798
Vmehr Platz II
p799
(dp800
g716
I0
sg717
Vupgrade
p801
sg719
I40
sg589
(lp802
(dp803
g722
g723
sg724
g725
sg726
g727
sg728
I0
sg729
I0
sg730
(dp804
Vcapacity
p805
I8
sVelite
p806
I1
ssasg746
I1
ssssasg746
I1
sssg155
I5
sS'transports'
p807
Vsoldier
p808
sg148
I10
sg156
I4
sg281
I25
sssI1
(dp809
g283
(dp810
g285
(dp811
I0
(lp812
ssg288
(dp813
I0
(lp814
sssg291
(dp815
S'delay_walk'
p816
I15
sg293
I100
sS'walk_dist'
p817
I10
sg296
I10
sg297
VHelikopter
p818
sg375
I0
sg299
F0.4
sg302
I0
sg303
I20
sg376
I1
sg305
I200
sg369
I100
sg116
I50
sg370
I10
sg371
I0
sg306
(dp819
VBombe abwerfen
p820
(dp821
g310
I0
sg311
Vstandard
p822
sg305
I80
sg306
(lp823
(dp824
g315
Venemy
p825
sg317
Vid
p826
sg319
Vchange
p827
sg321
F0.3
sg322
I7
sg323
(dp828
Vlife
p829
I6
sg306
(dp830
ssasg326
I-1
sssg374
I6
sS'transports'
p831
Vsoldier
p832
sg304
I30
sg377
I4
sg378
I50
sssI2
(dp833
S'elite_parameters'
p834
(dp835
S'ticks'
p836
(dp837
I0
(lp838
ssS'damage'
p839
(dp840
I0
(lp841
sssS'basic_parameters'
p842
(dp843
S'delay_walk'
p844
I18
sS'life'
p845
I150
sS'walk_dist'
p846
I9
sS'capacity'
p847
I3
sS'name'
p848
VFahrzeug Transporter
p849
sS'transports'
p850
Vvehicle
p851
sS'shield_factor'
p852
F0.4
sS'attack_min'
p853
I0
sS'shield'
p854
I20
sS'delay_shoot'
p855
I15
sS'delay_in'
p856
I25
sg395
I300
sS'max_life'
p857
I150
sg116
I20
sS'delay_out'
p858
I15
sS'shoot_dist'
p859
I5
sS'num_enemies'
p860
I4
sS'elite'
p861
I0
sg402
I2
sg396
(dp862
Vmehr Platz
p863
(dp864
g392
I0
sg393
Vupgrade
p865
sg395
I50
sg396
(lp866
(dp867
g399
g400
sg401
g402
sg403
g404
sg405
I0
sg406
I0
sg407
(dp868
Vcapacity
p869
I2
ssasg412
I1
sssS'attack_max'
p870
I0
ssssS'unit_parameters'
p871
(dp872
I0
(dp873
S'elite_parameters'
p874
(dp875
S'ticks'
p876
(dp877
I1000
(lp878
(dp879
g722
g723
sg724
g725
sg726
g727
sg728
I0
sg729
I0
sg730
(dp880
Vlife
p881
I10
sVelite
p882
I1
ssasI500
(lp883
(dp884
g722
g723
sg724
g725
sg726
g727
sg728
I0
sg729
I0
sg730
(dp885
Vlife
p886
I10
sVelite
p887
I1
ssassS'damage'
p888
(dp889
I1000
(lp890
(dp891
S'target'
p892
S'self'
p893
sS'level'
p894
S'id'
p895
sS'type'
p896
S'change'
p897
sS'random'
p898
I0
sS'num_units'
p899
I0
sS'changes'
p900
(dp901
Vshoot_dist
p902
I2
sVmax_life
p903
I8
sVelite
p904
I1
sVattack_max
p905
I11
ssasI500
(lp906
(dp907
g722
g723
sg724
g725
sg726
g727
sg728
I0
sg729
I0
sg730
(dp908
Velite
p909
I1
sVattack_max
p910
I8
ssasI750
(lp911
(dp912
g892
g893
sg894
g895
sg896
g897
sg898
I0
sg899
I0
sg900
(dp913
Vattack_min
p914
I8
sVelite
p915
I1
sVattack_max
p916
I10
ssasssS'basic_parameters'
p917
(dp918
S'delay_walk'
p919
I15
sS'life'
p920
I50
sS'walk_dist'
p921
I5
sS'name'
p922
VSoldat
p923
sS'shield_factor'
p924
F0.5
sS'num_enemies'
p925
I4
sS'attack_min'
p926
I10
sS'delay_shoot'
p927
I15
sS'unit_type'
p928
Vsoldier
p929
sS'max_life'
p930
I50
sg116
I0
sS'attack_max'
p931
I20
sS'shoot_dist'
p932
I6
sS'price'
p933
I70
sS'elite'
p934
I0
sS'id'
p935
I0
sS'actions'
p936
(dp937
V3 HG
p938
(dp939
S'delay'
p940
I0
sS'category'
p941
Vequipment
p942
sg149
I70
sg159
(lp943
(dp944
S'target'
p945
S'self'
p946
sS'level'
p947
S'id'
p948
sS'type'
p949
S'change'
p950
sS'random'
p951
I0
sS'num_units'
p952
I0
sS'changes'
p953
(dp954
S'actions'
p955
(dp956
VHG
p957
(dp958
S'delay'
p959
I15
sS'category'
p960
Vstandard
p961
sS'price'
p962
I0
sg955
(lp963
(dp964
g945
Venemy
p965
sg947
Vid
p966
sg949
Vchange
p967
sg951
F0.3
sg952
I3
sg953
(dp968
Vlife
p969
I-10
ssasS'num_uses'
p970
I3
ssssasS'num_uses'
p971
I-1
ssVSchutzweste
p972
(dp973
g310
I0
sg311
Vupgrade
p974
sg305
I30
sg306
(lp975
(dp976
g315
g477
sg317
g376
sg319
g478
sg321
I0
sg322
I0
sg323
(dp977
Vmax_shield
p978
I10
sVshield
p979
I10
sg306
(dp980
VSchild & wenig heilen
p981
(dp982
g310
I0
sg311
Vupgrade
p983
sg305
I50
sg306
(lp984
(dp985
g315
g477
sg317
g376
sg319
g478
sg321
I0
sg322
I0
sg323
(dp986
Velite
p987
I1
sVlife
p988
I15
sVmax_life
p989
I6
sVmax_shield
p990
I15
sVshield
p991
I15
ssasg326
I1
ssssasg326
I1
ssVneue Munition
p992
(dp993
g940
I0
sg941
Vupgrade
p994
sg149
I20
sg159
(lp995
(dp996
S'target'
p997
S'self'
p998
sS'level'
p999
g158
sS'type'
p1000
S'change'
p1001
sS'random'
p1002
I0
sS'num_units'
p1003
I0
sS'changes'
p1004
(dp1005
Vattack_min
p1006
I5
sVattack_max
p1007
I5
sg159
(dp1008
VSchnellfeuer
p1009
(dp1010
g940
I0
sg941
Vupgrade
p1011
sg149
I30
sg159
(lp1012
(dp1013
g997
g998
sg999
g158
sg1000
g1001
sg1002
I0
sg1003
I0
sg1004
(dp1014
Vnum_enemies
p1015
I2
sVattack_min
p1016
I4
sVelite
p1017
I1
sVattack_max
p1018
I8
sS'actions'
p1019
(dp1020
VFlammenwerfer
p1021
(dp1022
g551
I0
sg552
Vupgrade
p1023
sg554
I40
sg555
(lp1024
(dp1025
g185
g558
sg189
g559
sg183
g560
sg561
I0
sg562
I0
sg563
(dp1026
Vnum_enemies
p1027
I4
sVattack_min
p1028
I10
sVelite
p1029
I1
sVattack_max
p1030
I10
ssasg570
I1
ssVSchildexperte
p1031
(dp1032
S'delay'
p1033
I0
sS'category'
p1034
Vupgrade
p1035
sS'price'
p1036
I0
sg1019
(lp1037
sS'num_uses'
p1038
I0
ssssasg971
I1
ssVSchildexperte
p1039
(dp1040
g940
I0
sg941
Vupgrade
p1041
sg149
I30
sg159
(lp1042
(dp1043
g997
g998
sg999
g158
sg1000
g1001
sg1002
I0
sg1003
I0
sg1004
(dp1044
Vshield_factor
p1045
F0.1
sVattack_min
p1046
I6
sVelite
p1047
I1
sVattack_max
p1048
I4
sg159
(dp1049
VSchnellfeuer
p1050
(dp1051
S'delay'
p1052
I0
sS'category'
p1053
Vupgrade
p1054
sS'price'
p1055
I0
sS'actions'
p1056
(lp1057
sS'num_uses'
p1058
I0
ssVPanzerbrecher
p1059
(dp1060
g551
I0
sg552
Vupgrade
p1061
sg554
I40
sg555
(lp1062
(dp1063
g185
g558
sg189
g559
sg183
g560
sg561
I0
sg562
I0
sg563
(dp1064
Vshield_factor
p1065
F0.2
sVattack_min
p1066
I4
sVelite
p1067
I1
sVattack_max
p1068
I10
ssasg570
I1
ssssasg971
I1
ssssasg971
I1
ssVneue Schuhe
p1069
(dp1070
g940
I0
sg941
Vupgrade
p1071
sg149
I20
sg159
(lp1072
(dp1073
g997
Vself
p1074
sg999
Vid
p1075
sg1000
Vchange
p1076
sg1002
F0.0
sg1003
F1.0
sg1004
(dp1077
Vdelay_walk
p1078
I-2
sVwalk_dist
p1079
I1
sVelite
p1080
I1
sg159
(dp1081
ssasg971
I1
sssS'shield'
p1082
I0
sssI1
(dp1083
g874
(dp1084
g876
(dp1085
I1000
(lp1086
(dp1087
g997
g998
sg999
g158
sg1000
g1001
sg1002
I0
sg1003
I0
sg1004
(dp1088
Vmax_shield
p1089
I10
sVwalk_dist
p1090
I1
sVelite
p1091
I1
sVshield
p1092
I10
ssassg888
(dp1093
I0
(lp1094
sssg917
(dp1095
g919
I15
sg920
I40
sg921
I5
sg922
VIngenieur
p1096
sg924
F0.4
sg925
I1
sg926
I3
sg927
I15
sg928
Vsoldier
p1097
sg930
I40
sg116
I0
sg931
I5
sg932
I2
sg933
I100
sg934
I0
sg935
I1
sg936
(dp1098
VBruecke bauen
p1099
(dp1100
S'delay'
p1101
I50
sS'category'
p1102
Vshop
p1103
sS'price'
p1104
I100
sS'actions'
p1105
(lp1106
(dp1107
S'target'
p1108
S'self'
p1109
sS'level'
p1110
S'id'
p1111
sS'type'
p1112
S'change'
p1113
sS'random'
p1114
I0
sS'num_units'
p1115
I0
sS'changes'
p1116
(dp1117
Vlife
p1118
I0
ssasS'num_uses'
p1119
I-1
ssVMG-Nest
p1120
(dp1121
S'delay'
p1122
I40
sS'category'
p1123
Vshop
p1124
sS'price'
p1125
I70
sS'actions'
p1126
(lp1127
(dp1128
g70
Vnew
p1129
sg66
Vown
p1130
sS'parameters'
p1131
I6
sg68
Vbuildings
p1132
sasS'num_uses'
p1133
I-1
ssVWerkstatt
p1134
(dp1135
g339
I60
sg340
Vshop
p1136
sg342
I700
sg343
(lp1137
(dp1138
g350
Vnew
p1139
sg346
Vown
p1140
sS'parameters'
p1141
I3
sg348
Vbuildings
p1142
sasg358
I-1
ssVFlugplatz
p1143
(dp1144
g438
I80
sg439
Vshop
p1145
sg441
I1000
sg442
(lp1146
(dp1147
S'type'
p1148
Vnew
p1149
sS'target'
p1150
Vown
p1151
sS'parameters'
p1152
I4
sS'level'
p1153
Vbuildings
p1154
sasg448
I-1
ssVLazarett
p1155
(dp1156
g438
I50
sg439
Vshop
p1157
sg441
I500
sg442
(lp1158
(dp1159
g1148
Vnew
p1160
sg1150
Vown
p1161
sg1152
I2
sg1153
Vbuildings
p1162
sasg448
I-1
ssVKaserne
p1163
(dp1164
g940
I60
sg941
Vshop
p1165
sg149
I600
sg159
(lp1166
(dp1167
g1000
Vnew
p1168
sg997
Vown
p1169
sS'parameters'
p1170
I1
sg999
Vbuildings
p1171
sasg971
I-1
ssVKampfingenieur
p1172
(dp1173
g216
I0
sg217
Vupgrade
p1174
sg219
I70
sg220
(lp1175
(dp1176
g201
g202
sg203
g204
sg205
g206
sg207
I0
sg208
I0
sg209
(dp1177
Vshield
p1178
I8
sVattack_min
p1179
I10
sg220
(dp1180
V4 Granaten
p1181
(dp1182
g216
I0
sg217
Vequipment
p1183
sg219
I70
sg220
(lp1184
(dp1185
g201
Vself
p1186
sg203
Vid
p1187
sg205
Vchange
p1188
sg207
F0.4
sg208
I3
sg209
(dp1189
g220
(dp1190
VGranate
p1191
(dp1192
g216
I10
sg217
Vstandard
p1193
sg219
I0
sg220
(lp1194
(dp1195
g201
Venemy
p1196
sg203
Vid
p1197
sg205
Vchange
p1198
sg207
F0.4
sg208
I3
sg209
(dp1199
Vlife
p1200
I-20
ssasg251
I4
ssssasg251
I-1
sssVmax_shield
p1201
I8
sVattack_max
p1202
I15
sVelite
p1203
I1
ssasg251
I1
sssg1082
I0
sssI2
(dp1204
g874
(dp1205
g876
(dp1206
I0
(lp1207
ssg888
(dp1208
I500
(lp1209
(dp1210
S'target'
p1211
S'self'
p1212
sS'level'
p1213
S'id'
p1214
sS'type'
p1215
S'change'
p1216
sS'random'
p1217
I0
sS'num_units'
p1218
I0
sS'changes'
p1219
(dp1220
Vattack_min
p1221
I10
sVelite
p1222
I1
sS'actions'
p1223
(dp1224
VSchusstraining
p1225
(dp1226
S'delay'
p1227
I0
sS'category'
p1228
Vupgrade
p1229
sS'price'
p1230
I40
sg1223
(lp1231
(dp1232
g261
g262
sg263
g264
sg265
g266
sg267
I0
sg268
I0
sg269
(dp1233
Vshoot_dist
p1234
I1
sVelite
p1235
I1
sVdelay_shoot
p1236
I-4
ssasS'num_uses'
p1237
I1
ssssasssg917
(dp1238
g919
I18
sg920
I80
sg921
I5
sg922
VMG-Soldat
p1239
sg924
F0.55
sg925
I10
sg926
I20
sg927
I20
sg928
Vsoldier
p1240
sg930
I80
sg116
I20
sg931
I60
sg932
I7
sg933
I175
sg934
I0
sg935
I2
sg936
(dp1241
Vbessere Munition
p1242
(dp1243
g216
I0
sg217
Vupgrade
p1244
sg219
I40
sg220
(lp1245
(dp1246
g201
g202
sg203
g204
sg205
g206
sg207
I0
sg208
I0
sg209
(dp1247
Vattack_min
p1248
I10
sVattack_max
p1249
I5
sg220
(dp1250
VPanzerbrecher
p1251
(dp1252
g216
I0
sg217
Vupgrade
p1253
sg219
I60
sg220
(lp1254
(dp1255
g201
g202
sg203
g204
sg205
g206
sg207
I0
sg208
I0
sg209
(dp1256
Vshield_factor
p1257
F0.1
sVelite
p1258
I1
sVattack_max
p1259
I15
sg220
(dp1260
VBazooka
p1261
(dp1262
g216
I0
sg217
Vupgrade
p1263
sg219
I80
sg220
(lp1264
(dp1265
g201
g202
sg203
g204
sg205
g206
sg207
I0
sg208
I0
sg209
(dp1266
Vshield_factor
p1267
F0.15
sVattack_min
p1268
I15
sVelite
p1269
I1
sVnum_enemies
p1270
I2
sVattack_max
p1271
I10
ssasg251
I1
ssssasg251
I1
ssssasg251
I1
ssVKampfausbildung
p1272
(dp1273
S'delay'
p1274
I0
sS'category'
p1275
Vupgrade
p1276
sS'price'
p1277
I40
sS'actions'
p1278
(lp1279
(dp1280
S'target'
p1281
S'self'
p1282
sS'level'
p1283
S'id'
p1284
sS'type'
p1285
S'change'
p1286
sS'random'
p1287
I0
sS'num_units'
p1288
I0
sS'changes'
p1289
(dp1290
Vshoot_dist
p1291
I1
sVelite
p1292
I1
sVdelay_shoot
p1293
I-5
ssasS'num_uses'
p1294
I1
ssVSpeed I
p1295
(dp1296
g438
I0
sg439
Vupgrade
p1297
sg441
I40
sg442
(lp1298
(dp1299
g201
g202
sg203
g204
sg205
g206
sg207
I0
sg208
I0
sg209
(dp1300
Vdelay_walk
p1301
I-5
sVelite
p1302
I1
sg220
(dp1303
VSpeed II
p1304
(dp1305
g216
I0
sg217
Vupgrade
p1306
sg219
I50
sg220
(lp1307
(dp1308
g201
g202
sg203
g204
sg205
g206
sg207
I0
sg208
I0
sg209
(dp1309
Vdelay_walk
p1310
I-5
sVwalk_dist
p1311
I1
sVelite
p1312
I1
sVdelay_shoot
p1313
I-3
ssasg251
I1
ssssasg448
I1
sssg1082
I20
sssI3
(dp1314
g874
(dp1315
g876
(dp1316
I200
(lp1317
(dp1318
g170
g171
sg172
g173
sg174
g175
sg176
I0
sg177
I0
sg178
(dp1319
Vmax_shield
p1320
I8
sVattack_min
p1321
I5
sVelite
p1322
I1
sVshield
p1323
I8
ssasI500
(lp1324
(dp1325
g170
g171
sg172
g173
sg174
g175
sg176
I0
sg177
I0
sg178
(dp1326
Vshield_factor
p1327
F0.07
sVattack_min
p1328
I8
sVelite
p1329
I1
sVattack_max
p1330
I14
ssassg888
(dp1331
I0
(lp1332
sI250
(lp1333
(dp1334
g346
g347
sg348
g349
sg350
g351
sg352
I0
sg353
I0
sg354
(dp1335
Vattack_min
p1336
I8
sVelite
p1337
I1
sVattack_max
p1338
I8
sg343
(dp1339
Vschneller laden
p1340
(dp1341
g339
I0
sg340
Vupgrade
p1342
sg342
I40
sg343
(lp1343
(dp1344
g346
g347
sg348
g349
sg350
g351
sg352
I0
sg353
I0
sg354
(dp1345
Vdelay_shoot
p1346
I-4
ssasg358
I1
ssssasssg917
(dp1347
g919
I15
sg920
I50
sg921
I5
sg922
VSniper
p1348
sg924
F0.6
sg925
I1
sg926
I40
sg927
I20
sg928
Vsoldier
p1349
sg930
I50
sg116
I0
sg931
I60
sg932
I10
sg933
I200
sg934
I0
sg935
I3
sg936
(dp1350
VSchutzweste
p1351
(dp1352
g163
I0
sg164
Vupgrade
p1353
sg166
I30
sg167
(lp1354
(dp1355
g170
g171
sg172
g173
sg174
g175
sg176
I0
sg177
I0
sg178
(dp1356
Vmax_shield
p1357
I10
sVshield
p1358
I10
ssasg191
I1
ssVSpeed I (ziehen und laden)
p1359
(dp1360
g163
I0
sg164
Vupgrade
p1361
sg166
I30
sg167
(lp1362
(dp1363
g170
g171
sg172
g173
sg174
g175
sg176
I0
sg177
I0
sg178
(dp1364
Vwalk_dist
p1365
I1
sVelite
p1366
I1
sVdelay_shoot
p1367
I-2
ssasg191
I1
ssVhoehere Schussweite
p1368
(dp1369
S'delay'
p1370
I0
sS'category'
p1371
Vupgrade
p1372
sS'price'
p1373
I40
sg607
(lp1374
(dp1375
S'target'
p1376
S'self'
p1377
sS'level'
p1378
S'id'
p1379
sS'type'
p1380
S'change'
p1381
sS'random'
p1382
I0
sS'num_units'
p1383
I0
sS'changes'
p1384
(dp1385
Vshoot_dist
p1386
I1
sVelite
p1387
I1
sg607
(dp1388
VDistanzexperte
p1389
(dp1390
g1370
I0
sg1371
Vupgrade
p1391
sg1373
I50
sg607
(lp1392
(dp1393
g1376
g1377
sg1378
g1379
sg1380
g1381
sg1382
I0
sg1383
I0
sg1384
(dp1394
Vshoot_dist
p1395
I1
sVattack_min
p1396
I8
sVelite
p1397
I1
sg607
(dp1398
ssasS'num_uses'
p1399
I1
ssssasg1399
I1
ssVPraezision
p1400
(dp1401
S'delay'
p1402
I0
sS'category'
p1403
Vupgrade
p1404
sS'price'
p1405
I30
sg483
(lp1406
(dp1407
S'target'
p1408
S'self'
p1409
sS'level'
p1410
S'id'
p1411
sS'type'
p1412
S'change'
p1413
sS'random'
p1414
I0
sS'num_units'
p1415
I0
sS'changes'
p1416
(dp1417
Vattack_min
p1418
I15
sVelite
p1419
I1
sVattack_max
p1420
I8
sg343
(dp1421
Vbessere Munition
p1422
(dp1423
g339
I0
sg340
Vupgrade
p1424
sg342
I40
sg343
(lp1425
(dp1426
g346
g347
sg348
g349
sg350
g351
sg352
I0
sg353
I0
sg354
(dp1427
Vshield_factor
p1428
F0.05
sVattack_min
p1429
I15
sVelite
p1430
I1
sVattack_max
p1431
I10
sg343
(dp1432
VSchildzerstoerer
p1433
(dp1434
g339
I0
sg340
Vupgrade
p1435
sg342
I30
sg343
(lp1436
(dp1437
g346
g347
sg348
g349
sg350
g351
sg352
I0
sg353
I0
sg354
(dp1438
Vshield_factor
p1439
F0.2
sVelite
p1440
I1
sVattack_max
p1441
I8
sg258
(dp1442
VDoppelschuss
p1443
(dp1444
g254
I0
sg255
Vupgrade
p1445
sg257
I0
sg258
(lp1446
sg280
I0
ssssasg358
I1
ssssasg358
I1
ssVDoppelschuss
p1447
(dp1448
g1370
I0
sg1371
Vupgrade
p1449
sg1373
I60
sg607
(lp1450
(dp1451
g1376
g1377
sg1378
g1379
sg1380
g1381
sg1382
I0
sg1383
I0
sg1384
(dp1452
Vnum_enemies
p1453
I1
sVattack_min
p1454
I8
sVelite
p1455
I1
sVattack_max
p1456
I15
sg258
(dp1457
VSchildzerstoerer
p1458
(dp1459
g254
I0
sg255
Vupgrade
p1460
sg257
I0
sg258
(lp1461
sg280
I0
ssssasg1399
I1
ssssasS'num_uses'
p1462
I1
sssg1082
I0
sssI4
(dp1463
g874
(dp1464
g876
(dp1465
I0
(lp1466
sI200
(lp1467
(dp1468
g170
g171
sg172
g173
sg174
g175
sg176
I0
sg177
I0
sg178
(dp1469
Vdelay_walk
p1470
I-2
sVelite
p1471
I1
sVdelay_shoot
p1472
I-3
ssasI450
(lp1473
(dp1474
g170
g171
sg172
g173
sg174
g175
sg176
I0
sg177
I0
sg178
(dp1475
Vdelay_walk
p1476
I-3
sVelite
p1477
I1
sVshield
p1478
I30
sVmax_shield
p1479
I15
ssassg888
(dp1480
I500
(lp1481
(dp1482
g170
g171
sg172
g173
sg174
g175
sg176
I0
sg177
I0
sg178
(dp1483
Vshield_factor
p1484
F0.07
sVattack_min
p1485
I10
sVelite
p1486
I1
sVattack_max
p1487
I5
ssasssg917
(dp1488
g919
I18
sg920
I100
sg921
I5
sg922
VPanzer
p1489
sg924
F0.6
sg925
I8
sg926
I50
sg927
I18
sg928
Vvehicle
p1490
sg930
I100
sg116
I100
sg931
I90
sg932
I7
sg933
I400
sg934
I0
sg935
I4
sg936
(dp1491
VShottpanzerung
p1492
(dp1493
g551
I0
sg552
Vupgrade
p1494
sg554
I70
sg555
(lp1495
(dp1496
g185
g558
sg189
g559
sg183
g560
sg561
I0
sg562
I0
sg563
(dp1497
Vdelay_walk
p1498
I3
sVelite
p1499
I1
sVshield
p1500
I50
sg555
(dp1501
VVerbundpanzerung
p1502
(dp1503
g551
I0
sg552
Vupgrade
p1504
sg554
I40
sg555
(lp1505
(dp1506
g185
g558
sg189
g559
sg183
g560
sg561
I0
sg562
I0
sg563
(dp1507
Vdelay_walk
p1508
I-3
sVlife
p1509
I10
sVelite
p1510
I1
sVshield
p1511
I25
sVmax_shield
p1512
I15
ssasg570
I1
sssVmax_shield
p1513
I30
ssasg570
I1
ssVHartkernmunition
p1514
(dp1515
S'delay'
p1516
I0
sS'category'
p1517
Vupgrade
p1518
sS'price'
p1519
I30
sS'actions'
p1520
(lp1521
(dp1522
S'target'
p1523
Vself
p1524
sS'level'
p1525
Vid
p1526
sS'type'
p1527
Vchange
p1528
sS'random'
p1529
F0.0
sS'num_units'
p1530
I0
sS'changes'
p1531
(dp1532
Vshield_factor
p1533
F0.15
sVelite
p1534
I1
sVattack_max
p1535
I8
sS'actions'
p1536
(dp1537
VUrangeschoss
p1538
(dp1539
S'delay'
p1540
I0
sS'category'
p1541
Vupgrade
p1542
sS'price'
p1543
I80
sg1536
(lp1544
(dp1545
S'target'
p1546
Vself
p1547
sS'level'
p1548
Vid
p1549
sS'type'
p1550
Vchange
p1551
sS'random'
p1552
F0.0
sS'num_units'
p1553
I0
sS'changes'
p1554
(dp1555
Vshield_factor
p1556
F0.2
sVattack_min
p1557
I15
sVelite
p1558
I1
sVattack_max
p1559
I15
ssasS'num_uses'
p1560
I1
ssssasS'num_uses'
p1561
I1
ssVSpeed I
p1562
(dp1563
g438
I0
sg439
Vupgrade
p1564
sg441
I20
sg442
(lp1565
(dp1566
g1523
S'self'
p1567
sg1525
S'id'
p1568
sg1527
S'change'
p1569
sg1529
I0
sg1530
I0
sg1531
(dp1570
Vdelay_walk
p1571
I-2
sg1520
(dp1572
VSpeed II
p1573
(dp1574
g1516
I0
sg1517
Vupgrade
p1575
sg1519
I40
sg1520
(lp1576
(dp1577
g1523
g1567
sg1525
g1568
sg1527
g1569
sg1529
I0
sg1530
I0
sg1531
(dp1578
Vdelay_walk
p1579
I-2
sVwalk_dist
p1580
I1
sVelite
p1581
I1
ssasg1561
I1
ssssasg448
I1
sssg1082
I100
sssI5
(dp1582
g874
(dp1583
g876
(dp1584
I0
(lp1585
sI500
(lp1586
(dp1587
S'target'
p1588
S'self'
p1589
sS'level'
p1590
S'id'
p1591
sS'type'
p1592
S'change'
p1593
sS'random'
p1594
I0
sS'num_units'
p1595
I0
sS'changes'
p1596
(dp1597
Vmax_life
p1598
I10
sVelite
p1599
I1
ssassg888
(dp1600
I0
(lp1601
sssg917
(dp1602
g919
I15
sg920
I100
sg921
I5
sg922
VArtillerie
p1603
sg924
F0.5
sg925
I10
sg926
I0
sg927
I35
sg928
Vvehicle
p1604
sg930
I100
sg116
I70
sg931
I0
sg932
I10
sg933
I600
sg934
I0
sg935
I5
sg936
(dp1605
Vgroessere Schussweite I
p1606
(dp1607
g1516
I0
sg1517
Vupgrade
p1608
sg1519
I40
sg1520
(lp1609
(dp1610
g1523
g1567
sg1525
g1568
sg1527
g1569
sg1529
I0
sg1530
I0
sg1531
(dp1611
Vshoot_dist
p1612
I1
sVelite
p1613
I1
sg419
(dp1614
Vgroessere Schussweite II
p1615
(dp1616
g415
I0
sg416
Vupgrade
p1617
sg418
I50
sg419
(lp1618
(dp1619
g422
g423
sg424
g425
sg426
g427
sg428
I0
sg429
I0
sg430
(dp1620
Vshoot_dist
p1621
I1
sVelite
p1622
I1
ssasg435
I1
ssVStreuung erhoehen
p1623
(dp1624
g415
I0
sg416
Vupgrade
p1625
sg418
I40
sg419
(lp1626
(dp1627
g422
g423
sg424
g425
sg426
g427
sg428
I0
sg429
I0
sg430
(dp1628
Vnum_enemies
p1629
I5
sVattack_min
p1630
I15
sVelite
p1631
I1
ssasg435
I1
ssssasg1561
I1
ssVAufbauen
p1632
(dp1633
S'delay'
p1634
I25
sS'category'
p1635
Vstandard
p1636
sS'price'
p1637
I0
sS'actions'
p1638
(lp1639
(dp1640
S'target'
p1641
S'self'
p1642
sS'level'
p1643
S'id'
p1644
sS'type'
p1645
S'change'
p1646
sS'random'
p1647
I0
sS'num_units'
p1648
I0
sS'changes'
p1649
(dp1650
Vwalk_dist
p1651
I-5
sVattack_min
p1652
I100
sVattack_max
p1653
I200
sg1638
(dp1654
VTransport
p1655
(dp1656
S'delay'
p1657
I30
sS'category'
p1658
Vequipment
p1659
sS'price'
p1660
I0
sS'actions'
p1661
(lp1662
(dp1663
S'target'
p1664
S'self'
p1665
sS'level'
p1666
S'id'
p1667
sS'type'
p1668
S'change'
p1669
sS'random'
p1670
I0
sS'num_units'
p1671
I0
sS'changes'
p1672
(dp1673
Vwalk_dist
p1674
I5
sVattack_min
p1675
I-100
sVattack_max
p1676
I-200
sg1661
(dp1677
VAufbau
p1678
(dp1679
g1657
I25
sg1658
Vstandard
p1680
sg1660
I0
sg1661
(lp1681
(dp1682
g1664
g1665
sg1666
g1667
sg1668
g1669
sg1670
I0
sg1671
I0
sg1672
(dp1683
Vattack_min
p1684
I100
sVattack_max
p1685
I200
sVwalk_dist
p1686
I-5
ssasS'num_uses'
p1687
I1
ssssasg1687
I-1
ssssasS'num_uses'
p1688
I1
ssVSpeed I
p1689
(dp1690
g438
I0
sg439
Vupgrade
p1691
sg441
I80
sg442
(lp1692
(dp1693
g422
g423
sg424
g425
sg426
g427
sg428
I0
sg429
I0
sg430
(dp1694
Vdelay_walk
p1695
I-4
sVelite
p1696
I1
sg419
(dp1697
VSpeed II
p1698
(dp1699
g415
I0
sg416
Vupgrade
p1700
sg418
I50
sg419
(lp1701
(dp1702
g422
g423
sg424
g425
sg426
g427
sg428
I0
sg429
I0
sg430
(dp1703
Vdelay_walk
p1704
I-2
sVelite
p1705
I1
sVdelay_shoot
p1706
I-8
ssasg435
I1
sssVdelay_shoot
p1707
I-8
ssasg448
I1
sssg1082
I70
sssI6
(dp1708
S'elite_parameters'
p1709
(dp1710
S'ticks'
p1711
(dp1712
I200
(lp1713
(dp1714
g170
g171
sg172
g173
sg174
g175
sg176
I0
sg177
I0
sg178
(dp1715
Vlife
p1716
I100
sVmax_life
p1717
I8
sVelite
p1718
I1
ssasI500
(lp1719
(dp1720
g170
g171
sg172
g173
sg174
g175
sg176
I0
sg177
I0
sg178
(dp1721
Vmax_shield
p1722
I8
sVlife
p1723
I100
sVmax_life
p1724
I10
sVelite
p1725
I1
sVshield
p1726
I15
ssassS'damage'
p1727
(dp1728
I0
(lp1729
sssS'basic_parameters'
p1730
(dp1731
S'delay_walk'
p1732
I15
sS'life'
p1733
I50
sS'walk_dist'
p1734
I5
sS'name'
p1735
VArzt
p1736
sS'shield_factor'
p1737
F0.4
sS'num_enemies'
p1738
I3
sS'attack_min'
p1739
I0
sS'delay_shoot'
p1740
I15
sS'unit_type'
p1741
Vsoldier
p1742
sS'max_life'
p1743
I50
sg116
I10
sS'attack_max'
p1744
I0
sS'shoot_dist'
p1745
I5
sg1230
I120
sS'elite'
p1746
I0
sg1214
I6
sg1223
(dp1747
VMedipack
p1748
(dp1749
g339
I0
sg340
Vshop
p1750
sg342
I60
sg343
(lp1751
(dp1752
g346
g347
sg348
g349
sg350
g351
sg352
I0
sg353
I0
sg354
(dp1753
g343
(dp1754
VSchmerzmittel
p1755
(dp1756
g339
I0
sg340
Vstandard
p1757
sg342
I0
sg343
(lp1758
(dp1759
g346
Vself
p1760
sg348
Vid
p1761
sg350
Vchange
p1762
sg352
F0.3
sg353
I0
sg354
(dp1763
Vlife
p1764
I30
ssasg358
I2
ssssasg358
I-1
ssVSchild-Mech
p1765
(dp1766
g339
I0
sg340
Vupgrade
p1767
sg342
I80
sg343
(lp1768
(dp1769
S'target'
p1770
S'self'
p1771
sS'level'
p1772
S'id'
p1773
sS'type'
p1774
S'change'
p1775
sS'random'
p1776
I0
sS'num_units'
p1777
I0
sS'changes'
p1778
(dp1779
S'actions'
p1780
(dp1781
VSchild reparieren
p1782
(dp1783
S'delay'
p1784
I20
sS'category'
p1785
Vstandard
p1786
sS'price'
p1787
I50
sg1780
(lp1788
(dp1789
g1770
Vown
p1790
sg1772
Vid
p1791
sg1774
Vchange
p1792
sg1776
F0.3
sg1777
I1
sg1778
(dp1793
Vshield
p1794
I10
ssasS'num_uses'
p1795
I-1
ssssasg358
I1
ssVFeldapotheke (andere)
p1796
(dp1797
g339
I0
sg340
Vshop
p1798
sg342
I60
sg343
(lp1799
(dp1800
g346
Vself
p1801
sg348
Vid
p1802
sg350
Vchange
p1803
sg352
F0.0
sg353
I0
sg354
(dp1804
g343
(dp1805
VPflaster
p1806
(dp1807
g339
I0
sg340
Vstandard
p1808
sg342
I0
sg343
(lp1809
(dp1810
g346
Vown
p1811
sg348
Vid
p1812
sg350
Vchange
p1813
sg352
F0.3
sg353
I1
sg354
(dp1814
Vlife
p1815
I10
ssasg358
I3
ssssasg358
I-1
ssVSpeed I
p1816
(dp1817
g339
I0
sg340
Vupgrade
p1818
sg342
I30
sg343
(lp1819
(dp1820
g346
g347
sg348
g349
sg350
g351
sg352
I0
sg353
I0
sg354
(dp1821
Vwalk_dist
p1822
I1
sVelite
p1823
I1
sg343
(dp1824
VSpeed II
p1825
(dp1826
g339
I0
sg340
Vupgrade
p1827
sg342
I50
sg343
(lp1828
(dp1829
g346
g347
sg348
g349
sg350
g351
sg352
I0
sg353
I0
sg354
(dp1830
Vdelay_walk
p1831
I-4
sVwalk_dist
p1832
I2
sVelite
p1833
I1
ssasg358
I1
ssssasg358
I1
sssS'shield'
p1834
I10
sssI7
(dp1835
S'elite_parameters'
p1836
(dp1837
S'ticks'
p1838
(dp1839
I0
(lp1840
ssS'damage'
p1841
(dp1842
I0
(lp1843
sssS'basic_parameters'
p1844
(dp1845
S'delay_walk'
p1846
I15
sS'life'
p1847
I60
sS'walk_dist'
p1848
I5
sS'name'
p1849
VCyborg
p1850
sS'shield_factor'
p1851
F0.6
sS'num_enemies'
p1852
I5
sS'attack_min'
p1853
I20
sS'delay_shoot'
p1854
I15
sS'unit_type'
p1855
Vsoldier
p1856
sS'max_life'
p1857
I60
sg116
I40
sS'attack_max'
p1858
I35
sS'shoot_dist'
p1859
I7
sg166
I120
sS'elite'
p1860
I0
sg173
I7
sg167
(dp1861
VSpeed I
p1862
(dp1863
S'delay'
p1864
I0
sS'category'
p1865
S'upgrade'
p1866
sS'price'
p1867
I0
sS'actions'
p1868
(lp1869
sS'num_uses'
p1870
I-1
sssS'shield'
p1871
I40
sssI8
(dp1872
S'elite_parameters'
p1873
(dp1874
S'ticks'
p1875
(dp1876
I0
(lp1877
sI250
(lp1878
(dp1879
S'target'
p1880
S'self'
p1881
sS'level'
p1882
S'id'
p1883
sS'type'
p1884
S'change'
p1885
sS'random'
p1886
I0
sS'num_units'
p1887
I0
sS'changes'
p1888
(dp1889
Vmax_shield
p1890
I5
sVlife
p1891
I20
sVelite
p1892
I1
sVshield
p1893
I10
ssasI500
(lp1894
(dp1895
g1880
g1881
sg1882
g1883
sg1884
g1885
sg1886
I0
sg1887
I0
sg1888
(dp1896
Vmax_shield
p1897
I5
sVlife
p1898
I100
sVmax_life
p1899
I10
sVelite
p1900
I1
sVshield
p1901
I20
ssassS'damage'
p1902
(dp1903
I0
(lp1904
sI500
(lp1905
sssS'basic_parameters'
p1906
(dp1907
S'delay_walk'
p1908
I15
sS'life'
p1909
I70
sS'walk_dist'
p1910
I5
sS'name'
p1911
VKommandant
p1912
sS'shield_factor'
p1913
F0.6
sS'num_enemies'
p1914
I4
sS'attack_min'
p1915
I20
sS'delay_shoot'
p1916
I15
sS'unit_type'
p1917
Vsoldier
p1918
sS'max_life'
p1919
I70
sg116
I10
sS'attack_max'
p1920
I30
sS'shoot_dist'
p1921
I6
sg1125
I250
sS'elite'
p1922
I4
sg69
I8
sg1126
(dp1923
VLuftunterstuetzung
p1924
(dp1925
g1122
I40
sg1123
Vstandard
p1926
sg1125
I150
sg1126
(lp1927
(dp1928
g66
Venemy
p1929
sg68
Vid
p1930
sg70
Vchange
p1931
sg72
F0.6
sg73
I7
sg74
(dp1932
Vlife
p1933
I-17
sVshield
p1934
I-12
ssasg1133
I-1
ssVDrill Sergent
p1935
(dp1936
S'delay'
p1937
I0
sS'category'
p1938
Vupgrade
p1939
sS'price'
p1940
I100
sS'actions'
p1941
(lp1942
(dp1943
S'target'
p1944
Vown
p1945
sS'level'
p1946
Vid
p1947
sS'type'
p1948
Vchange
p1949
sS'random'
p1950
F0.0
sS'num_units'
p1951
I0
sS'changes'
p1952
(dp1953
Vattack_min
p1954
I10
sVattack_max
p1955
I8
sVdelay_shoot
p1956
I-3
ssasS'num_uses'
p1957
I-1
ssVFallschirmspringer
p1958
(dp1959
g1033
I20
sg1034
Vupgrade
p1960
sg1036
I450
sg1019
(lp1961
(dp1962
g42
Vnew
p1963
sg38
Vown
p1964
sg53
(lp1965
I0
aI0
aI2
asg40
Vgroups
p1966
sasg1038
I-1
ssVSpionageausbildung
p1967
(dp1968
S'delay'
p1969
I0
sS'category'
p1970
Vupgrade
p1971
sS'price'
p1972
I170
sS'actions'
p1973
(lp1974
(dp1975
S'target'
p1976
S'self'
p1977
sS'level'
p1978
S'id'
p1979
sS'type'
p1980
S'change'
p1981
sS'random'
p1982
I0
sS'num_units'
p1983
I0
sS'changes'
p1984
(dp1985
Velite
p1986
I1
sg1973
(dp1987
VWirtschafts-Spionage
p1988
(dp1989
g1969
I40
sg1970
Vupgrade
p1990
sg1972
I80
sg1973
(lp1991
(dp1992
g1976
g1977
sg1978
g1979
sg1980
g1981
sg1982
I0
sg1983
I0
sg1984
(dp1993
g1973
(dp1994
VDieb
p1995
(dp1996
g1969
I60
sg1970
Vequipment
p1997
sg1972
I200
sg1973
(lp1998
(dp1999
g1984
(dp2000
Vaccount
p2001
I-150
ssg1982
F0.5
sg1980
Vchange
p2002
sg1976
Venemy
p2003
sg1978
Vplayer
p2004
sa(dp2005
g1984
(dp2006
Vaccount
p2007
I80
ssg1982
F0.7
sg1980
Vchange
p2008
sg1976
Vown
p2009
sg1978
Vplayer
p2010
sasS'num_uses'
p2011
I-1
ssssasg2011
I-1
ssVID-Spionage
p2012
(dp2013
g1969
I40
sg1970
Vequipment
p2014
sg1972
I70
sg1973
(lp2015
sg2011
I-1
ssssasg2011
I1
sssS'shield'
p2016
I10
sssI9
(dp2017
S'elite_parameters'
p2018
(dp2019
S'ticks'
p2020
(dp2021
I0
(lp2022
ssS'damage'
p2023
(dp2024
I0
(lp2025
sssS'basic_parameters'
p2026
(dp2027
S'delay_walk'
p2028
I0
sS'life'
p2029
I100
sS'walk_dist'
p2030
I0
sS'name'
p2031
VFlak
p2032
sS'shield_factor'
p2033
F0.6
sS'num_enemies'
p2034
I3
sS'attack_min'
p2035
I60
sS'delay_shoot'
p2036
I15
sS'unit_type'
p2037
Vvehicle
p2038
sS'max_life'
p2039
I100
sg116
I0
sS'attack_max'
p2040
I80
sS'shoot_dist'
p2041
I5
sS'price'
p2042
I200
sS'elite'
p2043
I0
sS'id'
p2044
I9
sS'actions'
p2045
(dp2046
Vnix
p2047
(dp2048
S'delay'
p2049
I0
sS'category'
p2050
S'upgrade'
p2051
sg2042
I0
sg2045
(lp2052
sS'num_uses'
p2053
I-1
sssS'shield'
p2054
I0
sssI10
(dp2055
S'elite_parameters'
p2056
(dp2057
S'ticks'
p2058
(dp2059
I0
(lp2060
ssS'damage'
p2061
(dp2062
I0
(lp2063
sssS'basic_parameters'
p2064
(dp2065
S'delay_walk'
p2066
I11
sS'life'
p2067
I40
sS'walk_dist'
p2068
I6
sS'name'
p2069
VMotorrad
p2070
sS'shield_factor'
p2071
F0.45
sS'num_enemies'
p2072
I4
sS'attack_min'
p2073
I5
sS'delay_shoot'
p2074
I15
sS'unit_type'
p2075
Vvehicle
p2076
sS'max_life'
p2077
I40
sg116
I0
sS'attack_max'
p2078
I10
sS'shoot_dist'
p2079
I5
sg1940
I40
sS'elite'
p2080
I0
sS'id'
p2081
I10
sg1941
(dp2082
VSchutzweste
p2083
(dp2084
g1937
I0
sg1938
Vupgrade
p2085
sg1940
I30
sg1941
(lp2086
(dp2087
g1944
S'self'
p2088
sg1946
g2081
sg1948
S'change'
p2089
sg1950
I0
sg1951
I0
sg1952
(dp2090
Vmax_shield
p2091
I8
sVshield
p2092
I8
ssasg1957
I1
ssVneue Reifen
p2093
(dp2094
g1937
I0
sg1938
Vupgrade
p2095
sg1940
I20
sg1941
(lp2096
(dp2097
g1944
g2088
sg1946
g2081
sg1948
g2089
sg1950
I0
sg1951
I0
sg1952
(dp2098
Vwalk_dist
p2099
I1
sVelite
p2100
I1
sg1941
(dp2101
Vleichteres Motorrad
p2102
(dp2103
g1937
I0
sg1938
Vupgrade
p2104
sg1940
I30
sg1941
(lp2105
(dp2106
g1944
g2088
sg1946
g2081
sg1948
g2089
sg1950
I0
sg1951
I0
sg1952
(dp2107
Vdelay_walk
p2108
I-1
sVwalk_dist
p2109
I1
sVelite
p2110
I1
ssasg1957
I1
ssssasg1957
I1
ssVDrive by lernen
p2111
(dp2112
g1937
I0
sg1938
Vupgrade
p2113
sg1940
I30
sg1941
(lp2114
(dp2115
g1944
g2088
sg1946
g2081
sg1948
g2089
sg1950
I0
sg1951
I0
sg1952
(dp2116
Vattack_min
p2117
I7
sVelite
p2118
I1
sVattack_max
p2119
I5
ssasg1957
I1
sssS'shield'
p2120
I0
sssI11
(dp2121
S'elite_parameters'
p2122
(dp2123
S'ticks'
p2124
(dp2125
I0
(lp2126
ssS'damage'
p2127
(dp2128
I0
(lp2129
sssS'basic_parameters'
p2130
(dp2131
S'delay_walk'
p2132
I18
sS'life'
p2133
I80
sS'walk_dist'
p2134
I5
sS'name'
p2135
VJavelin
p2136
sS'shield_factor'
p2137
F2.5
sS'num_enemies'
p2138
I2
sS'attack_min'
p2139
I8
sS'delay_shoot'
p2140
I20
sS'unit_type'
p2141
Vsoldier
p2142
sS'max_life'
p2143
I80
sg116
I50
sS'attack_max'
p2144
I12
sS'shoot_dist'
p2145
I9
sg1277
I200
sS'elite'
p2146
I0
sg1284
I11
sg1278
(dp2147
Vschneller ziehen
p2148
(dp2149
g254
I0
sg255
Vupgrade
p2150
sg257
I30
sg258
(lp2151
(dp2152
g261
g262
sg263
g264
sg265
g266
sg267
I0
sg268
I0
sg269
(dp2153
Vdelay_walk
p2154
I-3
sVelite
p2155
I1
ssasg280
I1
ssVschneller laden
p2156
(dp2157
S'delay'
p2158
I0
sS'category'
p2159
Vupgrade
p2160
sS'price'
p2161
I40
sS'actions'
p2162
(lp2163
(dp2164
S'target'
p2165
S'self'
p2166
sS'level'
p2167
S'id'
p2168
sS'type'
p2169
S'change'
p2170
sS'random'
p2171
I0
sS'num_units'
p2172
I0
sS'changes'
p2173
(dp2174
Velite
p2175
I1
sVdelay_shoot
p2176
I-4
ssasS'num_uses'
p2177
I1
ssVgroessere Sprengkraft
p2178
(dp2179
g2158
I0
sg2159
Vupgrade
p2180
sg2161
I30
sg2162
(lp2181
(dp2182
g2165
g2166
sg2167
g2168
sg2169
g2170
sg2171
I0
sg2172
I0
sg2173
(dp2183
Vnum_enemies
p2184
I2
sVattack_min
p2185
I2
sVelite
p2186
I1
sVattack_max
p2187
I3
sg2162
(dp2188
Vneue Sprengtechnologie
p2189
(dp2190
g2158
I0
sg2159
Vupgrade
p2191
sg2161
I40
sg2162
(lp2192
(dp2193
g2165
g2166
sg2167
g2168
sg2169
g2170
sg2171
I0
sg2172
I0
sg2173
(dp2194
Vshield_factor
p2195
F0.4
sVelite
p2196
I1
ssasg2177
I1
ssssasg2177
I1
sssS'shield'
p2197
I50
ssss.