(dp0
S'building_parameters'
p1
(dp2
I0
(dp3
S'elite_parameters'
p4
(dp5
S'ticks'
p6
(dp7
I0
(lp8
sI150
(lp9
(dp10
S'target'
p11
S'self'
p12
sS'level'
p13
S'id'
p14
sS'type'
p15
S'change'
p16
sS'random'
p17
I0
sS'num_units'
p18
I0
sS'changes'
p19
(dp20
S'actions'
p21
(dp22
VWerkstatt bauen
p23
(dp24
S'delay'
p25
I0
sS'category'
p26
Vshop
p27
sS'price'
p28
I600
sg21
(lp29
(dp30
g15
Vnew
p31
sg11
Vown
p32
sS'parameters'
p33
I3
sg13
Vbuildings
p34
sasS'num_uses'
p35
I-1
ssssassS'damage'
p36
(dp37
I0
(lp38
sssS'basic_parameters'
p39
(dp40
S'shop_units'
p41
(lp42
I1
aI10
asS'life'
p43
I800
sS'shop_transporter'
p44
(lp45
I0
asS'capacity'
p46
I25
sS'name'
p47
VHauptquartier
p48
sS'shield_factor'
p49
F0.4
sS'attack_min'
p50
I0
sS'delay_shoot'
p51
I15
sS'delay_in'
p52
I20
sS'price'
p53
I1000
sS'max_life'
p54
I800
sS'max_shield'
p55
I100
sS'delay_out'
p56
I10
sS'attack_max'
p57
I0
sS'enter'
p58
Vsoldier
p59
sS'shoot_dist'
p60
I6
sS'num_enemies'
p61
I4
sS'elite'
p62
I0
sS'id'
p63
I0
sS'actions'
p64
(dp65
VArzneistudium +
p66
(dp67
S'delay'
p68
I0
sS'category'
p69
Vupgrade
p70
sS'price'
p71
I400
sS'actions'
p72
(lp73
(dp74
S'target'
p75
S'self'
p76
sS'level'
p77
S'id'
p78
sS'type'
p79
S'change'
p80
sS'random'
p81
I0
sS'num_units'
p82
I0
sS'changes'
p83
(dp84
Vshop_units
p85
(lp86
I6
assa(dp87
g79
Vnew
p88
sg75
Vown
p89
sS'parameters'
p90
(lp91
I6
asg77
Vgroups
p92
sasS'num_uses'
p93
I1
ssVKommandant +
p94
(dp95
S'delay'
p96
I0
sS'category'
p97
Vupgrade
p98
sS'price'
p99
I500
sS'actions'
p100
(lp101
(dp102
S'target'
p103
S'self'
p104
sS'level'
p105
S'id'
p106
sS'type'
p107
S'change'
p108
sS'random'
p109
I0
sS'num_units'
p110
I0
sS'changes'
p111
(dp112
Vshop_units
p113
(lp114
I8
assa(dp115
S'type'
p116
Vnew
p117
sS'target'
p118
Vown
p119
sS'parameters'
p120
(lp121
I8
asS'level'
p122
Vgroups
p123
sasS'num_uses'
p124
I1
ssVHelikopter-Plattform +
p125
(dp126
S'delay'
p127
I0
sS'category'
p128
Vupgrade
p129
sS'price'
p130
I400
sS'actions'
p131
(lp132
(dp133
S'target'
p134
S'self'
p135
sS'level'
p136
S'id'
p137
sS'type'
p138
S'change'
p139
sS'random'
p140
I0
sS'num_units'
p141
I0
sS'changes'
p142
(dp143
Vshop_transporter
p144
(lp145
I1
assa(dp146
g138
Vnew
p147
sg134
Vown
p148
sS'parameters'
p149
I1
sg136
Vtransporter
p150
sasS'num_uses'
p151
I1
sssS'shield'
p152
I100
sssI1
(dp153
S'elite_parameters'
p154
(dp155
S'ticks'
p156
(dp157
I500
(lp158
ssS'damage'
p159
(dp160
I0
(lp161
sssS'basic_parameters'
p162
(dp163
S'life'
p164
I600
sS'shop_transporter'
p165
(lp166
sS'capacity'
p167
I15
sS'name'
p168
VKaserne
p169
sS'shield_factor'
p170
F0.4
sS'attack_min'
p171
I0
sS'shield'
p172
I80
sS'delay_shoot'
p173
I15
sS'id'
p174
I1
sS'price'
p175
I600
sS'delay_in'
p176
I20
sS'max_life'
p177
I600
sg55
I80
sS'delay_out'
p178
I10
sS'enter'
p179
Vsoldier
p180
sS'shoot_dist'
p181
I6
sS'actions'
p182
(dp183
VSniper +
p184
(dp185
S'delay'
p186
I0
sS'category'
p187
Vupgrade
p188
sS'price'
p189
I200
sS'actions'
p190
(lp191
(dp192
S'target'
p193
S'self'
p194
sS'level'
p195
S'id'
p196
sS'type'
p197
S'change'
p198
sS'random'
p199
I0
sS'num_units'
p200
I0
sS'changes'
p201
(dp202
Vshop_units
p203
(lp204
I3
assa(dp205
S'type'
p206
Vnew
p207
sS'target'
p208
Vown
p209
sS'parameters'
p210
(lp211
I3
asS'level'
p212
Vgroups
p213
sasS'num_uses'
p214
I1
ssVVerteidigung
p215
(dp216
S'delay'
p217
I20
sS'category'
p218
Vupgrade
p219
sS'price'
p220
I100
sS'actions'
p221
(lp222
(dp223
S'target'
p224
S'self'
p225
sS'level'
p226
S'id'
p227
sS'type'
p228
S'change'
p229
sS'random'
p230
I0
sS'num_units'
p231
I0
sS'changes'
p232
(dp233
Vattack_min
p234
I20
sVattack_max
p235
I40
ssasS'num_uses'
p236
I1
ssVCyborg
p237
(dp238
S'delay'
p239
I0
sS'category'
p240
Vupgrade
p241
sS'price'
p242
I200
sS'actions'
p243
(lp244
(dp245
S'target'
p246
S'self'
p247
sS'level'
p248
S'id'
p249
sS'type'
p250
S'change'
p251
sS'random'
p252
I0
sS'num_units'
p253
I0
sS'changes'
p254
(dp255
Vshop_units
p256
(lp257
I7
asVelite
p258
I1
ssasS'num_uses'
p259
I1
ssVJavelin +
p260
(dp261
S'delay'
p262
I0
sS'category'
p263
Vupgrade
p264
sS'price'
p265
I400
sS'actions'
p266
(lp267
(dp268
S'target'
p269
S'self'
p270
sS'level'
p271
S'id'
p272
sS'type'
p273
S'change'
p274
sS'random'
p275
I0
sS'num_units'
p276
I0
sS'changes'
p277
(dp278
Vshop_units
p279
(lp280
I11
asVelite
p281
I1
ssa(dp282
g273
Vnew
p283
sg269
Vown
p284
sS'parameters'
p285
(lp286
I11
asg271
Vgroups
p287
sasS'num_uses'
p288
I1
ssVMG-Soldat
p289
(dp290
S'delay'
p291
I0
sS'category'
p292
Vupgrade
p293
sS'price'
p294
I250
sS'actions'
p295
(lp296
(dp297
g224
g225
sg226
g227
sg228
g229
sg230
I0
sg231
I0
sg232
(dp298
Vshop_units
p299
(lp300
I2
asVelite
p301
I1
sS'actions'
p302
(dp303
VMG-Soldat Ausbildung
p304
(dp305
S'delay'
p306
I0
sS'category'
p307
Vequipment
p308
sS'price'
p309
I0
sS'actions'
p310
(lp311
(dp312
S'target'
p313
Vown
p314
sS'level'
p315
Vid
p316
sS'type'
p317
Vchange
p318
sS'random'
p319
F0.0
sS'num_units'
p320
I1
sS'changes'
p321
(dp322
Vshop_units
p323
(lp324
I2
assasS'num_uses'
p325
I-1
ssssasS'num_uses'
p326
I1
sssS'elite'
p327
I0
sS'shop_units'
p328
(lp329
I0
asS'num_enemies'
p330
I4
sS'attack_max'
p331
I0
sssI2
(dp332
S'elite_parameters'
p333
(dp334
S'ticks'
p335
(dp336
I0
(lp337
ssS'damage'
p338
(dp339
I0
(lp340
sssS'basic_parameters'
p341
(dp342
S'life'
p343
I500
sS'shop_transporter'
p344
(lp345
sS'capacity'
p346
I10
sS'name'
p347
VLazarett
p348
sS'shop_units'
p349
(lp350
sS'attack_min'
p351
I0
sS'shield'
p352
I75
sS'delay_shoot'
p353
I15
sS'id'
p354
I2
sS'price'
p355
I500
sS'delay_in'
p356
I20
sS'max_life'
p357
I500
sg55
I75
sS'delay_out'
p358
I10
sS'enter'
p359
Vsoldier
p360
sS'shoot_dist'
p361
I6
sS'num_enemies'
p362
I4
sS'elite'
p363
I0
sS'shield_factor'
p364
F0.4
sS'actions'
p365
(dp366
V10x heilen
p367
(dp368
S'delay'
p369
I50
sS'category'
p370
Vstandard
p371
sg355
I400
sg365
(lp372
(dp373
S'target'
p374
Vown
p375
sS'level'
p376
Vid
p377
sS'type'
p378
Vchange
p379
sS'random'
p380
F0.0
sS'num_units'
p381
I0
sS'changes'
p382
(dp383
Vlife
p384
I50
ssasS'num_uses'
p385
I-1
ssV1x heilen
p386
(dp387
g369
I40
sg370
Vstandard
p388
sg355
I70
sg365
(lp389
(dp390
g374
Vown
p391
sg376
Vid
p392
sg378
Vchange
p393
sg380
F0.0
sg381
I1
sg382
(dp394
Vlife
p395
I50
ssasg385
I-1
ssVArztneistudium
p396
(dp397
S'delay'
p398
I0
sS'category'
p399
Vupgrade
p400
sS'price'
p401
I200
sS'actions'
p402
(lp403
(dp404
S'target'
p405
S'self'
p406
sS'level'
p407
S'id'
p408
sS'type'
p409
S'change'
p410
sS'random'
p411
I0
sS'num_units'
p412
I0
sS'changes'
p413
(dp414
Vshop_units
p415
(lp416
I6
assasS'num_uses'
p417
I1
ssV5x heilen
p418
(dp419
g369
I50
sg370
Vstandard
p420
sg355
I200
sg365
(lp421
(dp422
g374
Vown
p423
sg376
Vid
p424
sg378
Vchange
p425
sg380
F0.0
sg381
I5
sg382
(dp426
Vlife
p427
I50
ssasg385
I-1
sssS'attack_max'
p428
I0
sssI3
(dp429
g333
(dp430
g335
(dp431
I0
(lp432
ssg338
(dp433
I0
(lp434
sssg341
(dp435
g343
I500
sg344
(lp436
I0
asg346
I10
sg347
VWerkstatt
p437
sg349
(lp438
I4
asg351
I0
sg352
I80
sg353
I15
sg354
I3
sg355
I700
sg356
I20
sg357
I500
sg55
I80
sg358
I10
sg359
Vvehicle
p439
sg361
I6
sg362
I4
sg363
I0
sg364
F0.4
sg365
(dp440
VFahrzeug Transporter
p441
(dp442
S'delay'
p443
I0
sS'category'
p444
Vupgrade
p445
sS'price'
p446
I150
sS'actions'
p447
(lp448
(dp449
S'target'
p450
S'self'
p451
sS'level'
p452
S'id'
p453
sS'type'
p454
S'change'
p455
sS'random'
p456
I0
sS'num_units'
p457
I0
sS'changes'
p458
(dp459
Vshop_transporter
p460
(lp461
I2
asVelite
p462
I1
ssasS'num_uses'
p463
I1
ssVArtillerie
p464
(dp465
S'delay'
p466
I0
sS'category'
p467
Vupgrade
p468
sS'price'
p469
I300
sS'actions'
p470
(lp471
(dp472
S'target'
p473
S'self'
p474
sS'level'
p475
S'id'
p476
sS'type'
p477
S'change'
p478
sS'random'
p479
I0
sS'num_units'
p480
I0
sS'changes'
p481
(dp482
Vshop_units
p483
(lp484
I5
asVelite
p485
I1
ssasS'num_uses'
p486
I1
ssVVerteidigung
p487
(dp488
S'delay'
p489
I0
sS'category'
p490
Vupgrade
p491
sS'price'
p492
I50
sS'actions'
p493
(lp494
(dp495
g405
g406
sg407
g408
sg409
g410
sg411
I0
sg412
I0
sg413
(dp496
Vattack_min
p497
I30
sVattack_max
p498
I50
ssasS'num_uses'
p499
I1
sssg428
I0
sssI4
(dp500
g333
(dp501
g335
(dp502
I0
(lp503
ssg338
(dp504
I0
(lp505
sssg341
(dp506
g343
I600
sg344
(lp507
sg346
I15
sg347
VFlughafen
p508
sg349
(lp509
sg351
I0
sg352
I50
sg353
I15
sg354
I4
sg355
I400
sg356
I20
sg357
I600
sg55
I50
sg358
I10
sg359
Vvehicle
p510
sg361
I6
sg362
I4
sg363
I0
sg364
F0.4
sg365
(dp511
VFlak & Verteidigung
p512
(dp513
g443
I0
sg444
Vupgrade
p514
sg446
I100
sg447
(lp515
(dp516
g450
g451
sg452
g453
sg454
g455
sg456
I0
sg457
I0
sg458
(dp517
Vshop_units
p518
(lp519
I9
asVattack_min
p520
I30
sVelite
p521
I1
sVattack_max
p522
I50
ssasg463
I1
ssVHelikopter Landeplattform
p523
(dp524
g369
I0
sg370
Vupgrade
p525
sg355
I400
sg365
(lp526
(dp527
g374
S'self'
p528
sg376
g354
sg378
S'change'
p529
sg380
I0
sg381
I0
sg382
(dp530
Vshop_transporter
p531
(lp532
I1
asVelite
p533
I1
sS'actions'
p534
(dp535
VFallschirmspringer
p536
(dp537
S'delay'
p538
I0
sS'category'
p539
S'upgrade'
p540
sS'price'
p541
I0
sS'actions'
p542
(lp543
sS'num_uses'
p544
I-1
ssssasg385
I1
sssg428
I0
sssI5
(dp545
S'elite_parameters'
p546
(dp547
S'ticks'
p548
(dp549
I0
(lp550
ssS'damage'
p551
(dp552
I0
(lp553
sssS'basic_parameters'
p554
(dp555
S'delay_out'
p556
I0
sS'life'
p557
I100
sS'shop_transporter'
p558
(lp559
sS'capacity'
p560
I0
sS'name'
p561
Vnix
p562
sS'shield_factor'
p563
F0.6
sS'shop_units'
p564
(lp565
sS'attack_min'
p566
I60
sS'delay_shoot'
p567
I15
sS'delay_in'
p568
I0
sS'price'
p569
I200
sS'max_life'
p570
I100
sg55
I0
sS'actions'
p571
(dp572
Vnix
p573
(dp574
S'delay'
p575
I0
sS'category'
p576
S'upgrade'
p577
sg569
I0
sg571
(lp578
sS'num_uses'
p579
I-1
sssS'attack_max'
p580
I80
sS'enter'
p581
Vsoldier
p582
sS'shoot_dist'
p583
I5
sS'elite'
p584
I0
sS'id'
p585
I5
sS'num_enemies'
p586
I3
sS'shield'
p587
I0
sssI6
(dp588
g546
(dp589
g548
(dp590
I0
(lp591
ssg551
(dp592
I0
(lp593
sssg554
(dp594
g556
I10
sg557
I80
sg558
(lp595
sg560
I5
sg561
VMG-Nest
p596
sg563
F0.5
sg564
(lp597
sg566
I20
sg567
I15
sg568
I15
sg569
I70
sg570
I80
sg55
I20
sg571
(dp598
Vzweites Geschuetz
p599
(dp600
S'delay'
p601
I0
sS'category'
p602
Vupgrade
p603
sS'price'
p604
I50
sS'actions'
p605
(lp606
sS'num_uses'
p607
I1
ssVPanzerabwehr
p608
(dp609
S'delay'
p610
I10
sS'category'
p611
Vupgrade
p612
sS'price'
p613
I150
sS'actions'
p614
(lp615
(dp616
g208
S'self'
p617
sg212
S'id'
p618
sg206
S'change'
p619
sS'random'
p620
I0
sS'num_units'
p621
I0
sS'changes'
p622
(dp623
Vshield_factor
p624
F2.0
sVattack_min
p625
I-10
sS'actions'
p626
(dp627
VMoerser
p628
(dp629
S'delay'
p630
I0
sS'category'
p631
Vupgrade
p632
sS'price'
p633
I0
sg626
(lp634
sS'num_uses'
p635
I0
sssVattack_max
p636
I-20
sVshoot_dist
p637
I1
sVelite
p638
I2
ssasS'num_uses'
p639
I1
ssVBetonguss
p640
(dp641
g610
I0
sg611
Vupgrade
p642
sg613
I50
sg614
(lp643
(dp644
g208
g617
sg212
g618
sg206
g619
sg620
I0
sg621
I0
sg622
(dp645
Velite
p646
I1
sVmax_shield
p647
I15
sVshield
p648
I30
ssasg639
I1
ssVMoerser
p649
(dp650
S'delay'
p651
I10
sS'category'
p652
Vupgrade
p653
sS'price'
p654
I150
sS'actions'
p655
(lp656
(dp657
S'target'
p658
S'self'
p659
sS'level'
p660
S'id'
p661
sS'type'
p662
S'change'
p663
sS'random'
p664
I0
sS'num_units'
p665
I0
sS'changes'
p666
(dp667
Vnum_enemies
p668
I4
sVattack_min
p669
I10
sVdelay_shoot
p670
I10
sg626
(dp671
VPanzerabwehr
p672
(dp673
g630
I0
sg631
Vupgrade
p674
sg633
I0
sg626
(lp675
sg635
I0
sssVshoot_dist
p676
I3
sVattack_max
p677
I55
ssasS'num_uses'
p678
I1
sssg580
I35
sg581
Vsoldier
p679
sg583
I6
sg584
I0
sg585
I6
sg586
I4
sg587
I20
ssssS'unit_parameters'
p680
(dp681
I0
(dp682
S'elite_parameters'
p683
(dp684
S'ticks'
p685
(dp686
I1000
(lp687
(dp688
S'target'
p689
S'self'
p690
sS'level'
p691
S'id'
p692
sS'type'
p693
S'change'
p694
sS'random'
p695
I0
sS'num_units'
p696
I0
sS'changes'
p697
(dp698
Vlife
p699
I10
sVelite
p700
I1
sVshield
p701
I15
ssasI500
(lp702
(dp703
g689
g690
sg691
g692
sg693
g694
sg695
I0
sg696
I0
sg697
(dp704
Vlife
p705
I10
sVelite
p706
I1
sVshield
p707
I15
ssassS'damage'
p708
(dp709
I1000
(lp710
(dp711
S'target'
p712
S'self'
p713
sS'level'
p714
S'id'
p715
sS'type'
p716
S'change'
p717
sS'random'
p718
I0
sS'num_units'
p719
I0
sS'changes'
p720
(dp721
Vshoot_dist
p722
I2
sVmax_life
p723
I8
sVelite
p724
I1
sVattack_max
p725
I11
ssasI500
(lp726
(dp727
g689
g690
sg691
g692
sg693
g694
sg695
I0
sg696
I0
sg697
(dp728
Velite
p729
I1
sVattack_max
p730
I8
ssasI750
(lp731
(dp732
g712
g713
sg714
g715
sg716
g717
sg718
I0
sg719
I0
sg720
(dp733
Vattack_min
p734
I8
sVelite
p735
I1
sVattack_max
p736
I10
ssasssS'basic_parameters'
p737
(dp738
S'delay_walk'
p739
I15
sS'life'
p740
I50
sS'walk_dist'
p741
I5
sS'name'
p742
VSoldat
p743
sS'num_enemies'
p744
I4
sS'attack_min'
p745
I10
sS'delay_shoot'
p746
I15
sS'id'
p747
I0
sS'unit_type'
p748
Vsoldier
p749
sS'max_life'
p750
I50
sg55
I0
sS'attack_max'
p751
I20
sS'shoot_dist'
p752
I6
sS'price'
p753
I70
sS'elite'
p754
I0
sS'shield_factor'
p755
F0.5
sS'actions'
p756
(dp757
VSchutzweste
p758
(dp759
g369
I0
sg370
Vupgrade
p760
sg355
I30
sg365
(lp761
(dp762
g374
g528
sg376
g354
sg378
g529
sg380
I0
sg381
I0
sg382
(dp763
Vmax_shield
p764
I10
sVshield
p765
I10
sg365
(dp766
VSchild & wenig heilen
p767
(dp768
g369
I0
sg370
Vupgrade
p769
sg355
I50
sg365
(lp770
(dp771
g374
g528
sg376
g354
sg378
g529
sg380
I0
sg381
I0
sg382
(dp772
Vmax_shield
p773
I15
sVlife
p774
I15
sVmax_life
p775
I6
sVelite
p776
I1
sVshield
p777
I15
ssasg385
I1
ssssasg385
I1
ssVneue Munition
p778
(dp779
S'delay'
p780
I0
sS'category'
p781
Vupgrade
p782
sg175
I20
sg182
(lp783
(dp784
S'target'
p785
S'self'
p786
sS'level'
p787
g174
sS'type'
p788
S'change'
p789
sS'random'
p790
I0
sS'num_units'
p791
I0
sS'changes'
p792
(dp793
Vattack_min
p794
I5
sVattack_max
p795
I5
sg182
(dp796
VSchnellfeuer
p797
(dp798
g780
I0
sg781
Vupgrade
p799
sg175
I30
sg182
(lp800
(dp801
g785
g786
sg787
g174
sg788
g789
sg790
I0
sg791
I0
sg792
(dp802
Vnum_enemies
p803
I2
sVattack_min
p804
I4
sVelite
p805
I1
sVattack_max
p806
I8
sS'actions'
p807
(dp808
VFlammenwerfer
p809
(dp810
g610
I0
sg611
Vupgrade
p811
sg613
I40
sg614
(lp812
(dp813
g208
g617
sg212
g618
sg206
g619
sg620
I0
sg621
I0
sg622
(dp814
Vnum_enemies
p815
I4
sVattack_min
p816
I10
sVelite
p817
I1
sVattack_max
p818
I10
ssasg639
I1
ssVSchildexperte
p819
(dp820
S'delay'
p821
I0
sS'category'
p822
Vupgrade
p823
sS'price'
p824
I0
sg807
(lp825
sS'num_uses'
p826
I0
ssssasS'num_uses'
p827
I1
ssVSchildexperte
p828
(dp829
g780
I0
sg781
Vupgrade
p830
sg175
I30
sg182
(lp831
(dp832
g785
g786
sg787
g174
sg788
g789
sg790
I0
sg791
I0
sg792
(dp833
Vshield_factor
p834
F0.1
sVattack_min
p835
I6
sVelite
p836
I1
sVattack_max
p837
I4
sg182
(dp838
VSchnellfeuer
p839
(dp840
S'delay'
p841
I0
sS'category'
p842
Vupgrade
p843
sS'price'
p844
I0
sS'actions'
p845
(lp846
sS'num_uses'
p847
I0
ssVPanzerbrecher
p848
(dp849
g610
I0
sg611
Vupgrade
p850
sg613
I40
sg614
(lp851
(dp852
g208
g617
sg212
g618
sg206
g619
sg620
I0
sg621
I0
sg622
(dp853
Vshield_factor
p854
F0.2
sVattack_min
p855
I4
sVelite
p856
I1
sVattack_max
p857
I10
ssasg639
I1
ssssasg827
I1
ssssasg827
I1
ssVneue Schuhe
p858
(dp859
g780
I0
sg781
Vupgrade
p860
sg175
I20
sg182
(lp861
(dp862
g785
Vself
p863
sg787
Vid
p864
sg788
Vchange
p865
sg790
F0.0
sg791
F1.0
sg792
(dp866
Vdelay_walk
p867
I-2
sVwalk_dist
p868
I1
sVelite
p869
I1
sg182
(dp870
ssasg827
I1
ssV2 HG
p871
(dp872
g780
I0
sg781
Vequipment
p873
sg175
I70
sg182
(lp874
(dp875
S'target'
p876
S'self'
p877
sS'level'
p878
S'id'
p879
sS'type'
p880
S'change'
p881
sS'random'
p882
I0
sS'num_units'
p883
I0
sS'changes'
p884
(dp885
S'actions'
p886
(dp887
VHG
p888
(dp889
S'delay'
p890
I7
sS'category'
p891
Vstandard
p892
sS'price'
p893
I0
sg886
(lp894
(dp895
g876
Venemy
p896
sg878
Vid
p897
sg880
Vchange
p898
sg882
F0.25
sg883
I3
sg884
(dp899
Vlife
p900
I-10
ssasS'num_uses'
p901
I2
ssssasg827
I-1
sssS'shield'
p902
I0
sssI1
(dp903
g683
(dp904
g685
(dp905
I1000
(lp906
(dp907
g785
g786
sg787
g174
sg788
g789
sg790
I0
sg791
I0
sg792
(dp908
Velite
p909
I1
sVwalk_dist
p910
I1
sVmax_shield
p911
I10
sVshield
p912
I10
ssasI400
(lp913
(dp914
S'target'
p915
S'self'
p916
sS'level'
p917
S'id'
p918
sS'type'
p919
S'change'
p920
sS'random'
p921
I0
sS'num_units'
p922
I0
sS'changes'
p923
(dp924
Vdelay_walk
p925
I-2
sVlife
p926
I20
sVwalk_dist
p927
I1
sVelite
p928
I1
ssasI700
(lp929
(dp930
g915
g916
sg917
g918
sg919
g920
sg921
I0
sg922
I0
sg923
(dp931
Vmax_shield
p932
I8
sVlife
p933
I15
sVmax_life
p934
I10
sVelite
p935
I1
sVshield
p936
I13
ssassg708
(dp937
I0
(lp938
sssg737
(dp939
g739
I15
sg740
I40
sg741
I5
sg742
VIngenieur
p940
sg744
I1
sg745
I3
sg746
I15
sg747
I1
sg748
Vsoldier
p941
sg750
I40
sg55
I0
sg751
I5
sg752
I2
sg753
I100
sg754
I0
sg755
F0.4
sg756
(dp942
VSchild-Mech
p943
(dp944
g651
I8
sg652
Vupgrade
p945
sg654
I80
sg655
(lp946
(dp947
g658
Vown
p948
sg660
Vid
p949
sg662
Vchange
p950
sg664
F0.0
sg665
I0
sg666
(dp951
Vshield
p952
I10
ssa(dp953
g658
g659
sg660
g661
sg662
g663
sg664
I0
sg665
I0
sg666
(dp954
g655
(dp955
Vreparieren 3x10
p956
(dp957
g651
I7
sg652
Vstandard
p958
sg654
I50
sg655
(lp959
(dp960
g658
Vown
p961
sg660
Vid
p962
sg662
Vchange
p963
sg664
F0.2
sg665
I3
sg666
(dp964
Vshield
p965
I10
ssasg678
I-1
ssVTeile ersetzen 6x10
p966
(dp967
g651
I7
sg652
Vstandard
p968
sg654
I90
sg655
(lp969
(dp970
g658
Vown
p971
sg660
Vid
p972
sg662
Vchange
p973
sg664
F0.1
sg665
I6
sg666
(dp974
Vshield
p975
I10
ssasg678
I-1
ssssasg678
I1
ssVBruecke bauen
p976
(dp977
S'delay'
p978
I40
sS'category'
p979
Vshop
p980
sS'price'
p981
I100
sS'actions'
p982
(lp983
(dp984
S'target'
p985
S'self'
p986
sS'level'
p987
S'id'
p988
sS'type'
p989
S'change'
p990
sS'random'
p991
I0
sS'num_units'
p992
I0
sS'changes'
p993
(dp994
Vlife
p995
I0
ssasS'num_uses'
p996
I-1
ssVMG-Nest
p997
(dp998
S'delay'
p999
I30
sS'category'
p1000
Vshop
p1001
sS'price'
p1002
I70
sS'actions'
p1003
(lp1004
(dp1005
g107
Vnew
p1006
sg103
Vown
p1007
sS'parameters'
p1008
I6
sg105
Vbuildings
p1009
sasS'num_uses'
p1010
I-1
ssVleichtere Ausruestung
p1011
(dp1012
g651
I0
sg652
Vupgrade
p1013
sg654
I30
sg655
(lp1014
(dp1015
g658
g659
sg660
g661
sg662
g663
sg664
I0
sg665
I0
sg666
(dp1016
Vdelay_walk
p1017
I-2
sVwalk_dist
p1018
I1
sVelite
p1019
I1
ssasg678
I1
ssVWerkstatt
p1020
(dp1021
g398
I60
sg399
Vshop
p1022
sg401
I700
sg402
(lp1023
(dp1024
g409
Vnew
p1025
sg405
Vown
p1026
sS'parameters'
p1027
I3
sg407
Vbuildings
p1028
sasg417
I-1
ssVFlugplatz
p1029
(dp1030
g489
I50
sg490
Vshop
p1031
sg492
I400
sg493
(lp1032
(dp1033
S'type'
p1034
Vnew
p1035
sS'target'
p1036
Vown
p1037
sS'parameters'
p1038
I4
sS'level'
p1039
Vbuildings
p1040
sasg499
I-1
ssVLazarett
p1041
(dp1042
g489
I50
sg490
Vshop
p1043
sg492
I500
sg493
(lp1044
(dp1045
g1034
Vnew
p1046
sg1036
Vown
p1047
sg1038
I2
sg1039
Vbuildings
p1048
sasg499
I-1
ssVKaserne
p1049
(dp1050
g780
I60
sg781
Vshop
p1051
sg175
I600
sg182
(lp1052
(dp1053
g788
Vnew
p1054
sg785
Vown
p1055
sS'parameters'
p1056
I1
sg787
Vbuildings
p1057
sasg827
I-1
ssVKampfingenieur
p1058
(dp1059
g291
I0
sg292
Vupgrade
p1060
sg294
I70
sg295
(lp1061
(dp1062
g224
g225
sg226
g227
sg228
g229
sg230
I0
sg231
I0
sg232
(dp1063
Vshield
p1064
I8
sVattack_min
p1065
I10
sg295
(dp1066
V3 Granaten
p1067
(dp1068
g291
I0
sg292
Vequipment
p1069
sg294
I70
sg295
(lp1070
(dp1071
g224
Vself
p1072
sg226
Vid
p1073
sg228
Vchange
p1074
sg230
F0.4
sg231
I3
sg232
(dp1075
g295
(dp1076
VGranate
p1077
(dp1078
g291
I10
sg292
Vstandard
p1079
sg294
I0
sg295
(lp1080
(dp1081
g224
Venemy
p1082
sg226
Vid
p1083
sg228
Vchange
p1084
sg230
F0.4
sg231
I3
sg232
(dp1085
Vlife
p1086
I-15
ssasg326
I3
ssssasg326
I-1
sssVmax_shield
p1087
I8
sVattack_max
p1088
I15
sVelite
p1089
I1
ssasg326
I1
sssg902
I0
sssI2
(dp1090
g683
(dp1091
g685
(dp1092
I400
(lp1093
(dp1094
g915
g916
sg917
g918
sg919
g920
sg921
I0
sg922
I0
sg923
(dp1095
Vdelay_walk
p1096
I-2
sVlife
p1097
I15
sVelite
p1098
I1
sVshield
p1099
I8
ssasI800
(lp1100
(dp1101
g915
g916
sg917
g918
sg919
g920
sg921
I0
sg922
I0
sg923
(dp1102
Vlife
p1103
I15
sVmax_life
p1104
I10
sVelite
p1105
I1
sVshield
p1106
I10
sVdelay_shoot
p1107
I-2
ssassg708
(dp1108
I500
(lp1109
(dp1110
S'target'
p1111
S'self'
p1112
sS'level'
p1113
S'id'
p1114
sS'type'
p1115
S'change'
p1116
sS'random'
p1117
I0
sS'num_units'
p1118
I0
sS'changes'
p1119
(dp1120
Vshield_factor
p1121
F0.1
sVattack_min
p1122
I10
sVelite
p1123
I1
sS'actions'
p1124
(dp1125
VSchusstraining
p1126
(dp1127
S'delay'
p1128
I0
sS'category'
p1129
Vupgrade
p1130
sS'price'
p1131
I40
sg1124
(lp1132
(dp1133
g269
g270
sg271
g272
sg273
g274
sg275
I0
sg276
I0
sg277
(dp1134
Vshoot_dist
p1135
I1
sVelite
p1136
I1
sVdelay_shoot
p1137
I-4
ssasS'num_uses'
p1138
I1
ssssasssg737
(dp1139
g739
I18
sg740
I80
sg741
I5
sg742
VMG-Soldat
p1140
sg744
I10
sg745
I20
sg746
I20
sg747
I2
sg748
Vsoldier
p1141
sg750
I80
sg55
I20
sg751
I60
sg752
I7
sg753
I175
sg754
I0
sg755
F0.55
sg756
(dp1142
Vbessere Munition
p1143
(dp1144
g291
I0
sg292
Vupgrade
p1145
sg294
I40
sg295
(lp1146
(dp1147
g224
g225
sg226
g227
sg228
g229
sg230
I0
sg231
I0
sg232
(dp1148
Vattack_min
p1149
I10
sVattack_max
p1150
I5
sg295
(dp1151
VPanzerbrecher
p1152
(dp1153
g291
I0
sg292
Vupgrade
p1154
sg294
I60
sg295
(lp1155
(dp1156
g224
g225
sg226
g227
sg228
g229
sg230
I0
sg231
I0
sg232
(dp1157
Vshield_factor
p1158
F0.1
sVelite
p1159
I1
sVattack_max
p1160
I15
sg295
(dp1161
VBazooka
p1162
(dp1163
g291
I0
sg292
Vupgrade
p1164
sg294
I80
sg295
(lp1165
(dp1166
g224
g225
sg226
g227
sg228
g229
sg230
I0
sg231
I0
sg232
(dp1167
Vshield_factor
p1168
F0.15
sVattack_min
p1169
I15
sVelite
p1170
I1
sVnum_enemies
p1171
I2
sVattack_max
p1172
I10
ssasg326
I1
ssssasg326
I1
ssssasg326
I1
ssVKampfausbildung
p1173
(dp1174
S'delay'
p1175
I0
sS'category'
p1176
Vupgrade
p1177
sS'price'
p1178
I40
sS'actions'
p1179
(lp1180
(dp1181
S'target'
p1182
S'self'
p1183
sS'level'
p1184
S'id'
p1185
sS'type'
p1186
S'change'
p1187
sS'random'
p1188
I0
sS'num_units'
p1189
I0
sS'changes'
p1190
(dp1191
Vshoot_dist
p1192
I1
sVelite
p1193
I1
sVdelay_shoot
p1194
I-5
ssasS'num_uses'
p1195
I1
ssVSpeed I
p1196
(dp1197
g489
I0
sg490
Vupgrade
p1198
sg492
I40
sg493
(lp1199
(dp1200
g224
g225
sg226
g227
sg228
g229
sg230
I0
sg231
I0
sg232
(dp1201
Vdelay_walk
p1202
I-5
sVelite
p1203
I1
sg295
(dp1204
VSpeed II
p1205
(dp1206
g291
I0
sg292
Vupgrade
p1207
sg294
I50
sg295
(lp1208
(dp1209
g224
g225
sg226
g227
sg228
g229
sg230
I0
sg231
I0
sg232
(dp1210
Vdelay_walk
p1211
I-5
sVwalk_dist
p1212
I1
sVelite
p1213
I1
sVdelay_shoot
p1214
I-3
ssasg326
I1
ssssasg499
I1
sssg902
I20
sssI3
(dp1215
g683
(dp1216
g685
(dp1217
I400
(lp1218
(dp1219
g915
g916
sg917
g918
sg919
g920
sg921
I0
sg922
I0
sg923
(dp1220
Vmax_shield
p1221
I8
sVattack_min
p1222
I5
sVelite
p1223
I1
sVshield
p1224
I8
ssasI800
(lp1225
(dp1226
g915
g916
sg917
g918
sg919
g920
sg921
I0
sg922
I0
sg923
(dp1227
Vshield_factor
p1228
F0.1
sVattack_min
p1229
I8
sVelite
p1230
I1
sVattack_max
p1231
I14
ssassg708
(dp1232
I0
(lp1233
sI250
(lp1234
(dp1235
g405
g406
sg407
g408
sg409
g410
sg411
I0
sg412
I0
sg413
(dp1236
Vattack_min
p1237
I8
sVelite
p1238
I1
sVattack_max
p1239
I8
sg402
(dp1240
Vschneller laden
p1241
(dp1242
g398
I0
sg399
Vupgrade
p1243
sg401
I40
sg402
(lp1244
(dp1245
g405
g406
sg407
g408
sg409
g410
sg411
I0
sg412
I0
sg413
(dp1246
Vdelay_shoot
p1247
I-4
ssasg417
I1
ssssasssg737
(dp1248
g739
I15
sg740
I50
sg741
I5
sg742
VSniper
p1249
sg744
I1
sg745
I40
sg746
I20
sg747
I3
sg748
Vsoldier
p1250
sg750
I50
sg55
I0
sg751
I60
sg752
I10
sg753
I200
sg754
I0
sg755
F0.6
sg756
(dp1251
VSchutzweste
p1252
(dp1253
g186
I0
sg187
Vupgrade
p1254
sg189
I30
sg190
(lp1255
(dp1256
g193
g194
sg195
g196
sg197
g198
sg199
I0
sg200
I0
sg201
(dp1257
Vmax_shield
p1258
I10
sVshield
p1259
I10
ssasg214
I1
ssVSpeed I (ziehen und laden)
p1260
(dp1261
g186
I0
sg187
Vupgrade
p1262
sg189
I30
sg190
(lp1263
(dp1264
g193
g194
sg195
g196
sg197
g198
sg199
I0
sg200
I0
sg201
(dp1265
Vwalk_dist
p1266
I1
sVelite
p1267
I1
sVdelay_shoot
p1268
I-2
ssasg214
I1
ssVhoehere Schussweite
p1269
(dp1270
S'delay'
p1271
I0
sS'category'
p1272
Vupgrade
p1273
sS'price'
p1274
I40
sS'actions'
p1275
(lp1276
(dp1277
S'target'
p1278
S'self'
p1279
sS'level'
p1280
S'id'
p1281
sS'type'
p1282
S'change'
p1283
sS'random'
p1284
I0
sS'num_units'
p1285
I0
sS'changes'
p1286
(dp1287
Vshoot_dist
p1288
I1
sVelite
p1289
I1
sg1275
(dp1290
VDistanzexperte
p1291
(dp1292
g1271
I0
sg1272
Vupgrade
p1293
sg1274
I50
sg1275
(lp1294
(dp1295
g1278
g1279
sg1280
g1281
sg1282
g1283
sg1284
I0
sg1285
I0
sg1286
(dp1296
Vshoot_dist
p1297
I1
sVattack_min
p1298
I8
sVelite
p1299
I1
sg1275
(dp1300
ssasS'num_uses'
p1301
I1
ssssasg1301
I1
ssVPraezision
p1302
(dp1303
S'delay'
p1304
I0
sS'category'
p1305
Vupgrade
p1306
sS'price'
p1307
I30
sg534
(lp1308
(dp1309
S'target'
p1310
S'self'
p1311
sS'level'
p1312
S'id'
p1313
sS'type'
p1314
S'change'
p1315
sS'random'
p1316
I0
sS'num_units'
p1317
I0
sS'changes'
p1318
(dp1319
Vattack_min
p1320
I15
sVelite
p1321
I1
sVattack_max
p1322
I8
sg402
(dp1323
Vbessere Munition
p1324
(dp1325
g398
I0
sg399
Vupgrade
p1326
sg401
I40
sg402
(lp1327
(dp1328
g405
g406
sg407
g408
sg409
g410
sg411
I0
sg412
I0
sg413
(dp1329
Vshield_factor
p1330
F0.05
sVattack_min
p1331
I15
sVelite
p1332
I1
sVattack_max
p1333
I10
sg402
(dp1334
VSchildzerstoerer
p1335
(dp1336
g398
I0
sg399
Vupgrade
p1337
sg401
I30
sg402
(lp1338
(dp1339
g405
g406
sg407
g408
sg409
g410
sg411
I0
sg412
I0
sg413
(dp1340
Vshield_factor
p1341
F0.2
sVelite
p1342
I1
sVattack_max
p1343
I8
sg266
(dp1344
VDoppelschuss
p1345
(dp1346
g262
I0
sg263
Vupgrade
p1347
sg265
I0
sg266
(lp1348
sg288
I0
ssssasg417
I1
ssssasg417
I1
ssVDoppelschuss
p1349
(dp1350
g1271
I0
sg1272
Vupgrade
p1351
sg1274
I60
sg1275
(lp1352
(dp1353
g1278
g1279
sg1280
g1281
sg1282
g1283
sg1284
I0
sg1285
I0
sg1286
(dp1354
Vnum_enemies
p1355
I1
sVattack_min
p1356
I8
sVelite
p1357
I1
sVattack_max
p1358
I15
sg266
(dp1359
VSchildzerstoerer
p1360
(dp1361
g262
I0
sg263
Vupgrade
p1362
sg265
I0
sg266
(lp1363
sg288
I0
ssssasg1301
I1
ssssasS'num_uses'
p1364
I1
sssg902
I0
sssI4
(dp1365
g683
(dp1366
g685
(dp1367
I0
(lp1368
sI600
(lp1369
(dp1370
g915
g916
sg917
g918
sg919
g920
sg921
I0
sg922
I0
sg923
(dp1371
Vdelay_walk
p1372
I-3
sVelite
p1373
I1
sVshield
p1374
I30
sVmax_shield
p1375
I15
ssasI300
(lp1376
(dp1377
g915
g916
sg917
g918
sg919
g920
sg921
I0
sg922
I0
sg923
(dp1378
Vdelay_walk
p1379
I-2
sVelite
p1380
I1
sVshield
p1381
I15
sVdelay_shoot
p1382
I-3
ssassg708
(dp1383
I500
(lp1384
(dp1385
g193
g194
sg195
g196
sg197
g198
sg199
I0
sg200
I0
sg201
(dp1386
Vshield_factor
p1387
F0.07
sVattack_min
p1388
I10
sVelite
p1389
I1
sVattack_max
p1390
I5
ssasssg737
(dp1391
g739
I18
sg740
I100
sg741
I5
sg742
VPanzer
p1392
sg744
I8
sg745
I50
sg746
I18
sg747
I4
sg748
Vvehicle
p1393
sg750
I100
sg55
I100
sg751
I90
sg752
I7
sg753
I400
sg754
I0
sg755
F0.6
sg756
(dp1394
VShottpanzerung
p1395
(dp1396
g610
I0
sg611
Vupgrade
p1397
sg613
I70
sg614
(lp1398
(dp1399
g208
g617
sg212
g618
sg206
g619
sg620
I0
sg621
I0
sg622
(dp1400
Vdelay_walk
p1401
I3
sVelite
p1402
I1
sVshield
p1403
I50
sg614
(dp1404
VVerbundpanzerung
p1405
(dp1406
g610
I0
sg611
Vupgrade
p1407
sg613
I40
sg614
(lp1408
(dp1409
g208
g617
sg212
g618
sg206
g619
sg620
I0
sg621
I0
sg622
(dp1410
Vdelay_walk
p1411
I-3
sVlife
p1412
I10
sVelite
p1413
I1
sVshield
p1414
I25
sVmax_shield
p1415
I15
ssasg639
I1
sssVmax_shield
p1416
I30
ssasg639
I1
ssVHartkernmunition
p1417
(dp1418
S'delay'
p1419
I0
sS'category'
p1420
Vupgrade
p1421
sS'price'
p1422
I30
sS'actions'
p1423
(lp1424
(dp1425
S'target'
p1426
Vself
p1427
sS'level'
p1428
Vid
p1429
sS'type'
p1430
Vchange
p1431
sS'random'
p1432
F0.0
sS'num_units'
p1433
I0
sS'changes'
p1434
(dp1435
Vshield_factor
p1436
F0.15
sVelite
p1437
I1
sVattack_max
p1438
I8
sS'actions'
p1439
(dp1440
VUrangeschoss
p1441
(dp1442
S'delay'
p1443
I0
sS'category'
p1444
Vupgrade
p1445
sS'price'
p1446
I80
sg1439
(lp1447
(dp1448
S'target'
p1449
Vself
p1450
sS'level'
p1451
Vid
p1452
sS'type'
p1453
Vchange
p1454
sS'random'
p1455
F0.0
sS'num_units'
p1456
I0
sS'changes'
p1457
(dp1458
Vshield_factor
p1459
F0.2
sVattack_min
p1460
I15
sVelite
p1461
I1
sVattack_max
p1462
I15
ssasS'num_uses'
p1463
I1
ssssasS'num_uses'
p1464
I1
ssVSpeed I
p1465
(dp1466
g489
I0
sg490
Vupgrade
p1467
sg492
I20
sg493
(lp1468
(dp1469
g1426
S'self'
p1470
sg1428
S'id'
p1471
sg1430
S'change'
p1472
sg1432
I0
sg1433
I0
sg1434
(dp1473
Vdelay_walk
p1474
I-2
sg1423
(dp1475
VSpeed II
p1476
(dp1477
g1419
I0
sg1420
Vupgrade
p1478
sg1422
I40
sg1423
(lp1479
(dp1480
g1426
g1470
sg1428
g1471
sg1430
g1472
sg1432
I0
sg1433
I0
sg1434
(dp1481
Vdelay_walk
p1482
I-2
sVwalk_dist
p1483
I1
sVelite
p1484
I1
ssasg1464
I1
ssssasg499
I1
sssg902
I100
sssI5
(dp1485
g683
(dp1486
g685
(dp1487
I0
(lp1488
sI500
(lp1489
(dp1490
S'target'
p1491
S'self'
p1492
sS'level'
p1493
S'id'
p1494
sS'type'
p1495
S'change'
p1496
sS'random'
p1497
I0
sS'num_units'
p1498
I0
sS'changes'
p1499
(dp1500
Vmax_life
p1501
I10
sVelite
p1502
I1
ssassg708
(dp1503
I0
(lp1504
sssg737
(dp1505
g739
I15
sg740
I100
sg741
I5
sg742
VArtillerie
p1506
sg744
I10
sg745
I0
sg746
I35
sg747
I5
sg748
Vvehicle
p1507
sg750
I100
sg55
I70
sg751
I0
sg752
I10
sg753
I600
sg754
I0
sg755
F0.5
sg756
(dp1508
Vgroessere Schussweite I
p1509
(dp1510
g1419
I0
sg1420
Vupgrade
p1511
sg1422
I40
sg1423
(lp1512
(dp1513
g1426
g1470
sg1428
g1471
sg1430
g1472
sg1432
I0
sg1433
I0
sg1434
(dp1514
Vshoot_dist
p1515
I1
sVelite
p1516
I1
sg470
(dp1517
Vgroessere Schussweite II
p1518
(dp1519
g466
I0
sg467
Vupgrade
p1520
sg469
I50
sg470
(lp1521
(dp1522
g473
g474
sg475
g476
sg477
g478
sg479
I0
sg480
I0
sg481
(dp1523
Vshoot_dist
p1524
I1
sVelite
p1525
I1
ssasg486
I1
ssVStreuung erhoehen
p1526
(dp1527
g466
I0
sg467
Vupgrade
p1528
sg469
I40
sg470
(lp1529
(dp1530
g473
g474
sg475
g476
sg477
g478
sg479
I0
sg480
I0
sg481
(dp1531
Vnum_enemies
p1532
I5
sVattack_min
p1533
I15
sVelite
p1534
I1
ssasg486
I1
ssssasg1464
I1
ssVAufbauen
p1535
(dp1536
S'delay'
p1537
I25
sS'category'
p1538
Vstandard
p1539
sS'price'
p1540
I0
sS'actions'
p1541
(lp1542
(dp1543
S'target'
p1544
S'self'
p1545
sS'level'
p1546
S'id'
p1547
sS'type'
p1548
S'change'
p1549
sS'random'
p1550
I0
sS'num_units'
p1551
I0
sS'changes'
p1552
(dp1553
Vattack_min
p1554
I100
sVwalk_dist
p1555
I-5
sVattack_max
p1556
I200
sg1541
(dp1557
VTransport
p1558
(dp1559
S'delay'
p1560
I30
sS'category'
p1561
Vequipment
p1562
sS'price'
p1563
I0
sS'actions'
p1564
(lp1565
(dp1566
S'target'
p1567
S'self'
p1568
sS'level'
p1569
S'id'
p1570
sS'type'
p1571
S'change'
p1572
sS'random'
p1573
I0
sS'num_units'
p1574
I0
sS'changes'
p1575
(dp1576
Vattack_min
p1577
I-100
sVwalk_dist
p1578
I5
sVattack_max
p1579
I-200
sg1564
(dp1580
VAufbau
p1581
(dp1582
g1560
I25
sg1561
Vstandard
p1583
sg1563
I0
sg1564
(lp1584
(dp1585
g1567
g1568
sg1569
g1570
sg1571
g1572
sg1573
I0
sg1574
I0
sg1575
(dp1586
Vattack_min
p1587
I100
sVattack_max
p1588
I200
sVwalk_dist
p1589
I-5
ssasS'num_uses'
p1590
I1
ssssasg1590
I-1
ssssasS'num_uses'
p1591
I1
ssVSpeed I
p1592
(dp1593
g489
I0
sg490
Vupgrade
p1594
sg492
I80
sg493
(lp1595
(dp1596
g473
g474
sg475
g476
sg477
g478
sg479
I0
sg480
I0
sg481
(dp1597
Vdelay_walk
p1598
I-4
sVelite
p1599
I1
sVdelay_shoot
p1600
I-8
sg470
(dp1601
VSpeed II
p1602
(dp1603
g466
I0
sg467
Vupgrade
p1604
sg469
I50
sg470
(lp1605
(dp1606
g473
g474
sg475
g476
sg477
g478
sg479
I0
sg480
I0
sg481
(dp1607
Vdelay_walk
p1608
I-2
sVelite
p1609
I1
sVdelay_shoot
p1610
I-8
ssasg486
I1
ssssasg499
I1
sssg902
I70
sssI6
(dp1611
S'elite_parameters'
p1612
(dp1613
S'ticks'
p1614
(dp1615
I800
(lp1616
(dp1617
g915
g916
sg917
g918
sg919
g920
sg921
I0
sg922
I0
sg923
(dp1618
Vmax_shield
p1619
I8
sVlife
p1620
I100
sVmax_life
p1621
I10
sVelite
p1622
I1
sVshield
p1623
I15
ssasI400
(lp1624
(dp1625
g915
g916
sg917
g918
sg919
g920
sg921
I0
sg922
I0
sg923
(dp1626
Vlife
p1627
I100
sVmax_life
p1628
I8
sVelite
p1629
I1
ssassS'damage'
p1630
(dp1631
I0
(lp1632
sssS'basic_parameters'
p1633
(dp1634
S'delay_walk'
p1635
I15
sS'life'
p1636
I50
sS'walk_dist'
p1637
I5
sS'name'
p1638
VArzt
p1639
sS'num_enemies'
p1640
I3
sS'attack_min'
p1641
I0
sS'delay_shoot'
p1642
I15
sg1114
I6
sS'unit_type'
p1643
Vsoldier
p1644
sS'max_life'
p1645
I50
sg55
I10
sS'attack_max'
p1646
I0
sS'shoot_dist'
p1647
I5
sg1131
I120
sS'elite'
p1648
I0
sS'shield_factor'
p1649
F0.4
sg1124
(dp1650
VSchmerzmittel
p1651
(dp1652
g398
I0
sg399
Vshop
p1653
sg401
I35
sg402
(lp1654
(dp1655
g658
Vself
p1656
sg660
Vid
p1657
sg662
Vchange
p1658
sg664
F0.15
sg665
I0
sg666
(dp1659
Vlife
p1660
I30
ssasg417
I-1
ssVOperation 120
p1661
(dp1662
g651
I12
sg652
Vstandard
p1663
sg654
I130
sg655
(lp1664
(dp1665
g658
Vown
p1666
sg660
Vid
p1667
sg662
Vchange
p1668
sg664
F0.2
sg665
I13
sg666
(dp1669
Vlife
p1670
I10
ssasg678
I-1
ssVVerband 50
p1671
(dp1672
g651
I8
sg652
Vstandard
p1673
sg654
I60
sg655
(lp1674
(dp1675
g658
Vown
p1676
sg660
Vid
p1677
sg662
Vchange
p1678
sg664
F0.2
sg665
I5
sg666
(dp1679
Vlife
p1680
I10
ssasg678
I-1
ssVSpeed I
p1681
(dp1682
g398
I0
sg399
Vupgrade
p1683
sg401
I30
sg402
(lp1684
(dp1685
g405
g406
sg407
g408
sg409
g410
sg411
I0
sg412
I0
sg413
(dp1686
Vwalk_dist
p1687
I1
sVelite
p1688
I1
sg402
(dp1689
VSpeed II
p1690
(dp1691
g398
I0
sg399
Vupgrade
p1692
sg401
I50
sg402
(lp1693
(dp1694
g405
g406
sg407
g408
sg409
g410
sg411
I0
sg412
I0
sg413
(dp1695
Vdelay_walk
p1696
I-4
sVwalk_dist
p1697
I2
sVelite
p1698
I1
ssasg417
I1
ssssasg417
I1
sssS'shield'
p1699
I10
sssI7
(dp1700
S'elite_parameters'
p1701
(dp1702
S'ticks'
p1703
(dp1704
I0
(lp1705
ssS'damage'
p1706
(dp1707
I0
(lp1708
sssS'basic_parameters'
p1709
(dp1710
S'delay_walk'
p1711
I15
sS'life'
p1712
I60
sS'walk_dist'
p1713
I5
sS'name'
p1714
VCyborg
p1715
sS'num_enemies'
p1716
I5
sS'attack_min'
p1717
I20
sS'delay_shoot'
p1718
I15
sg196
I7
sS'unit_type'
p1719
Vsoldier
p1720
sS'max_life'
p1721
I60
sg55
I30
sS'attack_max'
p1722
I35
sS'shoot_dist'
p1723
I7
sg189
I130
sS'elite'
p1724
I0
sS'shield_factor'
p1725
F0.6
sg190
(dp1726
VBleimantel
p1727
(dp1728
g239
I0
sg240
Vupgrade
p1729
sg242
I25
sg243
(lp1730
(dp1731
g246
g247
sg248
g249
sg250
g251
sg252
I0
sg253
I0
sg254
(dp1732
Vdelay_walk
p1733
I4
sVelite
p1734
I1
sVshield
p1735
I10
sg243
(dp1736
VTitanmantel
p1737
(dp1738
g239
I0
sg240
Vupgrade
p1739
sg242
I35
sg243
(lp1740
(dp1741
g246
g247
sg248
g249
sg250
g251
sg252
I0
sg253
I0
sg254
(dp1742
Vdelay_walk
p1743
I-4
sVelite
p1744
I1
sVshield
p1745
I15
sVmax_shield
p1746
I10
ssasg259
I1
sssVmax_shield
p1747
I10
ssasg259
I1
ssVGelenke oelen
p1748
(dp1749
S'delay'
p1750
I0
sS'category'
p1751
Vupgrade
p1752
sS'price'
p1753
I30
sS'actions'
p1754
(lp1755
(dp1756
g246
g247
sg248
g249
sg250
g251
sg252
I0
sg253
I0
sg254
(dp1757
Vdelay_walk
p1758
I-2
sVwalk_dist
p1759
I1
sVelite
p1760
I1
sg243
(dp1761
Vleichte Ruestung
p1762
(dp1763
g239
I0
sg240
Vupgrade
p1764
sg242
I40
sg243
(lp1765
(dp1766
g246
g247
sg248
g249
sg250
g251
sg252
I0
sg253
I0
sg254
(dp1767
Vdelay_walk
p1768
I-3
sVwalk_dist
p1769
I1
sVelite
p1770
I1
ssasg259
I1
ssssasS'num_uses'
p1771
I1
ssVLaser Zielvorrichtung
p1772
(dp1773
g239
I0
sg240
Vupgrade
p1774
sg242
I50
sg243
(lp1775
(dp1776
g246
g247
sg248
g249
sg250
g251
sg252
I0
sg253
I0
sg254
(dp1777
Vshoot_dist
p1778
I1
sVattack_min
p1779
I5
sVelite
p1780
I1
sVdelay_shoot
p1781
I-2
ssasg259
I1
ssVneue Munition
p1782
(dp1783
g239
I0
sg240
Vupgrade
p1784
sg242
I25
sg243
(lp1785
(dp1786
g246
g247
sg248
g249
sg250
g251
sg252
I0
sg253
I0
sg254
(dp1787
Vattack_min
p1788
I5
sVelite
p1789
I1
sVattack_max
p1790
I8
sg243
(dp1791
VShotgun
p1792
(dp1793
g239
I0
sg240
Vupgrade
p1794
sg242
I50
sg243
(lp1795
(dp1796
g246
g247
sg248
g249
sg250
g251
sg252
I0
sg253
I0
sg254
(dp1797
Vnum_enemies
p1798
I3
sVattack_min
p1799
I-10
sg243
(dp1800
VLasergun
p1801
(dp1802
g239
I0
sg240
Vupgrade
p1803
sg242
I0
sg243
(lp1804
sg259
I0
sssVattack_max
p1805
I20
sVelite
p1806
I1
sVshield_factor
p1807
F0.1
ssasg259
I1
ssVLasergun
p1808
(dp1809
g239
I0
sg240
Vupgrade
p1810
sg242
I50
sg243
(lp1811
(dp1812
g246
g247
sg248
g249
sg250
g251
sg252
I0
sg253
I0
sg254
(dp1813
Vnum_enemies
p1814
I-2
sVattack_min
p1815
I17
sg243
(dp1816
VShotgun
p1817
(dp1818
g239
I0
sg240
Vupgrade
p1819
sg242
I0
sg243
(lp1820
sg259
I0
sssVattack_max
p1821
I8
sVelite
p1822
I1
sVshield_factor
p1823
F0.25
ssasg259
I1
ssssasg259
I1
ssVJet-Pack (beim naechsten Zug 11 ziehen)
p1824
(dp1825
g239
I10
sg240
Vupgrade
p1826
sg242
I40
sg243
(lp1827
sg259
I-1
sssS'shield'
p1828
I30
sssI8
(dp1829
S'elite_parameters'
p1830
(dp1831
S'ticks'
p1832
(dp1833
I0
(lp1834
sI250
(lp1835
(dp1836
S'target'
p1837
S'self'
p1838
sS'level'
p1839
S'id'
p1840
sS'type'
p1841
S'change'
p1842
sS'random'
p1843
I0
sS'num_units'
p1844
I0
sS'changes'
p1845
(dp1846
Velite
p1847
I1
sVlife
p1848
I20
sVmax_shield
p1849
I5
sVshield
p1850
I10
ssasI500
(lp1851
(dp1852
g1837
g1838
sg1839
g1840
sg1841
g1842
sg1843
I0
sg1844
I0
sg1845
(dp1853
Velite
p1854
I1
sVlife
p1855
I100
sVmax_life
p1856
I10
sVmax_shield
p1857
I5
sVshield
p1858
I20
ssassS'damage'
p1859
(dp1860
I0
(lp1861
sI500
(lp1862
sssS'basic_parameters'
p1863
(dp1864
S'delay_walk'
p1865
I15
sS'life'
p1866
I70
sS'walk_dist'
p1867
I5
sS'name'
p1868
VKommandant
p1869
sS'num_enemies'
p1870
I4
sS'attack_min'
p1871
I20
sS'delay_shoot'
p1872
I15
sg106
I8
sS'unit_type'
p1873
Vsoldier
p1874
sS'max_life'
p1875
I70
sg55
I10
sS'attack_max'
p1876
I30
sS'shoot_dist'
p1877
I6
sg1002
I250
sS'elite'
p1878
I4
sS'shield_factor'
p1879
F0.6
sg1003
(dp1880
VLuftunterstuetzung
p1881
(dp1882
g999
I40
sg1000
Vstandard
p1883
sg1002
I150
sg1003
(lp1884
(dp1885
g103
Venemy
p1886
sg105
Vid
p1887
sg107
Vchange
p1888
sg109
F0.6
sg110
I7
sg111
(dp1889
Vlife
p1890
I-17
sVshield
p1891
I-12
ssasg1010
I-1
ssVDrill Sergent
p1892
(dp1893
S'delay'
p1894
I0
sS'category'
p1895
Vstandard
p1896
sS'price'
p1897
I100
sS'actions'
p1898
(lp1899
(dp1900
S'target'
p1901
Vown
p1902
sS'level'
p1903
Vid
p1904
sS'type'
p1905
Vchange
p1906
sS'random'
p1907
F0.0
sS'num_units'
p1908
I0
sS'changes'
p1909
(dp1910
Vattack_min
p1911
I10
sVattack_max
p1912
I8
sVdelay_shoot
p1913
I-3
ssasS'num_uses'
p1914
I-1
ssVFallschirmspringer
p1915
(dp1916
g821
I20
sg822
Vstandard
p1917
sg824
I450
sg807
(lp1918
(dp1919
g79
Vnew
p1920
sg75
Vown
p1921
sg90
(lp1922
I0
aI0
aI2
asg77
Vgroups
p1923
sasg826
I-1
ssVSpionageausbildung
p1924
(dp1925
S'delay'
p1926
I0
sS'category'
p1927
Vupgrade
p1928
sS'price'
p1929
I170
sS'actions'
p1930
(lp1931
(dp1932
S'target'
p1933
S'self'
p1934
sS'level'
p1935
S'id'
p1936
sS'type'
p1937
S'change'
p1938
sS'random'
p1939
I0
sS'num_units'
p1940
I0
sS'changes'
p1941
(dp1942
Velite
p1943
I1
sg1930
(dp1944
VWirtschafts-Spionage
p1945
(dp1946
g1926
I40
sg1927
Vupgrade
p1947
sg1929
I80
sg1930
(lp1948
(dp1949
g1933
g1934
sg1935
g1936
sg1937
g1938
sg1939
I0
sg1940
I0
sg1941
(dp1950
g1930
(dp1951
VDieb
p1952
(dp1953
g1926
I60
sg1927
Vequipment
p1954
sg1929
I200
sg1930
(lp1955
(dp1956
g1937
Vchange
p1957
sg1939
F0.5
sg1941
(dp1958
Vaccount
p1959
I-150
ssg1933
Venemy
p1960
sg1935
Vplayer
p1961
sa(dp1962
g1937
Vchange
p1963
sg1939
F0.7
sg1941
(dp1964
Vaccount
p1965
I80
ssg1933
Vown
p1966
sg1935
Vplayer
p1967
sasS'num_uses'
p1968
I-1
ssssasg1968
I-1
ssVID-Spionage
p1969
(dp1970
g1926
I40
sg1927
Vequipment
p1971
sg1929
I70
sg1930
(lp1972
sg1968
I-1
ssssasg1968
I1
sssS'shield'
p1973
I10
sssI9
(dp1974
S'elite_parameters'
p1975
(dp1976
S'ticks'
p1977
(dp1978
I0
(lp1979
ssS'damage'
p1980
(dp1981
I0
(lp1982
sssS'basic_parameters'
p1983
(dp1984
S'delay_walk'
p1985
I0
sS'life'
p1986
I100
sS'walk_dist'
p1987
I0
sS'name'
p1988
VFlak
p1989
sS'num_enemies'
p1990
I3
sS'attack_min'
p1991
I60
sS'delay_shoot'
p1992
I15
sS'id'
p1993
I9
sS'unit_type'
p1994
Vvehicle
p1995
sS'max_life'
p1996
I100
sg55
I0
sS'attack_max'
p1997
I80
sS'shoot_dist'
p1998
I5
sS'price'
p1999
I200
sS'elite'
p2000
I0
sS'shield_factor'
p2001
F0.6
sS'actions'
p2002
(dp2003
Vnix
p2004
(dp2005
S'delay'
p2006
I0
sS'category'
p2007
S'upgrade'
p2008
sg1999
I0
sg2002
(lp2009
sS'num_uses'
p2010
I-1
sssS'shield'
p2011
I0
sssI10
(dp2012
S'elite_parameters'
p2013
(dp2014
S'ticks'
p2015
(dp2016
I0
(lp2017
(dp2018
g915
g916
sg917
g918
sg919
g920
sg921
I0
sg922
I0
sg923
(dp2019
sasI400
(lp2020
(dp2021
g915
g916
sg917
g918
sg919
g920
sg921
I0
sg922
I0
sg923
(dp2022
Vdelay_walk
p2023
I-2
sVelite
p2024
I1
ssassS'damage'
p2025
(dp2026
I0
(lp2027
sssS'basic_parameters'
p2028
(dp2029
S'delay_walk'
p2030
I11
sS'life'
p2031
I40
sS'walk_dist'
p2032
I6
sS'name'
p2033
VMotorrad
p2034
sS'num_enemies'
p2035
I4
sS'attack_min'
p2036
I5
sS'delay_shoot'
p2037
I15
sS'id'
p2038
I10
sS'unit_type'
p2039
Vvehicle
p2040
sS'max_life'
p2041
I40
sg55
I0
sS'attack_max'
p2042
I10
sS'shoot_dist'
p2043
I5
sg1897
I40
sS'elite'
p2044
I0
sS'shield_factor'
p2045
F0.45
sg1898
(dp2046
VSchutzweste
p2047
(dp2048
g1894
I0
sg1895
Vupgrade
p2049
sg1897
I30
sg1898
(lp2050
(dp2051
g1901
S'self'
p2052
sg1903
g2038
sg1905
S'change'
p2053
sg1907
I0
sg1908
I0
sg1909
(dp2054
Vmax_shield
p2055
I8
sVshield
p2056
I8
ssasg1914
I1
ssVneue Reifen
p2057
(dp2058
g1894
I0
sg1895
Vupgrade
p2059
sg1897
I20
sg1898
(lp2060
(dp2061
g1901
g2052
sg1903
g2038
sg1905
g2053
sg1907
I0
sg1908
I0
sg1909
(dp2062
Vwalk_dist
p2063
I1
sVelite
p2064
I1
sg1898
(dp2065
Vleichteres Motorrad
p2066
(dp2067
g1894
I0
sg1895
Vupgrade
p2068
sg1897
I30
sg1898
(lp2069
(dp2070
g1901
g2052
sg1903
g2038
sg1905
g2053
sg1907
I0
sg1908
I0
sg1909
(dp2071
Vdelay_walk
p2072
I-1
sVwalk_dist
p2073
I1
sVelite
p2074
I1
ssasg1914
I1
ssssasg1914
I1
ssVDrive by lernen
p2075
(dp2076
g1894
I0
sg1895
Vupgrade
p2077
sg1897
I30
sg1898
(lp2078
(dp2079
g1901
g2052
sg1903
g2038
sg1905
g2053
sg1907
I0
sg1908
I0
sg1909
(dp2080
Vattack_min
p2081
I7
sVelite
p2082
I1
sVattack_max
p2083
I5
ssasg1914
I1
sssS'shield'
p2084
I0
sssI11
(dp2085
S'elite_parameters'
p2086
(dp2087
S'ticks'
p2088
(dp2089
I0
(lp2090
ssS'damage'
p2091
(dp2092
I0
(lp2093
sssS'basic_parameters'
p2094
(dp2095
S'delay_walk'
p2096
I18
sS'life'
p2097
I80
sS'walk_dist'
p2098
I5
sS'name'
p2099
VJavelin
p2100
sS'num_enemies'
p2101
I2
sS'attack_min'
p2102
I8
sS'delay_shoot'
p2103
I20
sg1185
I11
sS'unit_type'
p2104
Vsoldier
p2105
sS'max_life'
p2106
I80
sg55
I50
sS'attack_max'
p2107
I12
sS'shoot_dist'
p2108
I9
sg1178
I200
sS'elite'
p2109
I0
sS'shield_factor'
p2110
F2.5
sg1179
(dp2111
Vschneller ziehen
p2112
(dp2113
g262
I0
sg263
Vupgrade
p2114
sg265
I30
sg266
(lp2115
(dp2116
g269
g270
sg271
g272
sg273
g274
sg275
I0
sg276
I0
sg277
(dp2117
Vdelay_walk
p2118
I-3
sVelite
p2119
I1
ssasg288
I1
ssVschneller laden
p2120
(dp2121
S'delay'
p2122
I0
sS'category'
p2123
Vupgrade
p2124
sS'price'
p2125
I40
sS'actions'
p2126
(lp2127
(dp2128
S'target'
p2129
S'self'
p2130
sS'level'
p2131
S'id'
p2132
sS'type'
p2133
S'change'
p2134
sS'random'
p2135
I0
sS'num_units'
p2136
I0
sS'changes'
p2137
(dp2138
Velite
p2139
I1
sVdelay_shoot
p2140
I-4
ssasS'num_uses'
p2141
I1
ssVgroessere Sprengkraft
p2142
(dp2143
g2122
I0
sg2123
Vupgrade
p2144
sg2125
I30
sg2126
(lp2145
(dp2146
g2129
g2130
sg2131
g2132
sg2133
g2134
sg2135
I0
sg2136
I0
sg2137
(dp2147
Vnum_enemies
p2148
I2
sVattack_min
p2149
I2
sVelite
p2150
I1
sVattack_max
p2151
I3
sg2126
(dp2152
Vneue Sprengtechnologie
p2153
(dp2154
g2122
I0
sg2123
Vupgrade
p2155
sg2125
I40
sg2126
(lp2156
(dp2157
g2129
g2130
sg2131
g2132
sg2133
g2134
sg2135
I0
sg2136
I0
sg2137
(dp2158
Vshield_factor
p2159
F0.4
sVelite
p2160
I1
ssasg2141
I1
ssssasg2141
I1
sssS'shield'
p2161
I50
sssI12
(dp2162
S'elite_parameters'
p2163
(dp2164
S'ticks'
p2165
(dp2166
I0
(lp2167
ssS'damage'
p2168
(dp2169
I0
(lp2170
sssS'basic_parameters'
p2171
(dp2172
S'delay_walk'
p2173
I0
sS'life'
p2174
I80
sS'walk_dist'
p2175
I0
sS'name'
p2176
VMG-Nest mit Panzerabwehr
p2177
sS'shield_factor'
p2178
F2.5
sS'num_enemies'
p2179
I4
sS'attack_min'
p2180
I10
sS'delay_shoot'
p2181
I15
sS'unit_type'
p2182
Vsoldier
p2183
sS'max_life'
p2184
I80
sS'max_shield'
p2185
I20
sS'attack_max'
p2186
I15
sS'shoot_dist'
p2187
I7
sS'price'
p2188
I210
sS'elite'
p2189
I0
sS'id'
p2190
I12
sS'actions'
p2191
(dp2192
V
p2193
(dp2194
S'delay'
p2195
I0
sS'category'
p2196
S'upgrade'
p2197
sS'price'
p2198
I0
sS'actions'
p2199
(lp2200
sS'num_uses'
p2201
I-1
sssS'shield'
p2202
I20
ssssS'engine_parameters'
p2203
(dp2204
S'max_victory_diff'
p2205
F350.0
sS'start_account'
p2206
F200.0
sS'all_sectors'
p2207
(dp2208
I1
(dp2209
S'victory'
p2210
I0
sS'weight'
p2211
F1.0
ssI2
(dp2212
g2210
I0
sg2211
F1.0
ssI3
(dp2213
g2210
I0
sg2211
F1.0
ssI4
(dp2214
g2210
I0
sg2211
F1.0
ssI5
(dp2215
g2210
I2
sg2211
F1.0
ssI6
(dp2216
g2210
I0
sg2211
F1.0
ssI7
(dp2217
g2210
I0
sg2211
F1.0
ssI8
(dp2218
g2210
I0
sg2211
F1.0
ssI9
(dp2219
g2210
I1
sg2211
F1.0
ssI10
(dp2220
g2210
I1
sg2211
F1.0
ssI11
(dp2221
g2210
I0
sg2211
F1.0
ssI12
(dp2222
g2210
I0
sg2211
F1.0
ssI13
(dp2223
g2210
I0
sg2211
F1.0
ssI14
(dp2224
g2210
I0
sg2211
F1.0
ssI15
(dp2225
g2210
I0
sg2211
F1.0
ssI16
(dp2226
g2210
I2
sg2211
F1.0
ssI17
(dp2227
g2210
I0
sg2211
F1.0
ssI18
(dp2228
g2210
I0
sg2211
F1.0
sssS'delay_damage'
p2229
F0.5
sS'extra_shoot_dist'
p2230
F2.0
sS'per_sector_per_tick'
p2231
F1.0
sS'take_over_factor'
p2232
F1.3
sS'tick_duration'
p2233
F11.0
sS'protection_effect'
p2234
F0.4
sS'protection_in'
p2235
F18.0
sS'sector_takeover'
p2236
F100.0
sS'protection_out'
p2237
F10.0
sS'constant_per_tick'
p2238
F4.0
ssS'transport_parameters'
p2239
(dp2240
I0
(dp2241
g154
(dp2242
g156
(dp2243
I0
(lp2244
ssg159
(dp2245
I0
(lp2246
sssg162
(dp2247
S'delay_walk'
p2248
I15
sg164
I100
sS'walk_dist'
p2249
I10
sg167
I10
sg168
VTransporter
p2250
sS'transports'
p2251
Vsoldier
p2252
sg170
F0.4
sg171
I0
sg172
I25
sg173
I20
sg176
I10
sg175
I200
sg177
I100
sg55
I25
sg178
I8
sg181
I5
sg182
(dp2253
VPanzerung
p2254
(dp2255
S'delay'
p2256
I0
sS'category'
p2257
Vupgrade
p2258
sS'price'
p2259
I50
sS'actions'
p2260
(lp2261
(dp2262
g689
g690
sg691
g692
sg693
g694
sg695
I0
sg696
I0
sg697
(dp2263
Vdelay_walk
p2264
I3
sVelite
p2265
I1
sVshield
p2266
I40
sg2260
(dp2267
VCasspir
p2268
(dp2269
g2256
I0
sg2257
Vupgrade
p2270
sg2259
I70
sg2260
(lp2271
(dp2272
g689
g690
sg691
g692
sg693
g694
sg695
I0
sg696
I0
sg697
(dp2273
Vdelay_walk
p2274
I-5
sVelite
p2275
I1
sVshield
p2276
I50
sVmax_shield
p2277
I40
ssasS'num_uses'
p2278
I1
sssVmax_shield
p2279
I30
ssasg2278
I1
ssVMG
p2280
(dp2281
g2256
I0
sg2257
Vupgrade
p2282
sg2259
I40
sg2260
(lp2283
(dp2284
g689
Vself
p2285
sg691
Vid
p2286
sg693
Vchange
p2287
sg695
F0.0
sg696
I0
sg697
(dp2288
Vattack_min
p2289
I20
sVelite
p2290
I1
sVattack_max
p2291
I40
sg2260
(dp2292
VKampfmaschine
p2293
(dp2294
g2256
I0
sg2257
Vupgrade
p2295
sg2259
I80
sg2260
(lp2296
(dp2297
g689
g690
sg691
g692
sg693
g694
sg695
I0
sg696
I0
sg697
(dp2298
Vshield_factor
p2299
F0.2
sVattack_min
p2300
I30
sVelite
p2301
I1
sVattack_max
p2302
I30
ssasg2278
I1
ssssasg2278
I1
ssVSpeed up (laden & ziehen)
p2303
(dp2304
g610
I0
sg611
Vupgrade
p2305
sg613
I30
sg614
(lp2306
(dp2307
g208
g617
sg212
g618
sg206
g619
sg620
I0
sg621
I0
sg622
(dp2308
Vdelay_walk
p2309
I-2
sVelite
p2310
I1
sVdelay_shoot
p2311
I-2
sg614
(dp2312
VSpeed up (nur ziehen)
p2313
(dp2314
g610
I0
sg611
Vupgrade
p2315
sg613
I40
sg614
(lp2316
(dp2317
g208
g617
sg212
g618
sg206
g619
sg620
I0
sg621
I0
sg622
(dp2318
Vdelay_walk
p2319
I-2
sVwalk_dist
p2320
I1
sVelite
p2321
I1
ssasg639
I1
ssssasg639
I1
ssVmehr Platz I
p2322
(dp2323
g2256
I0
sg2257
Vupgrade
p2324
sg2259
I30
sg2260
(lp2325
(dp2326
g689
g690
sg691
g692
sg693
g694
sg695
I0
sg696
I0
sg697
(dp2327
Velite
p2328
I1
sVcapacity
p2329
I5
sg2260
(dp2330
Vmehr Platz II
p2331
(dp2332
g2256
I0
sg2257
Vupgrade
p2333
sg2259
I40
sg2260
(lp2334
(dp2335
g689
g690
sg691
g692
sg693
g694
sg695
I0
sg696
I0
sg697
(dp2336
Velite
p2337
I1
sVcapacity
p2338
I8
ssasg2278
I1
ssssasg2278
I1
sssg327
I0
sg174
I0
sg330
I4
sg331
I0
sssI1
(dp2339
g333
(dp2340
g335
(dp2341
I0
(lp2342
ssg338
(dp2343
I0
(lp2344
sssg341
(dp2345
S'delay_walk'
p2346
I15
sg343
I100
sS'walk_dist'
p2347
I10
sg346
I10
sg347
VHelikopter
p2348
sS'transports'
p2349
Vsoldier
p2350
sg364
F0.4
sg351
I0
sg352
I50
sg353
I20
sg356
I10
sg355
I200
sg357
I100
sg55
I50
sg358
I8
sg361
I6
sg365
(dp2351
VBombe abwerfen
p2352
(dp2353
g369
I15
sg370
Vstandard
p2354
sg355
I80
sg365
(lp2355
(dp2356
g374
Venemy
p2357
sg376
Vid
p2358
sg378
Vchange
p2359
sg380
F0.3
sg381
I7
sg382
(dp2360
Vlife
p2361
I-6
sg365
(dp2362
ssasg385
I-1
ssVschneller fliegen
p2363
(dp2364
S'delay'
p2365
I0
sS'category'
p2366
Vupgrade
p2367
sS'price'
p2368
I30
sS'actions'
p2369
(lp2370
(dp2371
S'target'
p2372
S'self'
p2373
sS'level'
p2374
S'id'
p2375
sS'type'
p2376
S'change'
p2377
sS'random'
p2378
I0
sS'num_units'
p2379
I0
sS'changes'
p2380
(dp2381
Vdelay_walk
p2382
I-3
sg2369
(dp2383
Vsuper Speed
p2384
(dp2385
g2365
I0
sg2366
Vupgrade
p2386
sg2368
I50
sg2369
(lp2387
(dp2388
g2372
g2373
sg2374
g2375
sg2376
g2377
sg2378
I0
sg2379
I0
sg2380
(dp2389
Vdelay_walk
p2390
I-2
sVwalk_dist
p2391
I1
ssasS'num_uses'
p2392
I1
ssssasg2392
I1
sssg363
I0
sg354
I1
sg362
I4
sg428
I0
sssI2
(dp2393
S'elite_parameters'
p2394
(dp2395
S'ticks'
p2396
(dp2397
I0
(lp2398
ssS'damage'
p2399
(dp2400
I0
(lp2401
sssS'basic_parameters'
p2402
(dp2403
S'delay_walk'
p2404
I18
sS'life'
p2405
I150
sS'walk_dist'
p2406
I9
sS'capacity'
p2407
I3
sS'name'
p2408
VFahrzeug Transporter
p2409
sS'elite'
p2410
I0
sS'shield_factor'
p2411
F0.4
sS'attack_min'
p2412
I0
sS'delay_shoot'
p2413
I15
sg453
I2
sg446
I300
sS'max_life'
p2414
I150
sg55
I20
sS'delay_out'
p2415
I15
sS'attack_max'
p2416
I0
sg447
(dp2417
Vmehr Platz
p2418
(dp2419
g443
I0
sg444
Vupgrade
p2420
sg446
I50
sg447
(lp2421
(dp2422
g450
g451
sg452
g453
sg454
g455
sg456
I0
sg457
I0
sg458
(dp2423
Vcapacity
p2424
I2
ssasg463
I1
sssS'shoot_dist'
p2425
I5
sS'transports'
p2426
Vvehicle
p2427
sS'delay_in'
p2428
I25
sS'num_enemies'
p2429
I4
sS'shield'
p2430
I20
ssssS'card_parameters'
p2431
(dp2432
I200
(lp2433
(dp2434
S'description'
p2435
VEine Gruppe kann in einen Helikopter verladen werden und deshalb 10 pro Runde ziehen.
p2436
sS'num_cards'
p2437
I10
sg2260
(lp2438
(dp2439
S'target'
p2440
S'self'
p2441
sS'level'
p2442
S'id'
p2443
sS'type'
p2444
S'change'
p2445
sS'random'
p2446
F0.0
sS'num_units'
p2447
I0
sS'changes'
p2448
(dp2449
sasS'title'
p2450
VHelitransport
p2451
sa(dp2452
S'title'
p2453
VGiftgas
p2454
sS'description'
p2455
VAlle Einheiten werden verwundet. Gegnerische staerker als eigene
p2456
sg1275
(lp2457
(dp2458
S'target'
p2459
S'enemy'
p2460
sS'level'
p2461
S'id'
p2462
sS'type'
p2463
S'change'
p2464
sS'random'
p2465
F0.3
sS'num_units'
p2466
S'all'
p2467
sS'changes'
p2468
(dp2469
Vlife
p2470
I-8
ssa(dp2471
g2459
Vown
p2472
sg2461
Vid
p2473
sg2463
Vchange
p2474
sg2465
F0.3
sg2466
Vall
p2475
sg2468
(dp2476
Vlife
p2477
I-2
ssasS'num_cards'
p2478
I7
sa(dp2479
S'num_cards'
p2480
I12
sS'description'
p2481
VDescription
p2482
sS'actions'
p2483
(lp2484
(dp2485
g2459
Vown
p2486
sg2461
Vid
p2487
sg2463
Vchange
p2488
sg2465
F0.2
sg2466
I6
sg2468
(dp2489
Vlife
p2490
I20
ssasS'title'
p2491
VFeldapotheke
p2492
sa(dp2493
S'description'
p2494
VDescription
p2495
sS'num_cards'
p2496
I1
sS'actions'
p2497
(lp2498
(dp2499
g2444
S'new'
p2500
sg2440
S'own'
p2501
sS'parameters'
p2502
I0
sg2442
S'buildings'
p2503
sa(dp2504
g2440
S'self'
p2505
sg2442
S'id'
p2506
sg2444
S'change'
p2507
sg2446
F0.0
sg2447
I0
sg2448
(dp2508
Vlife
p2509
I0
ssasS'title'
p2510
VUnnamed Card
p2511
sa(dp2512
S'num_cards'
p2513
I4
sS'description'
p2514
Veine eigene Gruppe kann geheilt werden
p2515
sS'actions'
p2516
(lp2517
(dp2518
S'target'
p2519
S'self'
p2520
sS'level'
p2521
S'id'
p2522
sS'type'
p2523
S'change'
p2524
sS'random'
p2525
I0
sS'num_units'
p2526
S''
p2527
sS'changes'
p2528
(dp2529
Vlife
p2530
I0
ssasS'title'
p2531
Vmittleres Heilen
p2532
sass.