(dp0
S'building_parameters'
p1
(dp2
I0
(dp3
S'elite_parameters'
p4
(dp5
S'ticks'
p6
(dp7
I0
(lp8
ssS'damage'
p9
(dp10
I0
(lp11
sssS'basic_parameters'
p12
(dp13
S'life'
p14
I800
sS'shop_transporter'
p15
(lp16
sS'capacity'
p17
I25
sS'name'
p18
VHauptquartier
p19
sS'delay_out'
p20
I10
sS'shield_factor'
p21
F0.4
sS'attack_min'
p22
I0
sS'shield'
p23
I100
sS'delay_shoot'
p24
I15
sS'delay_in'
p25
I20
sS'price'
p26
I1000
sS'max_life'
p27
I800
sS'max_shield'
p28
I100
sS'actions'
p29
(dp30
VArzneistudium +
p31
(dp32
S'delay'
p33
I0
sS'category'
p34
Vupgrade
p35
sS'price'
p36
I400
sS'actions'
p37
(lp38
(dp39
S'target'
p40
S'self'
p41
sS'level'
p42
S'id'
p43
sS'type'
p44
S'change'
p45
sS'random'
p46
I0
sS'num_units'
p47
I0
sS'changes'
p48
(dp49
Vshop_units
p50
(lp51
I6
assa(dp52
g44
Vnew
p53
sg40
Vown
p54
sS'parameters'
p55
(lp56
I6
asg42
Vgroups
p57
sasS'num_uses'
p58
I1
ssVKommandant +
p59
(dp60
S'delay'
p61
I0
sS'category'
p62
Vupgrade
p63
sS'price'
p64
I500
sS'actions'
p65
(lp66
(dp67
S'target'
p68
S'self'
p69
sS'level'
p70
S'id'
p71
sS'type'
p72
S'change'
p73
sS'random'
p74
I0
sS'num_units'
p75
I0
sS'changes'
p76
(dp77
Vshop_units
p78
(lp79
I8
assa(dp80
S'type'
p81
Vnew
p82
sS'target'
p83
Vown
p84
sS'parameters'
p85
(lp86
I8
asS'level'
p87
Vgroups
p88
sasS'num_uses'
p89
I1
ssVHelikopter-Plattform +
p90
(dp91
S'delay'
p92
I0
sS'category'
p93
Vupgrade
p94
sS'price'
p95
I400
sS'actions'
p96
(lp97
(dp98
S'target'
p99
S'self'
p100
sS'level'
p101
S'id'
p102
sS'type'
p103
S'change'
p104
sS'random'
p105
I0
sS'num_units'
p106
I0
sS'changes'
p107
(dp108
Vshop_transporter
p109
(lp110
I1
assa(dp111
g103
Vnew
p112
sg99
Vown
p113
sS'parameters'
p114
I1
sg101
Vtransporter
p115
sasS'num_uses'
p116
I1
sssS'enter'
p117
Vsoldier
p118
sS'id'
p119
I0
sS'shoot_dist'
p120
I6
sS'elite'
p121
I0
sS'shop_units'
p122
(lp123
I1
aI10
asS'num_enemies'
p124
I4
sS'attack_max'
p125
I0
sssI1
(dp126
S'elite_parameters'
p127
(dp128
S'ticks'
p129
(dp130
I500
(lp131
ssS'damage'
p132
(dp133
I0
(lp134
sssS'basic_parameters'
p135
(dp136
S'life'
p137
I600
sS'shop_transporter'
p138
(lp139
sS'capacity'
p140
I15
sS'name'
p141
VKaserne
p142
sS'shield_factor'
p143
F0.4
sS'elite'
p144
I0
sS'shop_units'
p145
(lp146
I0
asS'attack_min'
p147
I0
sS'delay_shoot'
p148
I15
sS'delay_in'
p149
I20
sS'price'
p150
I600
sS'max_life'
p151
I600
sg28
I80
sS'actions'
p152
(dp153
VSniper +
p154
(dp155
S'delay'
p156
I0
sS'category'
p157
Vupgrade
p158
sS'price'
p159
I200
sS'actions'
p160
(lp161
(dp162
S'target'
p163
S'self'
p164
sS'level'
p165
S'id'
p166
sS'type'
p167
S'change'
p168
sS'random'
p169
I0
sS'num_units'
p170
I0
sS'changes'
p171
(dp172
Vshop_units
p173
(lp174
I3
assa(dp175
S'type'
p176
Vnew
p177
sS'target'
p178
Vown
p179
sS'parameters'
p180
(lp181
I3
asS'level'
p182
Vgroups
p183
sasS'num_uses'
p184
I1
ssVVerteidigung
p185
(dp186
S'delay'
p187
I20
sS'category'
p188
Vupgrade
p189
sS'price'
p190
I100
sS'actions'
p191
(lp192
(dp193
S'target'
p194
S'self'
p195
sS'level'
p196
S'id'
p197
sS'type'
p198
S'change'
p199
sS'random'
p200
I0
sS'num_units'
p201
I0
sS'changes'
p202
(dp203
Vattack_min
p204
I20
sVattack_max
p205
I40
ssasS'num_uses'
p206
I1
ssVMG-Soldat
p207
(dp208
S'delay'
p209
I0
sS'category'
p210
Vupgrade
p211
sS'price'
p212
I250
sS'actions'
p213
(lp214
(dp215
g194
g195
sg196
g197
sg198
g199
sg200
I0
sg201
I0
sg202
(dp216
Vshop_units
p217
(lp218
I2
asVelite
p219
I1
sS'actions'
p220
(dp221
VCyborg
p222
(dp223
S'delay'
p224
I0
sS'category'
p225
Vupgrade
p226
sS'price'
p227
I200
sg220
(lp228
(dp229
S'target'
p230
S'self'
p231
sS'level'
p232
S'id'
p233
sS'type'
p234
S'change'
p235
sS'random'
p236
I0
sS'num_units'
p237
I0
sS'changes'
p238
(dp239
Vshop_units
p240
(lp241
I7
asVelite
p242
I1
ssasS'num_uses'
p243
I1
ssVMG-Soldat Ausbildung
p244
(dp245
S'delay'
p246
I0
sS'category'
p247
Vequipment
p248
sS'price'
p249
I0
sS'actions'
p250
(lp251
(dp252
S'target'
p253
Vown
p254
sS'level'
p255
Vid
p256
sS'type'
p257
Vchange
p258
sS'random'
p259
F0.0
sS'num_units'
p260
I1
sS'changes'
p261
(dp262
Vshop_units
p263
(lp264
I2
assasS'num_uses'
p265
I-1
ssssasS'num_uses'
p266
I1
ssVJavelin +
p267
(dp268
S'delay'
p269
I0
sS'category'
p270
Vupgrade
p271
sS'price'
p272
I400
sS'actions'
p273
(lp274
(dp275
S'target'
p276
S'self'
p277
sS'level'
p278
S'id'
p279
sS'type'
p280
S'change'
p281
sS'random'
p282
I0
sS'num_units'
p283
I0
sS'changes'
p284
(dp285
Vshop_units
p286
(lp287
I11
asVelite
p288
I1
ssa(dp289
g280
Vnew
p290
sg276
Vown
p291
sS'parameters'
p292
(lp293
I11
asg278
Vgroups
p294
sasS'num_uses'
p295
I1
sssS'attack_max'
p296
I0
sS'enter'
p297
Vsoldier
p298
sS'shoot_dist'
p299
I6
sS'delay_out'
p300
I10
sS'id'
p301
I1
sS'num_enemies'
p302
I4
sS'shield'
p303
I80
sssI2
(dp304
S'elite_parameters'
p305
(dp306
S'ticks'
p307
(dp308
I0
(lp309
ssS'damage'
p310
(dp311
I0
(lp312
sssS'basic_parameters'
p313
(dp314
S'delay_out'
p315
I10
sS'life'
p316
I500
sS'shop_transporter'
p317
(lp318
sS'capacity'
p319
I10
sS'name'
p320
VLazarett
p321
sS'shield_factor'
p322
F0.4
sS'shop_units'
p323
(lp324
sS'attack_min'
p325
I0
sS'delay_shoot'
p326
I15
sS'delay_in'
p327
I20
sS'price'
p328
I500
sS'max_life'
p329
I500
sg28
I75
sS'actions'
p330
(dp331
V10x heilen
p332
(dp333
S'delay'
p334
I50
sS'category'
p335
Vstandard
p336
sg328
I400
sg330
(lp337
(dp338
S'target'
p339
Vown
p340
sS'level'
p341
Vid
p342
sS'type'
p343
Vchange
p344
sS'random'
p345
F0.0
sS'num_units'
p346
I0
sS'changes'
p347
(dp348
Vlife
p349
I50
ssasS'num_uses'
p350
I-1
ssV1x heilen
p351
(dp352
g334
I40
sg335
Vstandard
p353
sg328
I70
sg330
(lp354
(dp355
g339
Vown
p356
sg341
Vid
p357
sg343
Vchange
p358
sg345
F0.0
sg346
I1
sg347
(dp359
Vlife
p360
I50
ssasg350
I-1
ssVArztneistudium
p361
(dp362
S'delay'
p363
I0
sS'category'
p364
Vupgrade
p365
sS'price'
p366
I200
sS'actions'
p367
(lp368
(dp369
S'target'
p370
S'self'
p371
sS'level'
p372
S'id'
p373
sS'type'
p374
S'change'
p375
sS'random'
p376
I0
sS'num_units'
p377
I0
sS'changes'
p378
(dp379
Vshop_units
p380
(lp381
I6
assasS'num_uses'
p382
I1
ssV5x heilen
p383
(dp384
g334
I50
sg335
Vstandard
p385
sg328
I200
sg330
(lp386
(dp387
g339
Vown
p388
sg341
Vid
p389
sg343
Vchange
p390
sg345
F0.0
sg346
I5
sg347
(dp391
Vlife
p392
I50
ssasg350
I-1
sssS'attack_max'
p393
I0
sS'enter'
p394
Vsoldier
p395
sS'shoot_dist'
p396
I6
sS'elite'
p397
I0
sS'id'
p398
I2
sS'num_enemies'
p399
I4
sS'shield'
p400
I75
sssI3
(dp401
g305
(dp402
g307
(dp403
I0
(lp404
ssg310
(dp405
I0
(lp406
sssg313
(dp407
g315
I10
sg316
I500
sg317
(lp408
I0
asg319
I10
sg320
VWerkstatt
p409
sg322
F0.4
sg323
(lp410
I4
asg325
I0
sg326
I15
sg327
I20
sg328
I700
sg329
I500
sg28
I80
sg330
(dp411
VFahrzeug Transporter
p412
(dp413
S'delay'
p414
I0
sS'category'
p415
Vupgrade
p416
sS'price'
p417
I150
sS'actions'
p418
(lp419
(dp420
S'target'
p421
S'self'
p422
sS'level'
p423
S'id'
p424
sS'type'
p425
S'change'
p426
sS'random'
p427
I0
sS'num_units'
p428
I0
sS'changes'
p429
(dp430
Vshop_transporter
p431
(lp432
I2
asVelite
p433
I1
ssasS'num_uses'
p434
I1
ssVArtillerie
p435
(dp436
S'delay'
p437
I0
sS'category'
p438
Vupgrade
p439
sS'price'
p440
I300
sS'actions'
p441
(lp442
(dp443
S'target'
p444
S'self'
p445
sS'level'
p446
S'id'
p447
sS'type'
p448
S'change'
p449
sS'random'
p450
I0
sS'num_units'
p451
I0
sS'changes'
p452
(dp453
Vshop_units
p454
(lp455
I5
asVelite
p456
I1
ssasS'num_uses'
p457
I1
ssVVerteidigung
p458
(dp459
S'delay'
p460
I0
sS'category'
p461
Vupgrade
p462
sS'price'
p463
I50
sS'actions'
p464
(lp465
(dp466
g370
g371
sg372
g373
sg374
g375
sg376
I0
sg377
I0
sg378
(dp467
Vattack_min
p468
I30
sVattack_max
p469
I50
ssasS'num_uses'
p470
I1
sssg393
I0
sg394
Vvehicle
p471
sg396
I6
sg397
I0
sg398
I3
sg399
I4
sg400
I80
sssI4
(dp472
g305
(dp473
g307
(dp474
I0
(lp475
ssg310
(dp476
I0
(lp477
sssg313
(dp478
g315
I10
sg316
I600
sg317
(lp479
sg319
I15
sg320
VFlughafen
p480
sg322
F0.4
sg323
(lp481
sg325
I0
sg326
I15
sg327
I20
sg328
I400
sg329
I600
sg28
I50
sg330
(dp482
VFlak & Verteidigung
p483
(dp484
g414
I0
sg415
Vupgrade
p485
sg417
I100
sg418
(lp486
(dp487
g421
g422
sg423
g424
sg425
g426
sg427
I0
sg428
I0
sg429
(dp488
Vshop_units
p489
(lp490
I9
asVattack_min
p491
I30
sVelite
p492
I1
sVattack_max
p493
I50
ssasg434
I1
ssVHelikopter Landeplattform
p494
(dp495
g334
I0
sg335
Vupgrade
p496
sg328
I400
sg330
(lp497
(dp498
g339
S'self'
p499
sg341
g398
sg343
S'change'
p500
sg345
I0
sg346
I0
sg347
(dp501
Vshop_transporter
p502
(lp503
I1
asVelite
p504
I1
sS'actions'
p505
(dp506
VFallschirmspringer
p507
(dp508
S'delay'
p509
I0
sS'category'
p510
S'upgrade'
p511
sS'price'
p512
I0
sS'actions'
p513
(lp514
sS'num_uses'
p515
I-1
ssssasg350
I1
sssg393
I0
sg394
Vvehicle
p516
sg396
I6
sg397
I0
sg398
I4
sg399
I4
sg400
I50
sssI5
(dp517
S'elite_parameters'
p518
(dp519
S'ticks'
p520
(dp521
I0
(lp522
ssS'damage'
p523
(dp524
I0
(lp525
sssS'basic_parameters'
p526
(dp527
S'life'
p528
I100
sS'shop_transporter'
p529
(lp530
sS'capacity'
p531
I0
sS'name'
p532
Vnix
p533
sS'shop_units'
p534
(lp535
sS'attack_min'
p536
I60
sS'shield'
p537
I0
sS'delay_shoot'
p538
I15
sS'delay_in'
p539
I0
sS'price'
p540
I200
sS'actions'
p541
(dp542
Vnix
p543
(dp544
S'delay'
p545
I0
sS'category'
p546
S'upgrade'
p547
sg540
I0
sg541
(lp548
sS'num_uses'
p549
I-1
sssS'max_life'
p550
I100
sg28
I0
sS'delay_out'
p551
I0
sS'enter'
p552
Vsoldier
p553
sS'id'
p554
I5
sS'shoot_dist'
p555
I5
sS'elite'
p556
I0
sS'shield_factor'
p557
F0.6
sS'num_enemies'
p558
I3
sS'attack_max'
p559
I80
sssI6
(dp560
g518
(dp561
g520
(dp562
I0
(lp563
ssg523
(dp564
I0
(lp565
sssg526
(dp566
g528
I80
sg529
(lp567
sg531
I5
sg532
VMG-Nest
p568
sg534
(lp569
sg536
I20
sg537
I20
sg538
I15
sg539
I15
sg540
I100
sg541
(dp570
Vzweites Geschuetz
p571
(dp572
S'delay'
p573
I0
sS'category'
p574
Vupgrade
p575
sS'price'
p576
I50
sS'actions'
p577
(lp578
sS'num_uses'
p579
I1
ssVPanzerabwehr
p580
(dp581
S'delay'
p582
I20
sS'category'
p583
Vupgrade
p584
sS'price'
p585
I150
sS'actions'
p586
(lp587
(dp588
g178
S'self'
p589
sg182
S'id'
p590
sg176
S'change'
p591
sS'random'
p592
I0
sS'num_units'
p593
I0
sS'changes'
p594
(dp595
Vshoot_dist
p596
I1
sVattack_min
p597
I-10
sVelite
p598
I2
sVshield_factor
p599
F2.0
sVattack_max
p600
I-20
ssasS'num_uses'
p601
I1
ssVBetonguss
p602
(dp603
g582
I0
sg583
Vupgrade
p604
sg585
I50
sg586
(lp605
(dp606
g178
g589
sg182
g590
sg176
g591
sg592
I0
sg593
I0
sg594
(dp607
Vmax_shield
p608
I15
sVelite
p609
I1
sVshield
p610
I30
ssasg601
I1
sssg550
I80
sg28
I20
sg551
I10
sg552
Vsoldier
p611
sg554
I6
sg555
I6
sg556
I0
sg557
F0.5
sg558
I4
sg559
I35
ssssS'card_parameters'
p612
(dp613
I200
(lp614
(dp615
S'title'
p616
VHelitransport
p617
sS'description'
p618
VEine Gruppe kann in einen Helikopter verladen werden und deshalb 10 pro Runde ziehen.
p619
sS'actions'
p620
(lp621
(dp622
S'target'
p623
S'self'
p624
sS'level'
p625
S'id'
p626
sS'type'
p627
S'change'
p628
sS'random'
p629
F0.0
sS'num_units'
p630
I0
sS'changes'
p631
(dp632
sasS'num_cards'
p633
I10
sa(dp634
S'num_cards'
p635
I7
sS'description'
p636
VAlle Einheiten werden verwundet. Gegnerische staerker als eigene
p637
sS'actions'
p638
(lp639
(dp640
S'target'
p641
S'enemy'
p642
sS'level'
p643
S'id'
p644
sS'type'
p645
S'change'
p646
sS'random'
p647
F0.3
sS'num_units'
p648
S'all'
p649
sS'changes'
p650
(dp651
Vlife
p652
I-8
ssa(dp653
g641
Vown
p654
sg643
Vid
p655
sg645
Vchange
p656
sg647
F0.3
sg648
Vall
p657
sg650
(dp658
Vlife
p659
I-2
ssasS'title'
p660
VGiftgas
p661
sa(dp662
S'title'
p663
VFeldapotheke
p664
sS'num_cards'
p665
I12
sS'actions'
p666
(lp667
(dp668
g641
Vown
p669
sg643
Vid
p670
sg645
Vchange
p671
sg647
F0.2
sg648
I6
sg650
(dp672
Vlife
p673
I20
ssasS'description'
p674
VDescription
p675
sa(dp676
S'title'
p677
VUnnamed Card
p678
sS'description'
p679
VDescription
p680
sS'actions'
p681
(lp682
(dp683
g627
S'new'
p684
sg623
S'own'
p685
sS'parameters'
p686
I0
sg625
S'buildings'
p687
sa(dp688
g623
S'self'
p689
sg625
S'id'
p690
sg627
S'change'
p691
sg629
F0.0
sg630
I0
sg631
(dp692
Vlife
p693
I0
ssasS'num_cards'
p694
I1
sa(dp695
S'title'
p696
Vmittleres Heilen
p697
sS'num_cards'
p698
I4
sS'actions'
p699
(lp700
(dp701
S'target'
p702
S'self'
p703
sS'level'
p704
S'id'
p705
sS'type'
p706
S'change'
p707
sS'random'
p708
I0
sS'num_units'
p709
S''
p710
sS'changes'
p711
(dp712
Vlife
p713
I0
ssasS'description'
p714
Veine eigene Gruppe kann geheilt werden
p715
sassS'engine_parameters'
p716
(dp717
S'constant_per_tick'
p718
F4.0
sS'all_sectors'
p719
(dp720
I1
(dp721
S'victory'
p722
I0
sS'weight'
p723
F1.0
ssI2
(dp724
g722
I0
sg723
F1.0
ssI3
(dp725
g722
I0
sg723
F1.0
ssI4
(dp726
g722
I0
sg723
F1.0
ssI5
(dp727
g722
I0
sg723
F1.0
ssI6
(dp728
g722
I0
sg723
F1.0
ssI7
(dp729
g722
I0
sg723
F1.0
ssI8
(dp730
g722
I0
sg723
F1.0
ssI9
(dp731
g722
I0
sg723
F1.0
ssI10
(dp732
g722
I0
sg723
F1.0
ssI11
(dp733
g722
I0
sg723
F1.0
ssI12
(dp734
g722
I1
sg723
F1.0
ssI13
(dp735
g722
I0
sg723
F1.0
ssI14
(dp736
g722
I1
sg723
F1.0
ssI15
(dp737
g722
I0
sg723
F1.0
ssI16
(dp738
g722
I0
sg723
F1.0
ssI17
(dp739
g722
I0
sg723
F1.0
ssI18
(dp740
g722
I0
sg723
F1.0
ssI19
(dp741
g722
I0
sg723
F1.0
ssI20
(dp742
g722
I0
sg723
F1.0
ssI21
(dp743
g722
I0
sg723
F1.0
ssI22
(dp744
g722
I0
sg723
F1.0
ssI23
(dp745
g722
I1
sg723
F1.0
ssI24
(dp746
g722
I0
sg723
F1.0
sssS'delay_damage'
p747
F0.5
sS'start_account'
p748
F200.0
sS'extra_shoot_dist'
p749
F2.0
sS'per_sector_per_tick'
p750
F1.0
sS'protection_in'
p751
F18.0
sS'tick_duration'
p752
F11.0
sS'protection_effect'
p753
F0.4
sS'take_over_factor'
p754
F1.3
sS'sector_takeover'
p755
F100.0
sS'protection_out'
p756
F10.0
sS'max_victory_diff'
p757
F200.0
ssS'transport_parameters'
p758
(dp759
I0
(dp760
g127
(dp761
g129
(dp762
I0
(lp763
ssg132
(dp764
I0
(lp765
sssg135
(dp766
S'delay_walk'
p767
I15
sg137
I100
sS'walk_dist'
p768
I10
sg140
I10
sg141
VTransporter
p769
sg144
I0
sg143
F0.4
sg147
I0
sg148
I20
sg301
I0
sg150
I200
sg151
I100
sg28
I25
sg300
I8
sg296
I0
sg152
(dp770
VPanzerung
p771
(dp772
S'delay'
p773
I0
sS'category'
p774
Vupgrade
p775
sS'price'
p776
I50
sg620
(lp777
(dp778
S'target'
p779
S'self'
p780
sS'level'
p781
S'id'
p782
sS'type'
p783
S'change'
p784
sS'random'
p785
I0
sS'num_units'
p786
I0
sS'changes'
p787
(dp788
Vdelay_walk
p789
I3
sVelite
p790
I1
sVshield
p791
I40
sg620
(dp792
VCasspir
p793
(dp794
g773
I0
sg774
Vupgrade
p795
sg776
I70
sg620
(lp796
(dp797
g779
g780
sg781
g782
sg783
g784
sg785
I0
sg786
I0
sg787
(dp798
Vdelay_walk
p799
I-5
sVelite
p800
I1
sVshield
p801
I50
sVmax_shield
p802
I40
ssasS'num_uses'
p803
I1
sssVmax_shield
p804
I30
ssasg803
I1
ssVMG
p805
(dp806
g773
I0
sg774
Vupgrade
p807
sg776
I40
sg620
(lp808
(dp809
g779
Vself
p810
sg781
Vid
p811
sg783
Vchange
p812
sg785
F0.0
sg786
I0
sg787
(dp813
Vattack_min
p814
I20
sVelite
p815
I1
sVattack_max
p816
I40
sg620
(dp817
VKampfmaschine
p818
(dp819
g773
I0
sg774
Vupgrade
p820
sg776
I80
sg620
(lp821
(dp822
g779
g780
sg781
g782
sg783
g784
sg785
I0
sg786
I0
sg787
(dp823
Vshield_factor
p824
F0.2
sVattack_min
p825
I30
sVelite
p826
I1
sVattack_max
p827
I30
ssasg803
I1
ssssasg803
I1
ssVSpeed up (laden & ziehen)
p828
(dp829
g582
I0
sg583
Vupgrade
p830
sg585
I30
sg586
(lp831
(dp832
g178
g589
sg182
g590
sg176
g591
sg592
I0
sg593
I0
sg594
(dp833
Vdelay_walk
p834
I-2
sVelite
p835
I1
sg586
(dp836
VSpeed up (nur ziehen)
p837
(dp838
g582
I0
sg583
Vupgrade
p839
sg585
I40
sg586
(lp840
(dp841
g178
g589
sg182
g590
sg176
g591
sg592
I0
sg593
I0
sg594
(dp842
Vdelay_walk
p843
I-2
sVwalk_dist
p844
I1
sVelite
p845
I1
ssasg601
I1
sssVdelay_shoot
p846
I-2
ssasg601
I1
ssVmehr Platz I
p847
(dp848
g773
I0
sg774
Vupgrade
p849
sg776
I30
sg620
(lp850
(dp851
g779
g780
sg781
g782
sg783
g784
sg785
I0
sg786
I0
sg787
(dp852
Vcapacity
p853
I5
sVelite
p854
I1
sg620
(dp855
Vmehr Platz II
p856
(dp857
g773
I0
sg774
Vupgrade
p858
sg776
I40
sg620
(lp859
(dp860
g779
g780
sg781
g782
sg783
g784
sg785
I0
sg786
I0
sg787
(dp861
Vcapacity
p862
I8
sVelite
p863
I1
ssasg803
I1
ssssasg803
I1
sssg299
I5
sS'transports'
p864
Vsoldier
p865
sg149
I10
sg302
I4
sg303
I25
sssI1
(dp866
g305
(dp867
g307
(dp868
I0
(lp869
ssg310
(dp870
I0
(lp871
sssg313
(dp872
S'delay_walk'
p873
I15
sg316
I100
sS'walk_dist'
p874
I10
sg319
I10
sg320
VHelikopter
p875
sg397
I0
sg322
F0.4
sg325
I0
sg326
I20
sg398
I1
sg328
I200
sg329
I100
sg28
I50
sg315
I8
sg393
I0
sg330
(dp876
VBombe abwerfen
p877
(dp878
g334
I15
sg335
Vstandard
p879
sg328
I80
sg330
(lp880
(dp881
g339
Venemy
p882
sg341
Vid
p883
sg343
Vchange
p884
sg345
F0.3
sg346
I7
sg347
(dp885
Vlife
p886
I-6
sg330
(dp887
ssasg350
I-1
ssVschneller fliegen
p888
(dp889
S'delay'
p890
I0
sS'category'
p891
Vupgrade
p892
sS'price'
p893
I30
sS'actions'
p894
(lp895
(dp896
S'target'
p897
S'self'
p898
sS'level'
p899
S'id'
p900
sS'type'
p901
S'change'
p902
sS'random'
p903
I0
sS'num_units'
p904
I0
sS'changes'
p905
(dp906
Vdelay_walk
p907
I-3
sg894
(dp908
Vsuper Speed
p909
(dp910
g890
I0
sg891
Vupgrade
p911
sg893
I50
sg894
(lp912
(dp913
g897
g898
sg899
g900
sg901
g902
sg903
I0
sg904
I0
sg905
(dp914
Vdelay_walk
p915
I-2
sVwalk_dist
p916
I1
ssasS'num_uses'
p917
I1
ssssasg917
I1
sssg396
I6
sS'transports'
p918
Vsoldier
p919
sg327
I10
sg399
I4
sg400
I50
sssI2
(dp920
S'elite_parameters'
p921
(dp922
S'ticks'
p923
(dp924
I0
(lp925
ssS'damage'
p926
(dp927
I0
(lp928
sssS'basic_parameters'
p929
(dp930
S'delay_walk'
p931
I18
sS'life'
p932
I150
sS'walk_dist'
p933
I9
sS'capacity'
p934
I3
sS'name'
p935
VFahrzeug Transporter
p936
sS'transports'
p937
Vvehicle
p938
sS'shield_factor'
p939
F0.4
sS'attack_min'
p940
I0
sS'shield'
p941
I20
sS'delay_shoot'
p942
I15
sS'delay_in'
p943
I25
sg417
I300
sS'max_life'
p944
I150
sg28
I20
sS'delay_out'
p945
I15
sS'shoot_dist'
p946
I5
sS'num_enemies'
p947
I4
sS'elite'
p948
I0
sg424
I2
sg418
(dp949
Vmehr Platz
p950
(dp951
g414
I0
sg415
Vupgrade
p952
sg417
I50
sg418
(lp953
(dp954
g421
g422
sg423
g424
sg425
g426
sg427
I0
sg428
I0
sg429
(dp955
Vcapacity
p956
I2
ssasg434
I1
sssS'attack_max'
p957
I0
ssssS'unit_parameters'
p958
(dp959
I0
(dp960
S'elite_parameters'
p961
(dp962
S'ticks'
p963
(dp964
I1000
(lp965
(dp966
g779
g780
sg781
g782
sg783
g784
sg785
I0
sg786
I0
sg787
(dp967
Vlife
p968
I10
sVelite
p969
I1
sVshield
p970
I15
ssasI500
(lp971
(dp972
g779
g780
sg781
g782
sg783
g784
sg785
I0
sg786
I0
sg787
(dp973
Vlife
p974
I10
sVelite
p975
I1
sVshield
p976
I15
ssassS'damage'
p977
(dp978
I1000
(lp979
(dp980
S'target'
p981
S'self'
p982
sS'level'
p983
S'id'
p984
sS'type'
p985
S'change'
p986
sS'random'
p987
I0
sS'num_units'
p988
I0
sS'changes'
p989
(dp990
Vshoot_dist
p991
I2
sVmax_life
p992
I8
sVelite
p993
I1
sVattack_max
p994
I11
ssasI500
(lp995
(dp996
g779
g780
sg781
g782
sg783
g784
sg785
I0
sg786
I0
sg787
(dp997
Velite
p998
I1
sVattack_max
p999
I8
ssasI750
(lp1000
(dp1001
g981
g982
sg983
g984
sg985
g986
sg987
I0
sg988
I0
sg989
(dp1002
Vattack_min
p1003
I8
sVelite
p1004
I1
sVattack_max
p1005
I10
ssasssS'basic_parameters'
p1006
(dp1007
S'delay_walk'
p1008
I15
sS'life'
p1009
I50
sS'walk_dist'
p1010
I5
sS'name'
p1011
VSoldat
p1012
sS'shield_factor'
p1013
F0.5
sS'num_enemies'
p1014
I4
sS'attack_min'
p1015
I10
sS'delay_shoot'
p1016
I15
sS'unit_type'
p1017
Vsoldier
p1018
sS'max_life'
p1019
I50
sg28
I0
sS'attack_max'
p1020
I20
sS'shoot_dist'
p1021
I6
sS'price'
p1022
I70
sS'elite'
p1023
I0
sS'id'
p1024
I0
sS'actions'
p1025
(dp1026
V3 HG
p1027
(dp1028
S'delay'
p1029
I0
sS'category'
p1030
Vequipment
p1031
sg150
I70
sg152
(lp1032
(dp1033
S'target'
p1034
S'self'
p1035
sS'level'
p1036
S'id'
p1037
sS'type'
p1038
S'change'
p1039
sS'random'
p1040
I0
sS'num_units'
p1041
I0
sS'changes'
p1042
(dp1043
S'actions'
p1044
(dp1045
VHG
p1046
(dp1047
S'delay'
p1048
I15
sS'category'
p1049
Vstandard
p1050
sS'price'
p1051
I0
sg1044
(lp1052
(dp1053
g1034
Venemy
p1054
sg1036
Vid
p1055
sg1038
Vchange
p1056
sg1040
F0.3
sg1041
I3
sg1042
(dp1057
Vlife
p1058
I-10
ssasS'num_uses'
p1059
I3
ssssasS'num_uses'
p1060
I-1
ssVSchutzweste
p1061
(dp1062
g334
I0
sg335
Vupgrade
p1063
sg328
I30
sg330
(lp1064
(dp1065
g339
g499
sg341
g398
sg343
g500
sg345
I0
sg346
I0
sg347
(dp1066
Vmax_shield
p1067
I10
sVshield
p1068
I10
sg330
(dp1069
VSchild & wenig heilen
p1070
(dp1071
g334
I0
sg335
Vupgrade
p1072
sg328
I50
sg330
(lp1073
(dp1074
g339
g499
sg341
g398
sg343
g500
sg345
I0
sg346
I0
sg347
(dp1075
Velite
p1076
I1
sVlife
p1077
I15
sVmax_life
p1078
I6
sVmax_shield
p1079
I15
sVshield
p1080
I15
ssasg350
I1
ssssasg350
I1
ssVneue Munition
p1081
(dp1082
g1029
I0
sg1030
Vupgrade
p1083
sg150
I20
sg152
(lp1084
(dp1085
S'target'
p1086
S'self'
p1087
sS'level'
p1088
g301
sS'type'
p1089
S'change'
p1090
sS'random'
p1091
I0
sS'num_units'
p1092
I0
sS'changes'
p1093
(dp1094
Vattack_min
p1095
I5
sVattack_max
p1096
I5
sg152
(dp1097
VSchnellfeuer
p1098
(dp1099
g1029
I0
sg1030
Vupgrade
p1100
sg150
I30
sg152
(lp1101
(dp1102
g1086
g1087
sg1088
g301
sg1089
g1090
sg1091
I0
sg1092
I0
sg1093
(dp1103
Vnum_enemies
p1104
I2
sVattack_min
p1105
I4
sVelite
p1106
I1
sVattack_max
p1107
I8
sS'actions'
p1108
(dp1109
VFlammenwerfer
p1110
(dp1111
g582
I0
sg583
Vupgrade
p1112
sg585
I40
sg586
(lp1113
(dp1114
g178
g589
sg182
g590
sg176
g591
sg592
I0
sg593
I0
sg594
(dp1115
Vnum_enemies
p1116
I4
sVattack_min
p1117
I10
sVelite
p1118
I1
sVattack_max
p1119
I10
ssasg601
I1
ssVSchildexperte
p1120
(dp1121
S'delay'
p1122
I0
sS'category'
p1123
Vupgrade
p1124
sS'price'
p1125
I0
sg1108
(lp1126
sS'num_uses'
p1127
I0
ssssasg1060
I1
ssVSchildexperte
p1128
(dp1129
g1029
I0
sg1030
Vupgrade
p1130
sg150
I30
sg152
(lp1131
(dp1132
g1086
g1087
sg1088
g301
sg1089
g1090
sg1091
I0
sg1092
I0
sg1093
(dp1133
Vshield_factor
p1134
F0.1
sVattack_min
p1135
I6
sVelite
p1136
I1
sVattack_max
p1137
I4
sg152
(dp1138
VSchnellfeuer
p1139
(dp1140
S'delay'
p1141
I0
sS'category'
p1142
Vupgrade
p1143
sS'price'
p1144
I0
sS'actions'
p1145
(lp1146
sS'num_uses'
p1147
I0
ssVPanzerbrecher
p1148
(dp1149
g582
I0
sg583
Vupgrade
p1150
sg585
I40
sg586
(lp1151
(dp1152
g178
g589
sg182
g590
sg176
g591
sg592
I0
sg593
I0
sg594
(dp1153
Vshield_factor
p1154
F0.2
sVattack_min
p1155
I4
sVelite
p1156
I1
sVattack_max
p1157
I10
ssasg601
I1
ssssasg1060
I1
ssssasg1060
I1
ssVneue Schuhe
p1158
(dp1159
g1029
I0
sg1030
Vupgrade
p1160
sg150
I20
sg152
(lp1161
(dp1162
g1086
Vself
p1163
sg1088
Vid
p1164
sg1089
Vchange
p1165
sg1091
F0.0
sg1092
F1.0
sg1093
(dp1166
Vdelay_walk
p1167
I-2
sVwalk_dist
p1168
I1
sVelite
p1169
I1
sg152
(dp1170
ssasg1060
I1
sssS'shield'
p1171
I0
sssI1
(dp1172
g961
(dp1173
g963
(dp1174
I1000
(lp1175
(dp1176
g1086
g1087
sg1088
g301
sg1089
g1090
sg1091
I0
sg1092
I0
sg1093
(dp1177
Vmax_shield
p1178
I10
sVwalk_dist
p1179
I1
sVelite
p1180
I1
sVshield
p1181
I10
ssasI400
(lp1182
(dp1183
S'target'
p1184
S'self'
p1185
sS'level'
p1186
S'id'
p1187
sS'type'
p1188
S'change'
p1189
sS'random'
p1190
I0
sS'num_units'
p1191
I0
sS'changes'
p1192
(dp1193
Vdelay_walk
p1194
I-2
sVlife
p1195
I20
sVwalk_dist
p1196
I1
sVelite
p1197
I1
ssasI700
(lp1198
(dp1199
g1184
g1185
sg1186
g1187
sg1188
g1189
sg1190
I0
sg1191
I0
sg1192
(dp1200
Velite
p1201
I1
sVlife
p1202
I15
sVmax_life
p1203
I10
sVmax_shield
p1204
I8
sVshield
p1205
I13
ssassg977
(dp1206
I0
(lp1207
sssg1006
(dp1208
g1008
I15
sg1009
I40
sg1010
I5
sg1011
VIngenieur
p1209
sg1013
F0.4
sg1014
I1
sg1015
I3
sg1016
I15
sg1017
Vsoldier
p1210
sg1019
I40
sg28
I0
sg1020
I5
sg1021
I2
sg1022
I100
sg1023
I0
sg1024
I1
sg1025
(dp1211
VBruecke bauen
p1212
(dp1213
S'delay'
p1214
I40
sS'category'
p1215
Vshop
p1216
sS'price'
p1217
I100
sS'actions'
p1218
(lp1219
(dp1220
S'target'
p1221
S'self'
p1222
sS'level'
p1223
S'id'
p1224
sS'type'
p1225
S'change'
p1226
sS'random'
p1227
I0
sS'num_units'
p1228
I0
sS'changes'
p1229
(dp1230
Vlife
p1231
I0
ssasS'num_uses'
p1232
I-1
ssVMG-Nest
p1233
(dp1234
S'delay'
p1235
I40
sS'category'
p1236
Vshop
p1237
sS'price'
p1238
I70
sS'actions'
p1239
(lp1240
(dp1241
g72
Vnew
p1242
sg68
Vown
p1243
sS'parameters'
p1244
I6
sg70
Vbuildings
p1245
sasS'num_uses'
p1246
I-1
ssVWerkstatt
p1247
(dp1248
g363
I60
sg364
Vshop
p1249
sg366
I700
sg367
(lp1250
(dp1251
g374
Vnew
p1252
sg370
Vown
p1253
sS'parameters'
p1254
I3
sg372
Vbuildings
p1255
sasg382
I-1
ssVFlugplatz
p1256
(dp1257
g460
I50
sg461
Vshop
p1258
sg463
I400
sg464
(lp1259
(dp1260
S'type'
p1261
Vnew
p1262
sS'target'
p1263
Vown
p1264
sS'parameters'
p1265
I4
sS'level'
p1266
Vbuildings
p1267
sasg470
I-1
ssVLazarett
p1268
(dp1269
g460
I50
sg461
Vshop
p1270
sg463
I500
sg464
(lp1271
(dp1272
g1261
Vnew
p1273
sg1263
Vown
p1274
sg1265
I2
sg1266
Vbuildings
p1275
sasg470
I-1
ssVKaserne
p1276
(dp1277
g1029
I60
sg1030
Vshop
p1278
sg150
I600
sg152
(lp1279
(dp1280
g1089
Vnew
p1281
sg1086
Vown
p1282
sS'parameters'
p1283
I1
sg1088
Vbuildings
p1284
sasg1060
I-1
ssVKampfingenieur
p1285
(dp1286
g209
I0
sg210
Vupgrade
p1287
sg212
I70
sg213
(lp1288
(dp1289
g194
g195
sg196
g197
sg198
g199
sg200
I0
sg201
I0
sg202
(dp1290
Vshield
p1291
I8
sVattack_min
p1292
I10
sg213
(dp1293
V3 Granaten
p1294
(dp1295
g209
I0
sg210
Vequipment
p1296
sg212
I70
sg213
(lp1297
(dp1298
g194
Vself
p1299
sg196
Vid
p1300
sg198
Vchange
p1301
sg200
F0.4
sg201
I3
sg202
(dp1302
g213
(dp1303
VGranate
p1304
(dp1305
g209
I10
sg210
Vstandard
p1306
sg212
I0
sg213
(lp1307
(dp1308
g194
Venemy
p1309
sg196
Vid
p1310
sg198
Vchange
p1311
sg200
F0.4
sg201
I3
sg202
(dp1312
Vlife
p1313
I-15
ssasg266
I3
ssssasg266
I-1
sssVmax_shield
p1314
I8
sVattack_max
p1315
I15
sVelite
p1316
I1
ssasg266
I1
sssg1171
I0
sssI2
(dp1317
g961
(dp1318
g963
(dp1319
I400
(lp1320
(dp1321
g1184
g1185
sg1186
g1187
sg1188
g1189
sg1190
I0
sg1191
I0
sg1192
(dp1322
Vdelay_walk
p1323
I-2
sVlife
p1324
I15
sVelite
p1325
I1
sVshield
p1326
I8
ssasI800
(lp1327
(dp1328
g1184
g1185
sg1186
g1187
sg1188
g1189
sg1190
I0
sg1191
I0
sg1192
(dp1329
Vlife
p1330
I15
sVmax_life
p1331
I10
sVelite
p1332
I1
sVshield
p1333
I10
sVdelay_shoot
p1334
I-2
ssassg977
(dp1335
I500
(lp1336
(dp1337
S'target'
p1338
S'self'
p1339
sS'level'
p1340
S'id'
p1341
sS'type'
p1342
S'change'
p1343
sS'random'
p1344
I0
sS'num_units'
p1345
I0
sS'changes'
p1346
(dp1347
Vshield_factor
p1348
F0.1
sVattack_min
p1349
I10
sVelite
p1350
I1
sS'actions'
p1351
(dp1352
VSchusstraining
p1353
(dp1354
S'delay'
p1355
I0
sS'category'
p1356
Vupgrade
p1357
sS'price'
p1358
I40
sg1351
(lp1359
(dp1360
g276
g277
sg278
g279
sg280
g281
sg282
I0
sg283
I0
sg284
(dp1361
Vshoot_dist
p1362
I1
sVelite
p1363
I1
sVdelay_shoot
p1364
I-4
ssasS'num_uses'
p1365
I1
ssssasssg1006
(dp1366
g1008
I18
sg1009
I80
sg1010
I5
sg1011
VMG-Soldat
p1367
sg1013
F0.55
sg1014
I10
sg1015
I20
sg1016
I20
sg1017
Vsoldier
p1368
sg1019
I80
sg28
I20
sg1020
I60
sg1021
I7
sg1022
I175
sg1023
I0
sg1024
I2
sg1025
(dp1369
Vbessere Munition
p1370
(dp1371
g209
I0
sg210
Vupgrade
p1372
sg212
I40
sg213
(lp1373
(dp1374
g194
g195
sg196
g197
sg198
g199
sg200
I0
sg201
I0
sg202
(dp1375
Vattack_min
p1376
I10
sVattack_max
p1377
I5
sg213
(dp1378
VPanzerbrecher
p1379
(dp1380
g209
I0
sg210
Vupgrade
p1381
sg212
I60
sg213
(lp1382
(dp1383
g194
g195
sg196
g197
sg198
g199
sg200
I0
sg201
I0
sg202
(dp1384
Vshield_factor
p1385
F0.1
sVelite
p1386
I1
sVattack_max
p1387
I15
sg213
(dp1388
VBazooka
p1389
(dp1390
g209
I0
sg210
Vupgrade
p1391
sg212
I80
sg213
(lp1392
(dp1393
g194
g195
sg196
g197
sg198
g199
sg200
I0
sg201
I0
sg202
(dp1394
Vshield_factor
p1395
F0.15
sVattack_min
p1396
I15
sVelite
p1397
I1
sVnum_enemies
p1398
I2
sVattack_max
p1399
I10
ssasg266
I1
ssssasg266
I1
ssssasg266
I1
ssVKampfausbildung
p1400
(dp1401
S'delay'
p1402
I0
sS'category'
p1403
Vupgrade
p1404
sS'price'
p1405
I40
sS'actions'
p1406
(lp1407
(dp1408
S'target'
p1409
S'self'
p1410
sS'level'
p1411
S'id'
p1412
sS'type'
p1413
S'change'
p1414
sS'random'
p1415
I0
sS'num_units'
p1416
I0
sS'changes'
p1417
(dp1418
Vshoot_dist
p1419
I1
sVelite
p1420
I1
sVdelay_shoot
p1421
I-5
ssasS'num_uses'
p1422
I1
ssVSpeed I
p1423
(dp1424
g460
I0
sg461
Vupgrade
p1425
sg463
I40
sg464
(lp1426
(dp1427
g194
g195
sg196
g197
sg198
g199
sg200
I0
sg201
I0
sg202
(dp1428
Vdelay_walk
p1429
I-5
sVelite
p1430
I1
sg213
(dp1431
VSpeed II
p1432
(dp1433
g209
I0
sg210
Vupgrade
p1434
sg212
I50
sg213
(lp1435
(dp1436
g194
g195
sg196
g197
sg198
g199
sg200
I0
sg201
I0
sg202
(dp1437
Vdelay_walk
p1438
I-5
sVwalk_dist
p1439
I1
sVelite
p1440
I1
sVdelay_shoot
p1441
I-3
ssasg266
I1
ssssasg470
I1
sssg1171
I20
sssI3
(dp1442
g961
(dp1443
g963
(dp1444
I400
(lp1445
(dp1446
g1184
g1185
sg1186
g1187
sg1188
g1189
sg1190
I0
sg1191
I0
sg1192
(dp1447
Velite
p1448
I1
sVattack_min
p1449
I5
sVmax_shield
p1450
I8
sVshield
p1451
I8
ssasI800
(lp1452
(dp1453
g1184
g1185
sg1186
g1187
sg1188
g1189
sg1190
I0
sg1191
I0
sg1192
(dp1454
Vshield_factor
p1455
F0.1
sVattack_min
p1456
I8
sVelite
p1457
I1
sVattack_max
p1458
I14
ssassg977
(dp1459
I0
(lp1460
sI250
(lp1461
(dp1462
g370
g371
sg372
g373
sg374
g375
sg376
I0
sg377
I0
sg378
(dp1463
Vattack_min
p1464
I8
sVelite
p1465
I1
sVattack_max
p1466
I8
sg367
(dp1467
Vschneller laden
p1468
(dp1469
g363
I0
sg364
Vupgrade
p1470
sg366
I40
sg367
(lp1471
(dp1472
g370
g371
sg372
g373
sg374
g375
sg376
I0
sg377
I0
sg378
(dp1473
Vdelay_shoot
p1474
I-4
ssasg382
I1
ssssasssg1006
(dp1475
g1008
I15
sg1009
I50
sg1010
I5
sg1011
VSniper
p1476
sg1013
F0.6
sg1014
I1
sg1015
I40
sg1016
I20
sg1017
Vsoldier
p1477
sg1019
I50
sg28
I0
sg1020
I60
sg1021
I10
sg1022
I200
sg1023
I0
sg1024
I3
sg1025
(dp1478
VSchutzweste
p1479
(dp1480
g156
I0
sg157
Vupgrade
p1481
sg159
I30
sg160
(lp1482
(dp1483
g163
g164
sg165
g166
sg167
g168
sg169
I0
sg170
I0
sg171
(dp1484
Vmax_shield
p1485
I10
sVshield
p1486
I10
ssasg184
I1
ssVSpeed I (ziehen und laden)
p1487
(dp1488
g156
I0
sg157
Vupgrade
p1489
sg159
I30
sg160
(lp1490
(dp1491
g163
g164
sg165
g166
sg167
g168
sg169
I0
sg170
I0
sg171
(dp1492
Vwalk_dist
p1493
I1
sVelite
p1494
I1
sVdelay_shoot
p1495
I-2
ssasg184
I1
ssVhoehere Schussweite
p1496
(dp1497
S'delay'
p1498
I0
sS'category'
p1499
Vupgrade
p1500
sS'price'
p1501
I40
sg638
(lp1502
(dp1503
S'target'
p1504
S'self'
p1505
sS'level'
p1506
S'id'
p1507
sS'type'
p1508
S'change'
p1509
sS'random'
p1510
I0
sS'num_units'
p1511
I0
sS'changes'
p1512
(dp1513
Vshoot_dist
p1514
I1
sVelite
p1515
I1
sg638
(dp1516
VDistanzexperte
p1517
(dp1518
g1498
I0
sg1499
Vupgrade
p1519
sg1501
I50
sg638
(lp1520
(dp1521
g1504
g1505
sg1506
g1507
sg1508
g1509
sg1510
I0
sg1511
I0
sg1512
(dp1522
Vshoot_dist
p1523
I1
sVattack_min
p1524
I8
sVelite
p1525
I1
sg638
(dp1526
ssasS'num_uses'
p1527
I1
ssssasg1527
I1
ssVPraezision
p1528
(dp1529
S'delay'
p1530
I0
sS'category'
p1531
Vupgrade
p1532
sS'price'
p1533
I30
sg505
(lp1534
(dp1535
S'target'
p1536
S'self'
p1537
sS'level'
p1538
S'id'
p1539
sS'type'
p1540
S'change'
p1541
sS'random'
p1542
I0
sS'num_units'
p1543
I0
sS'changes'
p1544
(dp1545
Vattack_min
p1546
I15
sVelite
p1547
I1
sVattack_max
p1548
I8
sg367
(dp1549
Vbessere Munition
p1550
(dp1551
g363
I0
sg364
Vupgrade
p1552
sg366
I40
sg367
(lp1553
(dp1554
g370
g371
sg372
g373
sg374
g375
sg376
I0
sg377
I0
sg378
(dp1555
Vshield_factor
p1556
F0.05
sVattack_min
p1557
I15
sVelite
p1558
I1
sVattack_max
p1559
I10
sg367
(dp1560
VSchildzerstoerer
p1561
(dp1562
g363
I0
sg364
Vupgrade
p1563
sg366
I30
sg367
(lp1564
(dp1565
g370
g371
sg372
g373
sg374
g375
sg376
I0
sg377
I0
sg378
(dp1566
Vshield_factor
p1567
F0.2
sVelite
p1568
I1
sVattack_max
p1569
I8
sg273
(dp1570
VDoppelschuss
p1571
(dp1572
g269
I0
sg270
Vupgrade
p1573
sg272
I0
sg273
(lp1574
sg295
I0
ssssasg382
I1
ssssasg382
I1
ssVDoppelschuss
p1575
(dp1576
g1498
I0
sg1499
Vupgrade
p1577
sg1501
I60
sg638
(lp1578
(dp1579
g1504
g1505
sg1506
g1507
sg1508
g1509
sg1510
I0
sg1511
I0
sg1512
(dp1580
Vnum_enemies
p1581
I1
sVattack_min
p1582
I8
sVelite
p1583
I1
sVattack_max
p1584
I15
sg273
(dp1585
VSchildzerstoerer
p1586
(dp1587
g269
I0
sg270
Vupgrade
p1588
sg272
I0
sg273
(lp1589
sg295
I0
ssssasg1527
I1
ssssasS'num_uses'
p1590
I1
sssg1171
I0
sssI4
(dp1591
g961
(dp1592
g963
(dp1593
I0
(lp1594
sI600
(lp1595
(dp1596
g1184
g1185
sg1186
g1187
sg1188
g1189
sg1190
I0
sg1191
I0
sg1192
(dp1597
Vdelay_walk
p1598
I-3
sVelite
p1599
I1
sVshield
p1600
I30
sVmax_shield
p1601
I15
ssasI300
(lp1602
(dp1603
g1184
g1185
sg1186
g1187
sg1188
g1189
sg1190
I0
sg1191
I0
sg1192
(dp1604
Vdelay_walk
p1605
I-2
sVelite
p1606
I1
sVshield
p1607
I15
sVdelay_shoot
p1608
I-3
ssassg977
(dp1609
I500
(lp1610
(dp1611
g163
g164
sg165
g166
sg167
g168
sg169
I0
sg170
I0
sg171
(dp1612
Vshield_factor
p1613
F0.07
sVattack_min
p1614
I10
sVelite
p1615
I1
sVattack_max
p1616
I5
ssasssg1006
(dp1617
g1008
I18
sg1009
I100
sg1010
I5
sg1011
VPanzer
p1618
sg1013
F0.6
sg1014
I8
sg1015
I50
sg1016
I18
sg1017
Vvehicle
p1619
sg1019
I100
sg28
I100
sg1020
I90
sg1021
I7
sg1022
I400
sg1023
I0
sg1024
I4
sg1025
(dp1620
VShottpanzerung
p1621
(dp1622
g582
I0
sg583
Vupgrade
p1623
sg585
I70
sg586
(lp1624
(dp1625
g178
g589
sg182
g590
sg176
g591
sg592
I0
sg593
I0
sg594
(dp1626
Vdelay_walk
p1627
I3
sVelite
p1628
I1
sVshield
p1629
I50
sg586
(dp1630
VVerbundpanzerung
p1631
(dp1632
g582
I0
sg583
Vupgrade
p1633
sg585
I40
sg586
(lp1634
(dp1635
g178
g589
sg182
g590
sg176
g591
sg592
I0
sg593
I0
sg594
(dp1636
Vdelay_walk
p1637
I-3
sVlife
p1638
I10
sVelite
p1639
I1
sVshield
p1640
I25
sVmax_shield
p1641
I15
ssasg601
I1
sssVmax_shield
p1642
I30
ssasg601
I1
ssVHartkernmunition
p1643
(dp1644
S'delay'
p1645
I0
sS'category'
p1646
Vupgrade
p1647
sS'price'
p1648
I30
sS'actions'
p1649
(lp1650
(dp1651
S'target'
p1652
Vself
p1653
sS'level'
p1654
Vid
p1655
sS'type'
p1656
Vchange
p1657
sS'random'
p1658
F0.0
sS'num_units'
p1659
I0
sS'changes'
p1660
(dp1661
Vshield_factor
p1662
F0.15
sVelite
p1663
I1
sVattack_max
p1664
I8
sS'actions'
p1665
(dp1666
VUrangeschoss
p1667
(dp1668
S'delay'
p1669
I0
sS'category'
p1670
Vupgrade
p1671
sS'price'
p1672
I80
sg1665
(lp1673
(dp1674
S'target'
p1675
Vself
p1676
sS'level'
p1677
Vid
p1678
sS'type'
p1679
Vchange
p1680
sS'random'
p1681
F0.0
sS'num_units'
p1682
I0
sS'changes'
p1683
(dp1684
Vshield_factor
p1685
F0.2
sVattack_min
p1686
I15
sVelite
p1687
I1
sVattack_max
p1688
I15
ssasS'num_uses'
p1689
I1
ssssasS'num_uses'
p1690
I1
ssVSpeed I
p1691
(dp1692
g460
I0
sg461
Vupgrade
p1693
sg463
I20
sg464
(lp1694
(dp1695
g1652
S'self'
p1696
sg1654
S'id'
p1697
sg1656
S'change'
p1698
sg1658
I0
sg1659
I0
sg1660
(dp1699
Vdelay_walk
p1700
I-2
sg1649
(dp1701
VSpeed II
p1702
(dp1703
g1645
I0
sg1646
Vupgrade
p1704
sg1648
I40
sg1649
(lp1705
(dp1706
g1652
g1696
sg1654
g1697
sg1656
g1698
sg1658
I0
sg1659
I0
sg1660
(dp1707
Vdelay_walk
p1708
I-2
sVwalk_dist
p1709
I1
sVelite
p1710
I1
ssasg1690
I1
ssssasg470
I1
sssg1171
I100
sssI5
(dp1711
g961
(dp1712
g963
(dp1713
I0
(lp1714
sI500
(lp1715
(dp1716
S'target'
p1717
S'self'
p1718
sS'level'
p1719
S'id'
p1720
sS'type'
p1721
S'change'
p1722
sS'random'
p1723
I0
sS'num_units'
p1724
I0
sS'changes'
p1725
(dp1726
Vmax_life
p1727
I10
sVelite
p1728
I1
ssassg977
(dp1729
I0
(lp1730
sssg1006
(dp1731
g1008
I15
sg1009
I100
sg1010
I5
sg1011
VArtillerie
p1732
sg1013
F0.5
sg1014
I10
sg1015
I0
sg1016
I35
sg1017
Vvehicle
p1733
sg1019
I100
sg28
I70
sg1020
I0
sg1021
I10
sg1022
I600
sg1023
I0
sg1024
I5
sg1025
(dp1734
Vgroessere Schussweite I
p1735
(dp1736
g1645
I0
sg1646
Vupgrade
p1737
sg1648
I40
sg1649
(lp1738
(dp1739
g1652
g1696
sg1654
g1697
sg1656
g1698
sg1658
I0
sg1659
I0
sg1660
(dp1740
Vshoot_dist
p1741
I1
sVelite
p1742
I1
sg441
(dp1743
Vgroessere Schussweite II
p1744
(dp1745
g437
I0
sg438
Vupgrade
p1746
sg440
I50
sg441
(lp1747
(dp1748
g444
g445
sg446
g447
sg448
g449
sg450
I0
sg451
I0
sg452
(dp1749
Vshoot_dist
p1750
I1
sVelite
p1751
I1
ssasg457
I1
ssVStreuung erhoehen
p1752
(dp1753
g437
I0
sg438
Vupgrade
p1754
sg440
I40
sg441
(lp1755
(dp1756
g444
g445
sg446
g447
sg448
g449
sg450
I0
sg451
I0
sg452
(dp1757
Vnum_enemies
p1758
I5
sVattack_min
p1759
I15
sVelite
p1760
I1
ssasg457
I1
ssssasg1690
I1
ssVAufbauen
p1761
(dp1762
S'delay'
p1763
I25
sS'category'
p1764
Vstandard
p1765
sS'price'
p1766
I0
sS'actions'
p1767
(lp1768
(dp1769
S'target'
p1770
S'self'
p1771
sS'level'
p1772
S'id'
p1773
sS'type'
p1774
S'change'
p1775
sS'random'
p1776
I0
sS'num_units'
p1777
I0
sS'changes'
p1778
(dp1779
Vwalk_dist
p1780
I-5
sVattack_min
p1781
I100
sVattack_max
p1782
I200
sg1767
(dp1783
VTransport
p1784
(dp1785
S'delay'
p1786
I30
sS'category'
p1787
Vequipment
p1788
sS'price'
p1789
I0
sS'actions'
p1790
(lp1791
(dp1792
S'target'
p1793
S'self'
p1794
sS'level'
p1795
S'id'
p1796
sS'type'
p1797
S'change'
p1798
sS'random'
p1799
I0
sS'num_units'
p1800
I0
sS'changes'
p1801
(dp1802
Vwalk_dist
p1803
I5
sVattack_min
p1804
I-100
sVattack_max
p1805
I-200
sg1790
(dp1806
VAufbau
p1807
(dp1808
g1786
I25
sg1787
Vstandard
p1809
sg1789
I0
sg1790
(lp1810
(dp1811
g1793
g1794
sg1795
g1796
sg1797
g1798
sg1799
I0
sg1800
I0
sg1801
(dp1812
Vattack_min
p1813
I100
sVattack_max
p1814
I200
sVwalk_dist
p1815
I-5
ssasS'num_uses'
p1816
I1
ssssasg1816
I-1
ssssasS'num_uses'
p1817
I1
ssVSpeed I
p1818
(dp1819
g460
I0
sg461
Vupgrade
p1820
sg463
I80
sg464
(lp1821
(dp1822
g444
g445
sg446
g447
sg448
g449
sg450
I0
sg451
I0
sg452
(dp1823
Vdelay_walk
p1824
I-4
sVelite
p1825
I1
sg441
(dp1826
VSpeed II
p1827
(dp1828
g437
I0
sg438
Vupgrade
p1829
sg440
I50
sg441
(lp1830
(dp1831
g444
g445
sg446
g447
sg448
g449
sg450
I0
sg451
I0
sg452
(dp1832
Vdelay_walk
p1833
I-2
sVelite
p1834
I1
sVdelay_shoot
p1835
I-8
ssasg457
I1
sssVdelay_shoot
p1836
I-8
ssasg470
I1
sssg1171
I70
sssI6
(dp1837
S'elite_parameters'
p1838
(dp1839
S'ticks'
p1840
(dp1841
I800
(lp1842
(dp1843
g1184
g1185
sg1186
g1187
sg1188
g1189
sg1190
I0
sg1191
I0
sg1192
(dp1844
Velite
p1845
I1
sVlife
p1846
I100
sVmax_life
p1847
I10
sVmax_shield
p1848
I8
sVshield
p1849
I15
ssasI400
(lp1850
(dp1851
g1184
g1185
sg1186
g1187
sg1188
g1189
sg1190
I0
sg1191
I0
sg1192
(dp1852
Vlife
p1853
I100
sVmax_life
p1854
I8
sVelite
p1855
I1
ssassS'damage'
p1856
(dp1857
I0
(lp1858
sssS'basic_parameters'
p1859
(dp1860
S'delay_walk'
p1861
I15
sS'life'
p1862
I50
sS'walk_dist'
p1863
I5
sS'name'
p1864
VArzt
p1865
sS'shield_factor'
p1866
F0.4
sS'num_enemies'
p1867
I3
sS'attack_min'
p1868
I0
sS'delay_shoot'
p1869
I15
sS'unit_type'
p1870
Vsoldier
p1871
sS'max_life'
p1872
I50
sg28
I10
sS'attack_max'
p1873
I0
sS'shoot_dist'
p1874
I5
sg1358
I120
sS'elite'
p1875
I0
sg1341
I6
sg1351
(dp1876
VMedipack
p1877
(dp1878
g363
I0
sg364
Vshop
p1879
sg366
I60
sg367
(lp1880
(dp1881
g370
g371
sg372
g373
sg374
g375
sg376
I0
sg377
I0
sg378
(dp1882
g367
(dp1883
VSchmerzmittel
p1884
(dp1885
g363
I0
sg364
Vstandard
p1886
sg366
I0
sg367
(lp1887
(dp1888
g370
Vself
p1889
sg372
Vid
p1890
sg374
Vchange
p1891
sg376
F0.3
sg377
I0
sg378
(dp1892
Vlife
p1893
I30
ssasg382
I2
ssssasg382
I-1
ssVSchild-Mech
p1894
(dp1895
g363
I0
sg364
Vupgrade
p1896
sg366
I80
sg367
(lp1897
(dp1898
S'target'
p1899
S'self'
p1900
sS'level'
p1901
S'id'
p1902
sS'type'
p1903
S'change'
p1904
sS'random'
p1905
I0
sS'num_units'
p1906
I0
sS'changes'
p1907
(dp1908
S'actions'
p1909
(dp1910
VSchild reparieren
p1911
(dp1912
S'delay'
p1913
I20
sS'category'
p1914
Vstandard
p1915
sS'price'
p1916
I30
sg1909
(lp1917
(dp1918
g1899
Vown
p1919
sg1901
Vid
p1920
sg1903
Vchange
p1921
sg1905
F0.3
sg1906
I1
sg1907
(dp1922
Vshield
p1923
I10
ssasS'num_uses'
p1924
I-1
ssssasg382
I1
ssVFeldapotheke (andere)
p1925
(dp1926
g363
I0
sg364
Vshop
p1927
sg366
I60
sg367
(lp1928
(dp1929
g370
Vself
p1930
sg372
Vid
p1931
sg374
Vchange
p1932
sg376
F0.0
sg377
I0
sg378
(dp1933
g367
(dp1934
VPflaster
p1935
(dp1936
g363
I0
sg364
Vstandard
p1937
sg366
I0
sg367
(lp1938
(dp1939
g370
Vown
p1940
sg372
Vid
p1941
sg374
Vchange
p1942
sg376
F0.3
sg377
I1
sg378
(dp1943
Vlife
p1944
I10
ssasg382
I3
ssssasg382
I-1
ssVSpeed I
p1945
(dp1946
g363
I0
sg364
Vupgrade
p1947
sg366
I30
sg367
(lp1948
(dp1949
g370
g371
sg372
g373
sg374
g375
sg376
I0
sg377
I0
sg378
(dp1950
Vwalk_dist
p1951
I1
sVelite
p1952
I1
sg367
(dp1953
VSpeed II
p1954
(dp1955
g363
I0
sg364
Vupgrade
p1956
sg366
I50
sg367
(lp1957
(dp1958
g370
g371
sg372
g373
sg374
g375
sg376
I0
sg377
I0
sg378
(dp1959
Vdelay_walk
p1960
I-4
sVwalk_dist
p1961
I2
sVelite
p1962
I1
ssasg382
I1
ssssasg382
I1
sssS'shield'
p1963
I10
sssI7
(dp1964
S'elite_parameters'
p1965
(dp1966
S'ticks'
p1967
(dp1968
I0
(lp1969
ssS'damage'
p1970
(dp1971
I0
(lp1972
sssS'basic_parameters'
p1973
(dp1974
S'delay_walk'
p1975
I15
sS'life'
p1976
I60
sS'walk_dist'
p1977
I5
sS'name'
p1978
VCyborg
p1979
sS'shield_factor'
p1980
F0.6
sS'num_enemies'
p1981
I5
sS'attack_min'
p1982
I20
sS'delay_shoot'
p1983
I15
sS'unit_type'
p1984
Vsoldier
p1985
sS'max_life'
p1986
I60
sg28
I40
sS'attack_max'
p1987
I35
sS'shoot_dist'
p1988
I7
sg159
I120
sS'elite'
p1989
I0
sg166
I7
sg160
(dp1990
VSpeed I
p1991
(dp1992
S'delay'
p1993
I0
sS'category'
p1994
S'upgrade'
p1995
sS'price'
p1996
I0
sS'actions'
p1997
(lp1998
sS'num_uses'
p1999
I-1
sssS'shield'
p2000
I40
sssI8
(dp2001
S'elite_parameters'
p2002
(dp2003
S'ticks'
p2004
(dp2005
I0
(lp2006
sI250
(lp2007
(dp2008
S'target'
p2009
S'self'
p2010
sS'level'
p2011
S'id'
p2012
sS'type'
p2013
S'change'
p2014
sS'random'
p2015
I0
sS'num_units'
p2016
I0
sS'changes'
p2017
(dp2018
Vmax_shield
p2019
I5
sVlife
p2020
I20
sVelite
p2021
I1
sVshield
p2022
I10
ssasI500
(lp2023
(dp2024
g2009
g2010
sg2011
g2012
sg2013
g2014
sg2015
I0
sg2016
I0
sg2017
(dp2025
Vmax_shield
p2026
I5
sVlife
p2027
I100
sVmax_life
p2028
I10
sVelite
p2029
I1
sVshield
p2030
I20
ssassS'damage'
p2031
(dp2032
I0
(lp2033
sI500
(lp2034
sssS'basic_parameters'
p2035
(dp2036
S'delay_walk'
p2037
I15
sS'life'
p2038
I70
sS'walk_dist'
p2039
I5
sS'name'
p2040
VKommandant
p2041
sS'shield_factor'
p2042
F0.6
sS'num_enemies'
p2043
I4
sS'attack_min'
p2044
I20
sS'delay_shoot'
p2045
I15
sS'unit_type'
p2046
Vsoldier
p2047
sS'max_life'
p2048
I70
sg28
I10
sS'attack_max'
p2049
I30
sS'shoot_dist'
p2050
I6
sg1238
I250
sS'elite'
p2051
I4
sg71
I8
sg1239
(dp2052
VLuftunterstuetzung
p2053
(dp2054
g1235
I40
sg1236
Vstandard
p2055
sg1238
I150
sg1239
(lp2056
(dp2057
g68
Venemy
p2058
sg70
Vid
p2059
sg72
Vchange
p2060
sg74
F0.6
sg75
I7
sg76
(dp2061
Vlife
p2062
I-17
sVshield
p2063
I-12
ssasg1246
I-1
ssVDrill Sergent
p2064
(dp2065
S'delay'
p2066
I0
sS'category'
p2067
Vstandard
p2068
sS'price'
p2069
I100
sS'actions'
p2070
(lp2071
(dp2072
S'target'
p2073
Vown
p2074
sS'level'
p2075
Vid
p2076
sS'type'
p2077
Vchange
p2078
sS'random'
p2079
F0.0
sS'num_units'
p2080
I0
sS'changes'
p2081
(dp2082
Vattack_min
p2083
I10
sVattack_max
p2084
I8
sVdelay_shoot
p2085
I-3
ssasS'num_uses'
p2086
I-1
ssVFallschirmspringer
p2087
(dp2088
g1122
I20
sg1123
Vstandard
p2089
sg1125
I450
sg1108
(lp2090
(dp2091
g44
Vnew
p2092
sg40
Vown
p2093
sg55
(lp2094
I0
aI0
aI2
asg42
Vgroups
p2095
sasg1127
I-1
ssVSpionageausbildung
p2096
(dp2097
S'delay'
p2098
I0
sS'category'
p2099
Vupgrade
p2100
sS'price'
p2101
I170
sS'actions'
p2102
(lp2103
(dp2104
S'target'
p2105
S'self'
p2106
sS'level'
p2107
S'id'
p2108
sS'type'
p2109
S'change'
p2110
sS'random'
p2111
I0
sS'num_units'
p2112
I0
sS'changes'
p2113
(dp2114
Velite
p2115
I1
sg2102
(dp2116
VWirtschafts-Spionage
p2117
(dp2118
g2098
I40
sg2099
Vupgrade
p2119
sg2101
I80
sg2102
(lp2120
(dp2121
g2105
g2106
sg2107
g2108
sg2109
g2110
sg2111
I0
sg2112
I0
sg2113
(dp2122
g2102
(dp2123
VDieb
p2124
(dp2125
g2098
I60
sg2099
Vequipment
p2126
sg2101
I200
sg2102
(lp2127
(dp2128
g2113
(dp2129
Vaccount
p2130
I-150
ssg2111
F0.5
sg2109
Vchange
p2131
sg2105
Venemy
p2132
sg2107
Vplayer
p2133
sa(dp2134
g2113
(dp2135
Vaccount
p2136
I80
ssg2111
F0.7
sg2109
Vchange
p2137
sg2105
Vown
p2138
sg2107
Vplayer
p2139
sasS'num_uses'
p2140
I-1
ssssasg2140
I-1
ssVID-Spionage
p2141
(dp2142
g2098
I40
sg2099
Vequipment
p2143
sg2101
I70
sg2102
(lp2144
sg2140
I-1
ssssasg2140
I1
sssS'shield'
p2145
I10
sssI9
(dp2146
S'elite_parameters'
p2147
(dp2148
S'ticks'
p2149
(dp2150
I0
(lp2151
ssS'damage'
p2152
(dp2153
I0
(lp2154
sssS'basic_parameters'
p2155
(dp2156
S'delay_walk'
p2157
I0
sS'life'
p2158
I100
sS'walk_dist'
p2159
I0
sS'name'
p2160
VFlak
p2161
sS'shield_factor'
p2162
F0.6
sS'num_enemies'
p2163
I3
sS'attack_min'
p2164
I60
sS'delay_shoot'
p2165
I15
sS'unit_type'
p2166
Vvehicle
p2167
sS'max_life'
p2168
I100
sg28
I0
sS'attack_max'
p2169
I80
sS'shoot_dist'
p2170
I5
sS'price'
p2171
I200
sS'elite'
p2172
I0
sS'id'
p2173
I9
sS'actions'
p2174
(dp2175
Vnix
p2176
(dp2177
S'delay'
p2178
I0
sS'category'
p2179
S'upgrade'
p2180
sg2171
I0
sg2174
(lp2181
sS'num_uses'
p2182
I-1
sssS'shield'
p2183
I0
sssI10
(dp2184
S'elite_parameters'
p2185
(dp2186
S'ticks'
p2187
(dp2188
I0
(lp2189
(dp2190
g1184
g1185
sg1186
g1187
sg1188
g1189
sg1190
I0
sg1191
I0
sg1192
(dp2191
sasI400
(lp2192
(dp2193
g1184
g1185
sg1186
g1187
sg1188
g1189
sg1190
I0
sg1191
I0
sg1192
(dp2194
Vdelay_walk
p2195
I-2
sVelite
p2196
I1
ssassS'damage'
p2197
(dp2198
I0
(lp2199
sssS'basic_parameters'
p2200
(dp2201
S'delay_walk'
p2202
I11
sS'life'
p2203
I40
sS'walk_dist'
p2204
I6
sS'name'
p2205
VMotorrad
p2206
sS'shield_factor'
p2207
F0.45
sS'num_enemies'
p2208
I4
sS'attack_min'
p2209
I5
sS'delay_shoot'
p2210
I15
sS'unit_type'
p2211
Vvehicle
p2212
sS'max_life'
p2213
I40
sg28
I0
sS'attack_max'
p2214
I10
sS'shoot_dist'
p2215
I5
sg2069
I40
sS'elite'
p2216
I0
sS'id'
p2217
I10
sg2070
(dp2218
VSchutzweste
p2219
(dp2220
g2066
I0
sg2067
Vupgrade
p2221
sg2069
I30
sg2070
(lp2222
(dp2223
g2073
S'self'
p2224
sg2075
g2217
sg2077
S'change'
p2225
sg2079
I0
sg2080
I0
sg2081
(dp2226
Vmax_shield
p2227
I8
sVshield
p2228
I8
ssasg2086
I1
ssVneue Reifen
p2229
(dp2230
g2066
I0
sg2067
Vupgrade
p2231
sg2069
I20
sg2070
(lp2232
(dp2233
g2073
g2224
sg2075
g2217
sg2077
g2225
sg2079
I0
sg2080
I0
sg2081
(dp2234
Vwalk_dist
p2235
I1
sVelite
p2236
I1
sg2070
(dp2237
Vleichteres Motorrad
p2238
(dp2239
g2066
I0
sg2067
Vupgrade
p2240
sg2069
I30
sg2070
(lp2241
(dp2242
g2073
g2224
sg2075
g2217
sg2077
g2225
sg2079
I0
sg2080
I0
sg2081
(dp2243
Vdelay_walk
p2244
I-1
sVwalk_dist
p2245
I1
sVelite
p2246
I1
ssasg2086
I1
ssssasg2086
I1
ssVDrive by lernen
p2247
(dp2248
g2066
I0
sg2067
Vupgrade
p2249
sg2069
I30
sg2070
(lp2250
(dp2251
g2073
g2224
sg2075
g2217
sg2077
g2225
sg2079
I0
sg2080
I0
sg2081
(dp2252
Vattack_min
p2253
I7
sVelite
p2254
I1
sVattack_max
p2255
I5
ssasg2086
I1
sssS'shield'
p2256
I0
sssI11
(dp2257
S'elite_parameters'
p2258
(dp2259
S'ticks'
p2260
(dp2261
I0
(lp2262
ssS'damage'
p2263
(dp2264
I0
(lp2265
sssS'basic_parameters'
p2266
(dp2267
S'delay_walk'
p2268
I18
sS'life'
p2269
I80
sS'walk_dist'
p2270
I5
sS'name'
p2271
VJavelin
p2272
sS'shield_factor'
p2273
F2.5
sS'num_enemies'
p2274
I2
sS'attack_min'
p2275
I8
sS'delay_shoot'
p2276
I20
sS'unit_type'
p2277
Vsoldier
p2278
sS'max_life'
p2279
I80
sg28
I50
sS'attack_max'
p2280
I12
sS'shoot_dist'
p2281
I9
sg1405
I200
sS'elite'
p2282
I0
sg1412
I11
sg1406
(dp2283
Vschneller ziehen
p2284
(dp2285
g269
I0
sg270
Vupgrade
p2286
sg272
I30
sg273
(lp2287
(dp2288
g276
g277
sg278
g279
sg280
g281
sg282
I0
sg283
I0
sg284
(dp2289
Vdelay_walk
p2290
I-3
sVelite
p2291
I1
ssasg295
I1
ssVschneller laden
p2292
(dp2293
S'delay'
p2294
I0
sS'category'
p2295
Vupgrade
p2296
sS'price'
p2297
I40
sS'actions'
p2298
(lp2299
(dp2300
S'target'
p2301
S'self'
p2302
sS'level'
p2303
S'id'
p2304
sS'type'
p2305
S'change'
p2306
sS'random'
p2307
I0
sS'num_units'
p2308
I0
sS'changes'
p2309
(dp2310
Velite
p2311
I1
sVdelay_shoot
p2312
I-4
ssasS'num_uses'
p2313
I1
ssVgroessere Sprengkraft
p2314
(dp2315
g2294
I0
sg2295
Vupgrade
p2316
sg2297
I30
sg2298
(lp2317
(dp2318
g2301
g2302
sg2303
g2304
sg2305
g2306
sg2307
I0
sg2308
I0
sg2309
(dp2319
Vnum_enemies
p2320
I2
sVattack_min
p2321
I2
sVelite
p2322
I1
sVattack_max
p2323
I3
sg2298
(dp2324
Vneue Sprengtechnologie
p2325
(dp2326
g2294
I0
sg2295
Vupgrade
p2327
sg2297
I40
sg2298
(lp2328
(dp2329
g2301
g2302
sg2303
g2304
sg2305
g2306
sg2307
I0
sg2308
I0
sg2309
(dp2330
Vshield_factor
p2331
F0.4
sVelite
p2332
I1
ssasg2313
I1
ssssasg2313
I1
sssS'shield'
p2333
I50
ssss.