(dp0
S'building_parameters'
p1
(dp2
I0
(dp3
S'elite_parameters'
p4
(dp5
S'ticks'
p6
(dp7
I0
(lp8
sI150
(lp9
(dp10
S'target'
p11
S'self'
p12
sS'level'
p13
S'id'
p14
sS'type'
p15
S'change'
p16
sS'random'
p17
I0
sS'num_units'
p18
I0
sS'changes'
p19
(dp20
S'actions'
p21
(dp22
VWerkstatt bauen
p23
(dp24
S'delay'
p25
I0
sS'category'
p26
Vshop
p27
sS'price'
p28
I350
sg21
(lp29
(dp30
g15
Vnew
p31
sg11
Vown
p32
sS'parameters'
p33
I3
sg13
Vbuildings
p34
sasS'num_uses'
p35
I-1
ssssassS'damage'
p36
(dp37
I0
(lp38
sssS'basic_parameters'
p39
(dp40
S'life'
p41
I800
sS'shop_transporter'
p42
(lp43
I0
asS'capacity'
p44
I25
sS'name'
p45
VHauptquartier
p46
sS'shield_factor'
p47
F0.4
sS'elite'
p48
I0
sS'shop_units'
p49
(lp50
I1
aI10
asS'attack_min'
p51
I0
sS'delay_shoot'
p52
I15
sS'id'
p53
I0
sS'price'
p54
I1000
sS'max_life'
p55
I800
sS'max_shield'
p56
I100
sS'actions'
p57
(dp58
VArzneistudium +
p59
(dp60
S'delay'
p61
I0
sS'category'
p62
Vupgrade
p63
sS'price'
p64
I250
sS'actions'
p65
(lp66
(dp67
S'target'
p68
S'self'
p69
sS'level'
p70
S'id'
p71
sS'type'
p72
S'change'
p73
sS'random'
p74
I0
sS'num_units'
p75
I0
sS'changes'
p76
(dp77
Vshop_units
p78
(lp79
I6
assa(dp80
g72
Vnew
p81
sg68
Vown
p82
sS'parameters'
p83
(lp84
I6
asg70
Vgroups
p85
sasS'num_uses'
p86
I1
ssVKommandant +
p87
(dp88
S'delay'
p89
I0
sS'category'
p90
Vupgrade
p91
sS'price'
p92
I350
sS'actions'
p93
(lp94
(dp95
S'target'
p96
S'self'
p97
sS'level'
p98
S'id'
p99
sS'type'
p100
S'change'
p101
sS'random'
p102
I0
sS'num_units'
p103
I0
sS'changes'
p104
(dp105
Vshop_units
p106
(lp107
I8
assa(dp108
S'type'
p109
Vnew
p110
sS'target'
p111
Vown
p112
sS'parameters'
p113
(lp114
I8
asS'level'
p115
Vgroups
p116
sasS'num_uses'
p117
I1
ssVHelikopter-Plattform +
p118
(dp119
S'delay'
p120
I0
sS'category'
p121
Vupgrade
p122
sS'price'
p123
I400
sS'actions'
p124
(lp125
(dp126
S'target'
p127
S'self'
p128
sS'level'
p129
S'id'
p130
sS'type'
p131
S'change'
p132
sS'random'
p133
I0
sS'num_units'
p134
I0
sS'changes'
p135
(dp136
Vshop_transporter
p137
(lp138
I1
assa(dp139
g131
Vnew
p140
sg127
Vown
p141
sS'parameters'
p142
I1
sg129
Vtransporter
p143
sasS'num_uses'
p144
I1
sssS'attack_max'
p145
I0
sS'enter'
p146
Vsoldier
p147
sS'shoot_dist'
p148
I6
sS'delay_out'
p149
I10
sS'delay_in'
p150
I20
sS'num_enemies'
p151
I4
sS'shield'
p152
I100
sssI1
(dp153
S'elite_parameters'
p154
(dp155
S'ticks'
p156
(dp157
I500
(lp158
ssS'damage'
p159
(dp160
I0
(lp161
sssS'basic_parameters'
p162
(dp163
S'life'
p164
I600
sS'shop_transporter'
p165
(lp166
sS'capacity'
p167
I15
sS'name'
p168
VKaserne
p169
sS'shop_units'
p170
(lp171
I0
asS'attack_min'
p172
I0
sS'shield'
p173
I80
sS'delay_shoot'
p174
I15
sS'delay_in'
p175
I20
sS'price'
p176
I600
sS'actions'
p177
(dp178
VSniper +
p179
(dp180
S'delay'
p181
I0
sS'category'
p182
Vupgrade
p183
sS'price'
p184
I200
sS'actions'
p185
(lp186
(dp187
S'target'
p188
S'self'
p189
sS'level'
p190
S'id'
p191
sS'type'
p192
S'change'
p193
sS'random'
p194
I0
sS'num_units'
p195
I0
sS'changes'
p196
(dp197
Vshop_units
p198
(lp199
I3
assa(dp200
S'type'
p201
Vnew
p202
sS'target'
p203
Vown
p204
sS'parameters'
p205
(lp206
I3
asS'level'
p207
Vgroups
p208
sasS'num_uses'
p209
I1
ssVVerteidigung
p210
(dp211
S'delay'
p212
I20
sS'category'
p213
Vupgrade
p214
sS'price'
p215
I100
sS'actions'
p216
(lp217
(dp218
S'target'
p219
S'self'
p220
sS'level'
p221
S'id'
p222
sS'type'
p223
S'change'
p224
sS'random'
p225
I0
sS'num_units'
p226
I0
sS'changes'
p227
(dp228
Vattack_min
p229
I20
sVattack_max
p230
I40
ssasS'num_uses'
p231
I1
ssVMG-Soldat
p232
(dp233
S'delay'
p234
I0
sS'category'
p235
Vupgrade
p236
sS'price'
p237
I250
sS'actions'
p238
(lp239
(dp240
g219
g220
sg221
g222
sg223
g224
sg225
I0
sg226
I0
sg227
(dp241
Vshop_units
p242
(lp243
I2
asVelite
p244
I1
sS'actions'
p245
(dp246
VMG-Soldat Ausbildung
p247
(dp248
S'delay'
p249
I0
sS'category'
p250
Vequipment
p251
sS'price'
p252
I0
sS'actions'
p253
(lp254
(dp255
S'target'
p256
Vown
p257
sS'level'
p258
Vid
p259
sS'type'
p260
Vchange
p261
sS'random'
p262
F0.0
sS'num_units'
p263
I1
sS'changes'
p264
(dp265
Vshop_units
p266
(lp267
I2
assasS'num_uses'
p268
I-1
ssssasS'num_uses'
p269
I1
ssVJavelin +
p270
(dp271
S'delay'
p272
I0
sS'category'
p273
Vupgrade
p274
sS'price'
p275
I400
sS'actions'
p276
(lp277
(dp278
S'target'
p279
S'self'
p280
sS'level'
p281
S'id'
p282
sS'type'
p283
S'change'
p284
sS'random'
p285
I0
sS'num_units'
p286
I0
sS'changes'
p287
(dp288
Vshop_units
p289
(lp290
I11
asVelite
p291
I1
ssa(dp292
g283
Vnew
p293
sg279
Vown
p294
sS'parameters'
p295
(lp296
I11
asg281
Vgroups
p297
sasS'num_uses'
p298
I1
sssS'max_life'
p299
I600
sg56
I80
sS'delay_out'
p300
I10
sS'enter'
p301
Vsoldier
p302
sS'id'
p303
I1
sS'shoot_dist'
p304
I6
sS'elite'
p305
I0
sS'shield_factor'
p306
F0.4
sS'num_enemies'
p307
I4
sS'attack_max'
p308
I0
sssI2
(dp309
S'elite_parameters'
p310
(dp311
S'ticks'
p312
(dp313
I0
(lp314
ssS'damage'
p315
(dp316
I0
(lp317
sssS'basic_parameters'
p318
(dp319
S'life'
p320
I500
sS'shop_transporter'
p321
(lp322
sS'capacity'
p323
I10
sS'name'
p324
VLazarett
p325
sS'shop_units'
p326
(lp327
sS'attack_min'
p328
I0
sS'shield'
p329
I75
sS'delay_shoot'
p330
I15
sS'delay_in'
p331
I20
sS'price'
p332
I500
sS'max_life'
p333
I500
sg56
I75
sS'actions'
p334
(dp335
V10x heilen
p336
(dp337
S'delay'
p338
I50
sS'category'
p339
Vstandard
p340
sg332
I400
sg334
(lp341
(dp342
S'target'
p343
Vown
p344
sS'level'
p345
Vid
p346
sS'type'
p347
Vchange
p348
sS'random'
p349
F0.0
sS'num_units'
p350
I0
sS'changes'
p351
(dp352
Vlife
p353
I50
ssasS'num_uses'
p354
I-1
ssV1x heilen
p355
(dp356
g338
I40
sg339
Vstandard
p357
sg332
I70
sg334
(lp358
(dp359
g343
Vown
p360
sg345
Vid
p361
sg347
Vchange
p362
sg349
F0.0
sg350
I1
sg351
(dp363
Vlife
p364
I50
ssasg354
I-1
ssVArztneistudium
p365
(dp366
S'delay'
p367
I0
sS'category'
p368
Vupgrade
p369
sS'price'
p370
I200
sS'actions'
p371
(lp372
(dp373
S'target'
p374
S'self'
p375
sS'level'
p376
S'id'
p377
sS'type'
p378
S'change'
p379
sS'random'
p380
I0
sS'num_units'
p381
I0
sS'changes'
p382
(dp383
Vshop_units
p384
(lp385
I6
assasS'num_uses'
p386
I1
ssV5x heilen
p387
(dp388
g338
I50
sg339
Vstandard
p389
sg332
I200
sg334
(lp390
(dp391
g343
Vown
p392
sg345
Vid
p393
sg347
Vchange
p394
sg349
F0.0
sg350
I5
sg351
(dp395
Vlife
p396
I50
ssasg354
I-1
sssS'attack_max'
p397
I0
sS'enter'
p398
Vsoldier
p399
sS'id'
p400
I2
sS'shoot_dist'
p401
I6
sS'elite'
p402
I0
sS'shield_factor'
p403
F0.4
sS'num_enemies'
p404
I4
sS'delay_out'
p405
I10
sssI3
(dp406
g310
(dp407
g312
(dp408
I0
(lp409
ssg315
(dp410
I0
(lp411
sssg318
(dp412
g320
I500
sg321
(lp413
I0
asg323
I10
sg324
VWerkstatt
p414
sg326
(lp415
I4
aI7
asg328
I0
sg329
I80
sg330
I15
sg331
I20
sg332
I700
sg333
I500
sg56
I80
sg334
(dp416
VFahrzeug Transporter
p417
(dp418
S'delay'
p419
I0
sS'category'
p420
Vupgrade
p421
sS'price'
p422
I150
sS'actions'
p423
(lp424
(dp425
S'target'
p426
S'self'
p427
sS'level'
p428
S'id'
p429
sS'type'
p430
S'change'
p431
sS'random'
p432
I0
sS'num_units'
p433
I0
sS'changes'
p434
(dp435
Vshop_transporter
p436
(lp437
I2
asVelite
p438
I1
ssasS'num_uses'
p439
I1
ssVArtillerie+
p440
(dp441
S'delay'
p442
I0
sS'category'
p443
Vupgrade
p444
sS'price'
p445
I700
sS'actions'
p446
(lp447
(dp448
S'target'
p449
S'self'
p450
sS'level'
p451
S'id'
p452
sS'type'
p453
S'change'
p454
sS'random'
p455
I0
sS'num_units'
p456
I0
sS'changes'
p457
(dp458
Vshop_units
p459
(lp460
I5
asVelite
p461
I1
ssa(dp462
S'type'
p463
Vnew
p464
sS'target'
p465
Vown
p466
sS'parameters'
p467
(lp468
I5
asS'level'
p469
Vgroups
p470
sasS'num_uses'
p471
I1
ssVVerteidigung
p472
(dp473
S'delay'
p474
I0
sS'category'
p475
Vupgrade
p476
sS'price'
p477
I50
sS'actions'
p478
(lp479
(dp480
g374
g375
sg376
g377
sg378
g379
sg380
I0
sg381
I0
sg382
(dp481
Vattack_min
p482
I7
sVattack_max
p483
I20
ssasS'num_uses'
p484
I1
sssg397
I0
sg398
Vvehicle
p485
sg400
I3
sg401
I6
sg402
I0
sg403
F0.4
sg404
I4
sg405
I10
sssI4
(dp486
g310
(dp487
g312
(dp488
I0
(lp489
ssg315
(dp490
I0
(lp491
sssg318
(dp492
g320
I600
sg321
(lp493
sg323
I15
sg324
VFlughafen
p494
sg326
(lp495
sg328
I0
sg329
I50
sg330
I15
sg331
I20
sg332
I400
sg333
I600
sg56
I50
sg334
(dp496
VFlak & Verteidigung
p497
(dp498
g419
I0
sg420
Vupgrade
p499
sg422
I100
sg423
(lp500
(dp501
g426
g427
sg428
g429
sg430
g431
sg432
I0
sg433
I0
sg434
(dp502
Vshop_units
p503
(lp504
I9
asVattack_min
p505
I30
sVelite
p506
I1
sVattack_max
p507
I50
ssasg439
I1
ssVHelikopter Landeplattform
p508
(dp509
g338
I0
sg339
Vupgrade
p510
sg332
I400
sg334
(lp511
(dp512
g343
S'self'
p513
sg345
g400
sg347
S'change'
p514
sg349
I0
sg350
I0
sg351
(dp515
Vshop_transporter
p516
(lp517
I1
asVelite
p518
I1
sS'actions'
p519
(dp520
VFallschirmspringer
p521
(dp522
S'delay'
p523
I0
sS'category'
p524
S'upgrade'
p525
sS'price'
p526
I0
sS'actions'
p527
(lp528
sS'num_uses'
p529
I-1
ssssasg354
I1
sssg397
I0
sg398
Vvehicle
p530
sg400
I4
sg401
I6
sg402
I0
sg403
F0.4
sg404
I4
sg405
I10
sssI5
(dp531
S'elite_parameters'
p532
(dp533
S'ticks'
p534
(dp535
I70
(lp536
(dp537
S'target'
p538
S'self'
p539
sS'level'
p540
S'id'
p541
sS'type'
p542
S'change'
p543
sS'random'
p544
I0
sS'num_units'
p545
I0
sS'changes'
p546
(dp547
Velite
p548
I1
sVlife
p549
I20
sVcapacity
p550
I1
ssassS'damage'
p551
(dp552
I0
(lp553
sssS'basic_parameters'
p554
(dp555
S'shop_units'
p556
(lp557
sS'life'
p558
I100
sS'shop_transporter'
p559
(lp560
sS'capacity'
p561
I5
sS'name'
p562
VBeam-Port
p563
sS'shield_factor'
p564
F0.0
sS'attack_min'
p565
I0
sS'delay_shoot'
p566
I0
sS'id'
p567
I5
sS'price'
p568
I175
sS'max_life'
p569
I100
sg56
I30
sS'delay_out'
p570
I10
sS'attack_max'
p571
I0
sS'enter'
p572
Vsoldier
p573
sS'shoot_dist'
p574
I0
sS'num_enemies'
p575
I0
sS'elite'
p576
I0
sS'delay_in'
p577
I15
sS'actions'
p578
(dp579
Vnix
p580
(dp581
S'delay'
p582
I0
sS'category'
p583
S'upgrade'
p584
sg568
I0
sg578
(lp585
sS'num_uses'
p586
I-1
ssVCapacitiy
p587
(dp588
S'delay'
p589
I0
sS'category'
p590
Vupgrade
p591
sS'price'
p592
I50
sS'actions'
p593
(lp594
(dp595
g538
g539
sg540
g541
sg542
g543
sg544
I0
sg545
I0
sg546
(dp596
Velite
p597
I1
sVcapacity
p598
I4
ssasS'num_uses'
p599
I1
sssS'shield'
p600
I30
sssI6
(dp601
g532
(dp602
g534
(dp603
I0
(lp604
ssg551
(dp605
I0
(lp606
sssg554
(dp607
g556
(lp608
sg558
I80
sg559
(lp609
sg561
I5
sg562
VMG-Nest
p610
sg564
F0.5
sg565
I20
sg566
I15
sg567
I6
sg568
I70
sg569
I80
sg56
I25
sg570
I10
sg571
I35
sg572
Vsoldier
p611
sg574
I6
sg575
I4
sg576
I0
sg577
I15
sg578
(dp612
Vzweites Geschuetz
p613
(dp614
S'delay'
p615
I0
sS'category'
p616
Vupgrade
p617
sS'price'
p618
I50
sS'actions'
p619
(lp620
sS'num_uses'
p621
I1
ssVPanzerabwehr
p622
(dp623
S'delay'
p624
I10
sS'category'
p625
Vupgrade
p626
sS'price'
p627
I150
sS'actions'
p628
(lp629
(dp630
g203
S'self'
p631
sg207
S'id'
p632
sg201
S'change'
p633
sS'random'
p634
I0
sS'num_units'
p635
I0
sS'changes'
p636
(dp637
Vshield
p638
I10
sVshield_factor
p639
F2.0
sVattack_min
p640
I-5
sS'actions'
p641
(dp642
VMoerser
p643
(dp644
S'delay'
p645
I0
sS'category'
p646
Vupgrade
p647
sS'price'
p648
I0
sg641
(lp649
sS'num_uses'
p650
I0
sssVattack_max
p651
I-10
sVshoot_dist
p652
I1
sVelite
p653
I2
ssasS'num_uses'
p654
I1
ssVBetonguss
p655
(dp656
g624
I0
sg625
Vupgrade
p657
sg627
I50
sg628
(lp658
(dp659
g203
g631
sg207
g632
sg201
g633
sg634
I0
sg635
I0
sg636
(dp660
Velite
p661
I1
sVmax_shield
p662
I15
sVshield
p663
I30
ssasg654
I1
ssVMoerser
p664
(dp665
S'delay'
p666
I10
sS'category'
p667
Vupgrade
p668
sS'price'
p669
I150
sS'actions'
p670
(lp671
(dp672
S'target'
p673
S'self'
p674
sS'level'
p675
S'id'
p676
sS'type'
p677
S'change'
p678
sS'random'
p679
I0
sS'num_units'
p680
I0
sS'changes'
p681
(dp682
Vnum_enemies
p683
I4
sVattack_min
p684
I10
sVdelay_shoot
p685
I8
sg641
(dp686
VPanzerabwehr
p687
(dp688
g645
I0
sg646
Vupgrade
p689
sg648
I0
sg641
(lp690
sg650
I0
sssVshoot_dist
p691
I3
sVelite
p692
I2
sVattack_max
p693
I55
ssasS'num_uses'
p694
I1
sssg600
I25
ssssS'unit_parameters'
p695
(dp696
I0
(dp697
S'elite_parameters'
p698
(dp699
S'ticks'
p700
(dp701
I1000
(lp702
(dp703
S'target'
p704
S'self'
p705
sS'level'
p706
S'id'
p707
sS'type'
p708
S'change'
p709
sS'random'
p710
I0
sS'num_units'
p711
I0
sS'changes'
p712
(dp713
Vlife
p714
I10
sVelite
p715
I1
sVshield
p716
I15
ssasI500
(lp717
(dp718
g704
g705
sg706
g707
sg708
g709
sg710
I0
sg711
I0
sg712
(dp719
Vlife
p720
I10
sVelite
p721
I1
sVshield
p722
I15
ssassS'damage'
p723
(dp724
I1000
(lp725
(dp726
S'target'
p727
S'self'
p728
sS'level'
p729
S'id'
p730
sS'type'
p731
S'change'
p732
sS'random'
p733
I0
sS'num_units'
p734
I0
sS'changes'
p735
(dp736
Vshoot_dist
p737
I2
sVmax_life
p738
I8
sVelite
p739
I1
sVattack_max
p740
I11
ssasI500
(lp741
(dp742
g704
g705
sg706
g707
sg708
g709
sg710
I0
sg711
I0
sg712
(dp743
Velite
p744
I1
sVattack_max
p745
I8
ssasI750
(lp746
(dp747
g727
g728
sg729
g730
sg731
g732
sg733
I0
sg734
I0
sg735
(dp748
Vattack_min
p749
I8
sVelite
p750
I1
sVattack_max
p751
I10
ssasssS'basic_parameters'
p752
(dp753
S'delay_walk'
p754
I15
sS'life'
p755
I50
sS'walk_dist'
p756
I5
sS'name'
p757
VSoldat
p758
sS'num_enemies'
p759
I4
sS'attack_min'
p760
I10
sS'delay_shoot'
p761
I15
sS'id'
p762
I0
sS'unit_type'
p763
Vsoldier
p764
sS'max_life'
p765
I50
sg56
I0
sS'attack_max'
p766
I20
sS'shoot_dist'
p767
I6
sS'price'
p768
I70
sS'elite'
p769
I0
sS'shield_factor'
p770
F0.5
sS'actions'
p771
(dp772
V2 HG (2x10)
p773
(dp774
S'delay'
p775
I0
sS'category'
p776
Vequipment
p777
sg176
I70
sg177
(lp778
(dp779
S'target'
p780
S'self'
p781
sS'level'
p782
S'id'
p783
sS'type'
p784
S'change'
p785
sS'random'
p786
I0
sS'num_units'
p787
I0
sS'changes'
p788
(dp789
S'actions'
p790
(dp791
VHG
p792
(dp793
S'delay'
p794
I7
sS'category'
p795
Vstandard
p796
sS'price'
p797
I0
sg790
(lp798
(dp799
g780
Venemy
p800
sg782
Vid
p801
sg784
Vchange
p802
sg786
F0.25
sg787
I3
sg788
(dp803
Vlife
p804
I-10
ssasS'num_uses'
p805
I2
ssssasS'num_uses'
p806
I-1
ssVSchutzweste
p807
(dp808
g338
I0
sg339
Vupgrade
p809
sg332
I30
sg334
(lp810
(dp811
g343
g513
sg345
g400
sg347
g514
sg349
I0
sg350
I0
sg351
(dp812
Vmax_shield
p813
I10
sVshield
p814
I10
sg334
(dp815
VSchild & wenig heilen
p816
(dp817
g338
I0
sg339
Vupgrade
p818
sg332
I50
sg334
(lp819
(dp820
g343
g513
sg345
g400
sg347
g514
sg349
I0
sg350
I0
sg351
(dp821
Vmax_shield
p822
I15
sVlife
p823
I15
sVmax_life
p824
I6
sVelite
p825
I1
sVshield
p826
I15
ssasg354
I1
ssssasg354
I1
ssVneue Schuhe
p827
(dp828
g775
I0
sg776
Vupgrade
p829
sg176
I20
sg177
(lp830
(dp831
S'target'
p832
Vself
p833
sS'level'
p834
Vid
p835
sS'type'
p836
Vchange
p837
sS'random'
p838
F0.0
sS'num_units'
p839
F1.0
sS'changes'
p840
(dp841
Vdelay_walk
p842
I-2
sVwalk_dist
p843
I1
sVelite
p844
I1
sg177
(dp845
ssasg806
I1
ssVneue Munition
p846
(dp847
g775
I0
sg776
Vupgrade
p848
sg176
I20
sg177
(lp849
(dp850
g832
S'self'
p851
sg834
g303
sg836
S'change'
p852
sg838
I0
sg839
I0
sg840
(dp853
Vattack_min
p854
I5
sVattack_max
p855
I5
sg177
(dp856
VSchnellfeuer
p857
(dp858
g775
I0
sg776
Vupgrade
p859
sg176
I30
sg177
(lp860
(dp861
g832
g851
sg834
g303
sg836
g852
sg838
I0
sg839
I0
sg840
(dp862
Vnum_enemies
p863
I2
sVattack_min
p864
I4
sVelite
p865
I1
sVattack_max
p866
I8
sS'actions'
p867
(dp868
VFlammenwerfer
p869
(dp870
g624
I0
sg625
Vupgrade
p871
sg627
I40
sg628
(lp872
(dp873
g203
g631
sg207
g632
sg201
g633
sg634
I0
sg635
I0
sg636
(dp874
Vnum_enemies
p875
I4
sVattack_min
p876
I10
sVelite
p877
I1
sVattack_max
p878
I10
ssasg654
I1
ssVSchildexperte
p879
(dp880
S'delay'
p881
I0
sS'category'
p882
Vupgrade
p883
sS'price'
p884
I0
sg867
(lp885
sS'num_uses'
p886
I0
ssssasg806
I1
ssVSchildexperte
p887
(dp888
g775
I0
sg776
Vupgrade
p889
sg176
I30
sg177
(lp890
(dp891
g832
g851
sg834
g303
sg836
g852
sg838
I0
sg839
I0
sg840
(dp892
Vshield_factor
p893
F0.1
sVattack_min
p894
I6
sVelite
p895
I1
sVattack_max
p896
I4
sg177
(dp897
VSchnellfeuer
p898
(dp899
S'delay'
p900
I0
sS'category'
p901
Vupgrade
p902
sS'price'
p903
I0
sS'actions'
p904
(lp905
sS'num_uses'
p906
I0
ssVPanzerbrecher
p907
(dp908
g624
I0
sg625
Vupgrade
p909
sg627
I40
sg628
(lp910
(dp911
g203
g631
sg207
g632
sg201
g633
sg634
I0
sg635
I0
sg636
(dp912
Vshield_factor
p913
F0.2
sVattack_min
p914
I4
sVelite
p915
I1
sVattack_max
p916
I10
ssasg654
I1
ssssasg806
I1
ssssasg806
I1
sssS'shield'
p917
I0
sssI1
(dp918
g698
(dp919
g700
(dp920
I1000
(lp921
(dp922
g832
g851
sg834
g303
sg836
g852
sg838
I0
sg839
I0
sg840
(dp923
Velite
p924
I1
sVwalk_dist
p925
I1
sVmax_shield
p926
I10
sVshield
p927
I10
ssasI400
(lp928
(dp929
S'target'
p930
S'self'
p931
sS'level'
p932
S'id'
p933
sS'type'
p934
S'change'
p935
sS'random'
p936
I0
sS'num_units'
p937
I0
sS'changes'
p938
(dp939
Vdelay_walk
p940
I-2
sVlife
p941
I20
sVwalk_dist
p942
I1
sVelite
p943
I1
ssasI700
(lp944
(dp945
g930
g931
sg932
g933
sg934
g935
sg936
I0
sg937
I0
sg938
(dp946
Vmax_shield
p947
I8
sVlife
p948
I15
sVmax_life
p949
I10
sVelite
p950
I1
sVshield
p951
I13
ssassg723
(dp952
I0
(lp953
sssg752
(dp954
g754
I15
sg755
I40
sg756
I5
sg757
VIngenieur
p955
sg759
I1
sg760
I3
sg761
I15
sg762
I1
sg763
Vsoldier
p956
sg765
I40
sg56
I0
sg766
I5
sg767
I2
sg768
I100
sg769
I0
sg770
F0.4
sg771
(dp957
VSchild-Mech
p958
(dp959
g666
I8
sg667
Vupgrade
p960
sg669
I80
sg670
(lp961
(dp962
g673
Vown
p963
sg675
Vid
p964
sg677
Vchange
p965
sg679
F0.1
sg680
I1
sg681
(dp966
Vshield
p967
I10
ssa(dp968
g673
g674
sg675
g676
sg677
g678
sg679
I0
sg680
I0
sg681
(dp969
g670
(dp970
Vreparieren 3x10
p971
(dp972
g666
I7
sg667
Vstandard
p973
sg669
I50
sg670
(lp974
(dp975
g673
Vown
p976
sg675
Vid
p977
sg677
Vchange
p978
sg679
F0.2
sg680
I3
sg681
(dp979
Vshield
p980
I10
ssasg694
I-1
ssVTeile ersetzen 6x10
p981
(dp982
g666
I7
sg667
Vstandard
p983
sg669
I90
sg670
(lp984
(dp985
g673
Vown
p986
sg675
Vid
p987
sg677
Vchange
p988
sg679
F0.1
sg680
I6
sg681
(dp989
Vshield
p990
I10
ssasg694
I-1
ssssasg694
I1
ssVBruecke bauen
p991
(dp992
S'delay'
p993
I40
sS'category'
p994
Vshop
p995
sS'price'
p996
I100
sS'actions'
p997
(lp998
(dp999
S'target'
p1000
S'self'
p1001
sS'level'
p1002
S'id'
p1003
sS'type'
p1004
S'change'
p1005
sS'random'
p1006
I0
sS'num_units'
p1007
I0
sS'changes'
p1008
(dp1009
Vlife
p1010
I0
ssasS'num_uses'
p1011
I-1
ssVMG-Nest
p1012
(dp1013
S'delay'
p1014
I30
sS'category'
p1015
Vshop
p1016
sS'price'
p1017
I70
sS'actions'
p1018
(lp1019
(dp1020
g100
Vnew
p1021
sg96
Vown
p1022
sS'parameters'
p1023
I6
sg98
Vbuildings
p1024
sasS'num_uses'
p1025
I-1
ssVleichtere Ausruestung
p1026
(dp1027
g666
I0
sg667
Vupgrade
p1028
sg669
I30
sg670
(lp1029
(dp1030
g673
g674
sg675
g676
sg677
g678
sg679
I0
sg680
I0
sg681
(dp1031
Vdelay_walk
p1032
I-2
sVwalk_dist
p1033
I1
sVelite
p1034
I1
ssasg694
I1
ssVWerkstatt
p1035
(dp1036
g367
I60
sg368
Vshop
p1037
sg370
I350
sg371
(lp1038
(dp1039
g378
Vnew
p1040
sg374
Vown
p1041
sS'parameters'
p1042
I3
sg376
Vbuildings
p1043
sasg386
I-1
ssVFlugplatz
p1044
(dp1045
g474
I50
sg475
Vshop
p1046
sg477
I300
sg478
(lp1047
(dp1048
S'type'
p1049
Vnew
p1050
sS'target'
p1051
Vown
p1052
sS'parameters'
p1053
I4
sS'level'
p1054
Vbuildings
p1055
sasg484
I-1
ssVLazarett
p1056
(dp1057
g474
I50
sg475
Vshop
p1058
sg477
I250
sg478
(lp1059
(dp1060
g1049
Vnew
p1061
sg1051
Vown
p1062
sg1053
I2
sg1054
Vbuildings
p1063
sasg484
I-1
ssVKaserne
p1064
(dp1065
g775
I60
sg776
Vshop
p1066
sg176
I300
sg177
(lp1067
(dp1068
g836
Vnew
p1069
sg832
Vown
p1070
sS'parameters'
p1071
I1
sg834
Vbuildings
p1072
sasg806
I-1
ssVKampfingenieur
p1073
(dp1074
g234
I0
sg235
Vupgrade
p1075
sg237
I70
sg238
(lp1076
(dp1077
g219
g220
sg221
g222
sg223
g224
sg225
I0
sg226
I0
sg227
(dp1078
Vshield
p1079
I8
sVattack_min
p1080
I10
sg238
(dp1081
V3 Granaten
p1082
(dp1083
g234
I0
sg235
Vequipment
p1084
sg237
I70
sg238
(lp1085
(dp1086
g219
Vself
p1087
sg221
Vid
p1088
sg223
Vchange
p1089
sg225
F0.4
sg226
I3
sg227
(dp1090
g238
(dp1091
VGranate
p1092
(dp1093
g234
I10
sg235
Vstandard
p1094
sg237
I0
sg238
(lp1095
(dp1096
g219
Venemy
p1097
sg221
Vid
p1098
sg223
Vchange
p1099
sg225
F0.4
sg226
I3
sg227
(dp1100
Vlife
p1101
I-15
ssasg269
I3
ssssasg269
I-1
sssVmax_shield
p1102
I8
sVattack_max
p1103
I15
sVelite
p1104
I1
ssasg269
I1
sssg917
I0
sssI2
(dp1105
g698
(dp1106
g700
(dp1107
I400
(lp1108
(dp1109
g930
g931
sg932
g933
sg934
g935
sg936
I0
sg937
I0
sg938
(dp1110
Vdelay_walk
p1111
I-2
sVlife
p1112
I15
sVelite
p1113
I1
sVshield
p1114
I8
ssasI800
(lp1115
(dp1116
g930
g931
sg932
g933
sg934
g935
sg936
I0
sg937
I0
sg938
(dp1117
Vlife
p1118
I15
sVmax_life
p1119
I10
sVelite
p1120
I1
sVshield
p1121
I10
sVdelay_shoot
p1122
I-2
ssassg723
(dp1123
I500
(lp1124
(dp1125
S'target'
p1126
S'self'
p1127
sS'level'
p1128
S'id'
p1129
sS'type'
p1130
S'change'
p1131
sS'random'
p1132
I0
sS'num_units'
p1133
I0
sS'changes'
p1134
(dp1135
Vshield_factor
p1136
F0.1
sVattack_min
p1137
I10
sVelite
p1138
I1
sS'actions'
p1139
(dp1140
VSchusstraining
p1141
(dp1142
S'delay'
p1143
I0
sS'category'
p1144
Vupgrade
p1145
sS'price'
p1146
I40
sg1139
(lp1147
(dp1148
g279
g280
sg281
g282
sg283
g284
sg285
I0
sg286
I0
sg287
(dp1149
Vshoot_dist
p1150
I1
sVelite
p1151
I1
sVdelay_shoot
p1152
I-4
ssasS'num_uses'
p1153
I1
ssssasssg752
(dp1154
g754
I18
sg755
I80
sg756
I5
sg757
VMG-Soldat
p1155
sg759
I10
sg760
I20
sg761
I20
sg762
I2
sg763
Vsoldier
p1156
sg765
I80
sg56
I20
sg766
I60
sg767
I7
sg768
I175
sg769
I0
sg770
F0.55
sg771
(dp1157
Vbessere Munition
p1158
(dp1159
g234
I0
sg235
Vupgrade
p1160
sg237
I40
sg238
(lp1161
(dp1162
g219
g220
sg221
g222
sg223
g224
sg225
I0
sg226
I0
sg227
(dp1163
Vattack_min
p1164
I10
sVattack_max
p1165
I5
sg238
(dp1166
VPanzerbrecher
p1167
(dp1168
g234
I0
sg235
Vupgrade
p1169
sg237
I60
sg238
(lp1170
(dp1171
g219
g220
sg221
g222
sg223
g224
sg225
I0
sg226
I0
sg227
(dp1172
Vshield_factor
p1173
F0.1
sVelite
p1174
I1
sVattack_max
p1175
I15
sg238
(dp1176
VBazooka
p1177
(dp1178
g234
I0
sg235
Vupgrade
p1179
sg237
I80
sg238
(lp1180
(dp1181
g219
g220
sg221
g222
sg223
g224
sg225
I0
sg226
I0
sg227
(dp1182
Vshield_factor
p1183
F0.15
sVattack_min
p1184
I15
sVelite
p1185
I1
sVnum_enemies
p1186
I2
sVattack_max
p1187
I10
ssasg269
I1
ssssasg269
I1
ssssasg269
I1
ssVKampfausbildung
p1188
(dp1189
S'delay'
p1190
I0
sS'category'
p1191
Vupgrade
p1192
sS'price'
p1193
I40
sS'actions'
p1194
(lp1195
(dp1196
S'target'
p1197
S'self'
p1198
sS'level'
p1199
S'id'
p1200
sS'type'
p1201
S'change'
p1202
sS'random'
p1203
I0
sS'num_units'
p1204
I0
sS'changes'
p1205
(dp1206
Vshoot_dist
p1207
I1
sVelite
p1208
I1
sVdelay_shoot
p1209
I-5
ssasS'num_uses'
p1210
I1
ssVSpeed I
p1211
(dp1212
g474
I0
sg475
Vupgrade
p1213
sg477
I40
sg478
(lp1214
(dp1215
g219
g220
sg221
g222
sg223
g224
sg225
I0
sg226
I0
sg227
(dp1216
Vdelay_walk
p1217
I-5
sVelite
p1218
I1
sg238
(dp1219
VSpeed II
p1220
(dp1221
g234
I0
sg235
Vupgrade
p1222
sg237
I50
sg238
(lp1223
(dp1224
g219
g220
sg221
g222
sg223
g224
sg225
I0
sg226
I0
sg227
(dp1225
Vdelay_walk
p1226
I-5
sVwalk_dist
p1227
I1
sVelite
p1228
I1
sVdelay_shoot
p1229
I-3
ssasg269
I1
ssssasg484
I1
sssg917
I20
sssI3
(dp1230
g698
(dp1231
g700
(dp1232
I400
(lp1233
(dp1234
g930
g931
sg932
g933
sg934
g935
sg936
I0
sg937
I0
sg938
(dp1235
Vmax_shield
p1236
I8
sVattack_min
p1237
I5
sVelite
p1238
I1
sVshield
p1239
I8
ssasI800
(lp1240
(dp1241
g930
g931
sg932
g933
sg934
g935
sg936
I0
sg937
I0
sg938
(dp1242
Vshield_factor
p1243
F0.1
sVattack_min
p1244
I8
sVelite
p1245
I1
sVattack_max
p1246
I14
ssassg723
(dp1247
I0
(lp1248
sI250
(lp1249
(dp1250
g374
g375
sg376
g377
sg378
g379
sg380
I0
sg381
I0
sg382
(dp1251
Vattack_min
p1252
I8
sVelite
p1253
I1
sVattack_max
p1254
I8
sg371
(dp1255
Vschneller laden
p1256
(dp1257
g367
I0
sg368
Vupgrade
p1258
sg370
I40
sg371
(lp1259
(dp1260
g374
g375
sg376
g377
sg378
g379
sg380
I0
sg381
I0
sg382
(dp1261
Vdelay_shoot
p1262
I-4
ssasg386
I1
ssssasssg752
(dp1263
g754
I15
sg755
I50
sg756
I5
sg757
VSniper
p1264
sg759
I1
sg760
I40
sg761
I20
sg762
I3
sg763
Vsoldier
p1265
sg765
I50
sg56
I0
sg766
I60
sg767
I10
sg768
I200
sg769
I0
sg770
F0.6
sg771
(dp1266
VSchutzweste
p1267
(dp1268
g181
I0
sg182
Vupgrade
p1269
sg184
I30
sg185
(lp1270
(dp1271
g188
g189
sg190
g191
sg192
g193
sg194
I0
sg195
I0
sg196
(dp1272
Vmax_shield
p1273
I10
sVshield
p1274
I10
ssasg209
I1
ssVSpeed I (ziehen und laden)
p1275
(dp1276
g181
I0
sg182
Vupgrade
p1277
sg184
I30
sg185
(lp1278
(dp1279
g188
g189
sg190
g191
sg192
g193
sg194
I0
sg195
I0
sg196
(dp1280
Vwalk_dist
p1281
I1
sVelite
p1282
I1
sVdelay_shoot
p1283
I-2
ssasg209
I1
ssVhoehere Schussweite
p1284
(dp1285
S'delay'
p1286
I0
sS'category'
p1287
Vupgrade
p1288
sS'price'
p1289
I40
sS'actions'
p1290
(lp1291
(dp1292
S'target'
p1293
S'self'
p1294
sS'level'
p1295
S'id'
p1296
sS'type'
p1297
S'change'
p1298
sS'random'
p1299
I0
sS'num_units'
p1300
I0
sS'changes'
p1301
(dp1302
Vshoot_dist
p1303
I1
sVelite
p1304
I1
sg1290
(dp1305
VDistanzexperte
p1306
(dp1307
g1286
I0
sg1287
Vupgrade
p1308
sg1289
I50
sg1290
(lp1309
(dp1310
g1293
g1294
sg1295
g1296
sg1297
g1298
sg1299
I0
sg1300
I0
sg1301
(dp1311
Vshoot_dist
p1312
I1
sVattack_min
p1313
I8
sVelite
p1314
I1
sg1290
(dp1315
ssasS'num_uses'
p1316
I1
ssssasg1316
I1
ssVPraezision
p1317
(dp1318
S'delay'
p1319
I0
sS'category'
p1320
Vupgrade
p1321
sS'price'
p1322
I30
sg519
(lp1323
(dp1324
S'target'
p1325
S'self'
p1326
sS'level'
p1327
S'id'
p1328
sS'type'
p1329
S'change'
p1330
sS'random'
p1331
I0
sS'num_units'
p1332
I0
sS'changes'
p1333
(dp1334
Vattack_min
p1335
I15
sVelite
p1336
I1
sVattack_max
p1337
I8
sg371
(dp1338
Vbessere Munition
p1339
(dp1340
g367
I0
sg368
Vupgrade
p1341
sg370
I40
sg371
(lp1342
(dp1343
g374
g375
sg376
g377
sg378
g379
sg380
I0
sg381
I0
sg382
(dp1344
Vshield_factor
p1345
F0.05
sVattack_min
p1346
I15
sVelite
p1347
I1
sVattack_max
p1348
I10
sg371
(dp1349
VSchildzerstoerer
p1350
(dp1351
g367
I0
sg368
Vupgrade
p1352
sg370
I30
sg371
(lp1353
(dp1354
g374
g375
sg376
g377
sg378
g379
sg380
I0
sg381
I0
sg382
(dp1355
Vshield_factor
p1356
F0.2
sVelite
p1357
I1
sVattack_max
p1358
I8
sg276
(dp1359
VDoppelschuss
p1360
(dp1361
g272
I0
sg273
Vupgrade
p1362
sg275
I0
sg276
(lp1363
sg298
I0
ssssasg386
I1
ssssasg386
I1
ssVDoppelschuss
p1364
(dp1365
g1286
I0
sg1287
Vupgrade
p1366
sg1289
I60
sg1290
(lp1367
(dp1368
g1293
g1294
sg1295
g1296
sg1297
g1298
sg1299
I0
sg1300
I0
sg1301
(dp1369
Vnum_enemies
p1370
I1
sVattack_min
p1371
I8
sVelite
p1372
I1
sVattack_max
p1373
I15
sg276
(dp1374
VSchildzerstoerer
p1375
(dp1376
g272
I0
sg273
Vupgrade
p1377
sg275
I0
sg276
(lp1378
sg298
I0
ssssasg1316
I1
ssssasS'num_uses'
p1379
I1
sssg917
I0
sssI4
(dp1380
g698
(dp1381
g700
(dp1382
I0
(lp1383
sI600
(lp1384
(dp1385
g930
g931
sg932
g933
sg934
g935
sg936
I0
sg937
I0
sg938
(dp1386
Vdelay_walk
p1387
I-3
sVelite
p1388
I1
sVshield
p1389
I30
sVmax_shield
p1390
I15
ssasI300
(lp1391
(dp1392
g930
g931
sg932
g933
sg934
g935
sg936
I0
sg937
I0
sg938
(dp1393
Vdelay_walk
p1394
I-2
sVelite
p1395
I1
sVshield
p1396
I15
sVdelay_shoot
p1397
I-3
ssassg723
(dp1398
I500
(lp1399
(dp1400
g188
g189
sg190
g191
sg192
g193
sg194
I0
sg195
I0
sg196
(dp1401
Vshield_factor
p1402
F0.07
sVattack_min
p1403
I10
sVelite
p1404
I1
sVattack_max
p1405
I5
ssasssg752
(dp1406
g754
I18
sg755
I100
sg756
I5
sg757
VPanzer
p1407
sg759
I8
sg760
I50
sg761
I18
sg762
I4
sg763
Vvehicle
p1408
sg765
I100
sg56
I100
sg766
I90
sg767
I7
sg768
I400
sg769
I0
sg770
F0.6
sg771
(dp1409
VShottpanzerung
p1410
(dp1411
g624
I0
sg625
Vupgrade
p1412
sg627
I70
sg628
(lp1413
(dp1414
g203
g631
sg207
g632
sg201
g633
sg634
I0
sg635
I0
sg636
(dp1415
Vdelay_walk
p1416
I3
sVelite
p1417
I1
sVshield
p1418
I50
sg628
(dp1419
VVerbundpanzerung
p1420
(dp1421
g624
I0
sg625
Vupgrade
p1422
sg627
I40
sg628
(lp1423
(dp1424
g203
g631
sg207
g632
sg201
g633
sg634
I0
sg635
I0
sg636
(dp1425
Vdelay_walk
p1426
I-3
sVlife
p1427
I10
sVelite
p1428
I1
sVshield
p1429
I25
sVmax_shield
p1430
I15
ssasg654
I1
sssVmax_shield
p1431
I30
ssasg654
I1
ssVHartkernmunition
p1432
(dp1433
S'delay'
p1434
I0
sS'category'
p1435
Vupgrade
p1436
sS'price'
p1437
I30
sS'actions'
p1438
(lp1439
(dp1440
S'target'
p1441
Vself
p1442
sS'level'
p1443
Vid
p1444
sS'type'
p1445
Vchange
p1446
sS'random'
p1447
F0.0
sS'num_units'
p1448
I0
sS'changes'
p1449
(dp1450
Vshield_factor
p1451
F0.15
sVelite
p1452
I1
sVattack_max
p1453
I8
sS'actions'
p1454
(dp1455
VUrangeschoss
p1456
(dp1457
S'delay'
p1458
I0
sS'category'
p1459
Vupgrade
p1460
sS'price'
p1461
I80
sg1454
(lp1462
(dp1463
S'target'
p1464
Vself
p1465
sS'level'
p1466
Vid
p1467
sS'type'
p1468
Vchange
p1469
sS'random'
p1470
F0.0
sS'num_units'
p1471
I0
sS'changes'
p1472
(dp1473
Vshield_factor
p1474
F0.2
sVattack_min
p1475
I15
sVelite
p1476
I1
sVattack_max
p1477
I15
ssasS'num_uses'
p1478
I1
ssssasS'num_uses'
p1479
I1
ssVSpeed I
p1480
(dp1481
g474
I0
sg475
Vupgrade
p1482
sg477
I20
sg478
(lp1483
(dp1484
g1441
S'self'
p1485
sg1443
S'id'
p1486
sg1445
S'change'
p1487
sg1447
I0
sg1448
I0
sg1449
(dp1488
Vdelay_walk
p1489
I-2
sg1438
(dp1490
VSpeed II
p1491
(dp1492
g1434
I0
sg1435
Vupgrade
p1493
sg1437
I40
sg1438
(lp1494
(dp1495
g1441
g1485
sg1443
g1486
sg1445
g1487
sg1447
I0
sg1448
I0
sg1449
(dp1496
Vdelay_walk
p1497
I-2
sVwalk_dist
p1498
I1
sVelite
p1499
I1
ssasg1479
I1
ssssasg484
I1
sssg917
I100
sssI5
(dp1500
g698
(dp1501
g700
(dp1502
I0
(lp1503
sI500
(lp1504
(dp1505
S'target'
p1506
S'self'
p1507
sS'level'
p1508
S'id'
p1509
sS'type'
p1510
S'change'
p1511
sS'random'
p1512
I0
sS'num_units'
p1513
I0
sS'changes'
p1514
(dp1515
Vmax_life
p1516
I10
sVelite
p1517
I1
ssassg723
(dp1518
I0
(lp1519
sssg752
(dp1520
g754
I15
sg755
I100
sg756
I5
sg757
VArtillerie
p1521
sg759
I10
sg760
I0
sg761
I35
sg762
I5
sg763
Vvehicle
p1522
sg765
I100
sg56
I70
sg766
I0
sg767
I10
sg768
I600
sg769
I0
sg770
F0.5
sg771
(dp1523
Vgroessere Schussweite I
p1524
(dp1525
g1434
I0
sg1435
Vupgrade
p1526
sg1437
I40
sg1438
(lp1527
(dp1528
g1441
g1485
sg1443
g1486
sg1445
g1487
sg1447
I0
sg1448
I0
sg1449
(dp1529
Vshoot_dist
p1530
I1
sVelite
p1531
I1
sg446
(dp1532
Vgroessere Schussweite II
p1533
(dp1534
g442
I0
sg443
Vupgrade
p1535
sg445
I50
sg446
(lp1536
(dp1537
g449
g450
sg451
g452
sg453
g454
sg455
I0
sg456
I0
sg457
(dp1538
Vshoot_dist
p1539
I1
sVelite
p1540
I1
ssasg471
I1
ssVStreuung erhoehen
p1541
(dp1542
g442
I0
sg443
Vupgrade
p1543
sg445
I40
sg446
(lp1544
(dp1545
g449
g450
sg451
g452
sg453
g454
sg455
I0
sg456
I0
sg457
(dp1546
Vnum_enemies
p1547
I5
sVattack_min
p1548
I15
sVelite
p1549
I1
ssasg471
I1
ssssasg1479
I1
ssVAufbauen
p1550
(dp1551
S'delay'
p1552
I25
sS'category'
p1553
Vstandard
p1554
sS'price'
p1555
I0
sS'actions'
p1556
(lp1557
(dp1558
S'target'
p1559
S'self'
p1560
sS'level'
p1561
S'id'
p1562
sS'type'
p1563
S'change'
p1564
sS'random'
p1565
I0
sS'num_units'
p1566
I0
sS'changes'
p1567
(dp1568
Vwalk_dist
p1569
I-5
sVattack_min
p1570
I100
sVattack_max
p1571
I200
sg1556
(dp1572
VTransport
p1573
(dp1574
S'delay'
p1575
I30
sS'category'
p1576
Vequipment
p1577
sS'price'
p1578
I0
sS'actions'
p1579
(lp1580
(dp1581
S'target'
p1582
S'self'
p1583
sS'level'
p1584
S'id'
p1585
sS'type'
p1586
S'change'
p1587
sS'random'
p1588
I0
sS'num_units'
p1589
I0
sS'changes'
p1590
(dp1591
Vwalk_dist
p1592
I5
sVattack_min
p1593
I-100
sVattack_max
p1594
I-200
sg1579
(dp1595
VAufbau
p1596
(dp1597
g1575
I25
sg1576
Vstandard
p1598
sg1578
I0
sg1579
(lp1599
(dp1600
g1582
g1583
sg1584
g1585
sg1586
g1587
sg1588
I0
sg1589
I0
sg1590
(dp1601
Vattack_min
p1602
I100
sVattack_max
p1603
I200
sVwalk_dist
p1604
I-5
ssasS'num_uses'
p1605
I1
ssssasg1605
I-1
ssssasS'num_uses'
p1606
I1
ssVSpeed I
p1607
(dp1608
g474
I0
sg475
Vupgrade
p1609
sg477
I80
sg478
(lp1610
(dp1611
g449
g450
sg451
g452
sg453
g454
sg455
I0
sg456
I0
sg457
(dp1612
Vdelay_walk
p1613
I-4
sVelite
p1614
I1
sVdelay_shoot
p1615
I-8
sg446
(dp1616
VSpeed II
p1617
(dp1618
g442
I0
sg443
Vupgrade
p1619
sg445
I50
sg446
(lp1620
(dp1621
g449
g450
sg451
g452
sg453
g454
sg455
I0
sg456
I0
sg457
(dp1622
Vdelay_walk
p1623
I-2
sVelite
p1624
I1
sVdelay_shoot
p1625
I-8
ssasg471
I1
ssssasg484
I1
sssg917
I70
sssI6
(dp1626
S'elite_parameters'
p1627
(dp1628
S'ticks'
p1629
(dp1630
I800
(lp1631
(dp1632
g930
g931
sg932
g933
sg934
g935
sg936
I0
sg937
I0
sg938
(dp1633
Vmax_shield
p1634
I8
sVlife
p1635
I100
sVmax_life
p1636
I10
sVelite
p1637
I1
sVshield
p1638
I15
ssasI400
(lp1639
(dp1640
g930
g931
sg932
g933
sg934
g935
sg936
I0
sg937
I0
sg938
(dp1641
Vlife
p1642
I100
sVmax_life
p1643
I8
sVelite
p1644
I1
ssassS'damage'
p1645
(dp1646
I0
(lp1647
sssS'basic_parameters'
p1648
(dp1649
S'delay_walk'
p1650
I15
sS'life'
p1651
I50
sS'walk_dist'
p1652
I5
sS'name'
p1653
VArzt
p1654
sS'num_enemies'
p1655
I3
sS'attack_min'
p1656
I0
sS'delay_shoot'
p1657
I15
sg1129
I6
sS'unit_type'
p1658
Vsoldier
p1659
sS'max_life'
p1660
I50
sg56
I10
sS'attack_max'
p1661
I0
sS'shoot_dist'
p1662
I5
sg1146
I120
sS'elite'
p1663
I0
sS'shield_factor'
p1664
F0.4
sg1139
(dp1665
VSchmerzmittel
p1666
(dp1667
g367
I0
sg368
Vshop
p1668
sg370
I35
sg371
(lp1669
(dp1670
g673
Vself
p1671
sg675
Vid
p1672
sg677
Vchange
p1673
sg679
F0.15
sg680
I0
sg681
(dp1674
Vlife
p1675
I30
ssasg386
I-1
ssVOperation 120
p1676
(dp1677
g666
I12
sg667
Vstandard
p1678
sg669
I130
sg670
(lp1679
(dp1680
g673
Vown
p1681
sg675
Vid
p1682
sg677
Vchange
p1683
sg679
F0.2
sg680
I120
sg681
(dp1684
Vlife
p1685
I10
ssasg694
I-1
ssVVerband 50
p1686
(dp1687
g666
I8
sg667
Vstandard
p1688
sg669
I60
sg670
(lp1689
(dp1690
g673
Vown
p1691
sg675
Vid
p1692
sg677
Vchange
p1693
sg679
F0.2
sg680
I5
sg681
(dp1694
Vlife
p1695
I10
ssasg694
I-1
ssVSpeed I
p1696
(dp1697
g367
I0
sg368
Vupgrade
p1698
sg370
I30
sg371
(lp1699
(dp1700
g374
g375
sg376
g377
sg378
g379
sg380
I0
sg381
I0
sg382
(dp1701
Vwalk_dist
p1702
I1
sVelite
p1703
I1
sg371
(dp1704
VSpeed II
p1705
(dp1706
g367
I0
sg368
Vupgrade
p1707
sg370
I50
sg371
(lp1708
(dp1709
g374
g375
sg376
g377
sg378
g379
sg380
I0
sg381
I0
sg382
(dp1710
Vdelay_walk
p1711
I-4
sVwalk_dist
p1712
I2
sVelite
p1713
I1
ssasg386
I1
ssssasg386
I1
sssS'shield'
p1714
I10
sssI7
(dp1715
S'elite_parameters'
p1716
(dp1717
S'ticks'
p1718
(dp1719
I0
(lp1720
ssS'damage'
p1721
(dp1722
I0
(lp1723
sssS'basic_parameters'
p1724
(dp1725
S'delay_walk'
p1726
I15
sS'life'
p1727
I60
sS'walk_dist'
p1728
I5
sS'name'
p1729
VCyborg
p1730
sS'num_enemies'
p1731
I5
sS'attack_min'
p1732
I20
sS'delay_shoot'
p1733
I15
sg191
I7
sS'unit_type'
p1734
Vsoldier
p1735
sS'max_life'
p1736
I60
sg56
I30
sS'attack_max'
p1737
I35
sS'shoot_dist'
p1738
I7
sg184
I130
sS'elite'
p1739
I0
sS'shield_factor'
p1740
F0.6
sg185
(dp1741
VBleimantel
p1742
(dp1743
S'delay'
p1744
I0
sS'category'
p1745
Vupgrade
p1746
sS'price'
p1747
I25
sS'actions'
p1748
(lp1749
(dp1750
S'target'
p1751
S'self'
p1752
sS'level'
p1753
S'id'
p1754
sS'type'
p1755
S'change'
p1756
sS'random'
p1757
I0
sS'num_units'
p1758
I0
sS'changes'
p1759
(dp1760
Vdelay_walk
p1761
I4
sVelite
p1762
I1
sVshield
p1763
I10
sg1748
(dp1764
VTitanmantel
p1765
(dp1766
g1744
I0
sg1745
Vupgrade
p1767
sg1747
I35
sg1748
(lp1768
(dp1769
g1751
g1752
sg1753
g1754
sg1755
g1756
sg1757
I0
sg1758
I0
sg1759
(dp1770
Vdelay_walk
p1771
I-4
sVelite
p1772
I1
sVshield
p1773
I15
sVmax_shield
p1774
I10
ssasS'num_uses'
p1775
I1
sssVmax_shield
p1776
I10
ssasg1775
I1
ssVLaser Zielvorrichtung
p1777
(dp1778
g1744
I0
sg1745
Vupgrade
p1779
sg1747
I50
sg1748
(lp1780
(dp1781
g1751
g1752
sg1753
g1754
sg1755
g1756
sg1757
I0
sg1758
I0
sg1759
(dp1782
Vshoot_dist
p1783
I1
sVattack_min
p1784
I5
sVelite
p1785
I1
sVdelay_shoot
p1786
I-2
ssasg1775
I1
ssVneue Munition
p1787
(dp1788
g1744
I0
sg1745
Vupgrade
p1789
sg1747
I25
sg1748
(lp1790
(dp1791
g1751
g1752
sg1753
g1754
sg1755
g1756
sg1757
I0
sg1758
I0
sg1759
(dp1792
Vattack_min
p1793
I5
sVelite
p1794
I1
sVattack_max
p1795
I8
sg1748
(dp1796
VShotgun
p1797
(dp1798
g1744
I0
sg1745
Vupgrade
p1799
sg1747
I50
sg1748
(lp1800
(dp1801
g1751
g1752
sg1753
g1754
sg1755
g1756
sg1757
I0
sg1758
I0
sg1759
(dp1802
Vnum_enemies
p1803
I3
sVattack_min
p1804
I-10
sg1748
(dp1805
VLasergun
p1806
(dp1807
g1744
I0
sg1745
Vupgrade
p1808
sg1747
I0
sg1748
(lp1809
sg1775
I0
sssVattack_max
p1810
I20
sVelite
p1811
I1
sVshield_factor
p1812
F0.1
ssasg1775
I1
ssVLasergun
p1813
(dp1814
g1744
I0
sg1745
Vupgrade
p1815
sg1747
I50
sg1748
(lp1816
(dp1817
g1751
g1752
sg1753
g1754
sg1755
g1756
sg1757
I0
sg1758
I0
sg1759
(dp1818
Vnum_enemies
p1819
I-2
sVattack_min
p1820
I17
sg1748
(dp1821
VShotgun
p1822
(dp1823
g1744
I0
sg1745
Vupgrade
p1824
sg1747
I0
sg1748
(lp1825
sg1775
I0
sssVattack_max
p1826
I8
sVelite
p1827
I1
sVshield_factor
p1828
F0.25
ssasg1775
I1
ssssasg1775
I1
ssVJet-Pack (beim naechsten Zug 11 ziehen)
p1829
(dp1830
g1744
I10
sg1745
Vupgrade
p1831
sg1747
I40
sg1748
(lp1832
sg1775
I-1
ssVGelenke oelen
p1833
(dp1834
S'delay'
p1835
I0
sS'category'
p1836
Vupgrade
p1837
sS'price'
p1838
I30
sS'actions'
p1839
(lp1840
(dp1841
g1751
g1752
sg1753
g1754
sg1755
g1756
sg1757
I0
sg1758
I0
sg1759
(dp1842
Vdelay_walk
p1843
I-2
sVwalk_dist
p1844
I1
sVelite
p1845
I1
sg1748
(dp1846
Vleichtere Ruestung
p1847
(dp1848
g1744
I0
sg1745
Vupgrade
p1849
sg1747
I40
sg1748
(lp1850
(dp1851
g1751
g1752
sg1753
g1754
sg1755
g1756
sg1757
I0
sg1758
I0
sg1759
(dp1852
Vdelay_walk
p1853
I-3
sVwalk_dist
p1854
I1
sVelite
p1855
I1
ssasg1775
I1
ssssasS'num_uses'
p1856
I1
sssS'shield'
p1857
I30
sssI8
(dp1858
S'elite_parameters'
p1859
(dp1860
S'ticks'
p1861
(dp1862
I0
(lp1863
sI250
(lp1864
(dp1865
S'target'
p1866
S'self'
p1867
sS'level'
p1868
S'id'
p1869
sS'type'
p1870
S'change'
p1871
sS'random'
p1872
I0
sS'num_units'
p1873
I0
sS'changes'
p1874
(dp1875
Velite
p1876
I1
sVlife
p1877
I20
sVmax_shield
p1878
I5
sVshield
p1879
I10
ssasI500
(lp1880
(dp1881
g1866
g1867
sg1868
g1869
sg1870
g1871
sg1872
I0
sg1873
I0
sg1874
(dp1882
Velite
p1883
I1
sVlife
p1884
I100
sVmax_life
p1885
I10
sVmax_shield
p1886
I5
sVshield
p1887
I20
ssassS'damage'
p1888
(dp1889
I0
(lp1890
sI500
(lp1891
sssS'basic_parameters'
p1892
(dp1893
S'delay_walk'
p1894
I15
sS'life'
p1895
I70
sS'walk_dist'
p1896
I5
sS'name'
p1897
VKommandant
p1898
sS'num_enemies'
p1899
I4
sS'attack_min'
p1900
I20
sS'delay_shoot'
p1901
I15
sg99
I8
sS'unit_type'
p1902
Vsoldier
p1903
sS'max_life'
p1904
I70
sg56
I10
sS'attack_max'
p1905
I30
sS'shoot_dist'
p1906
I6
sg1017
I250
sS'elite'
p1907
I4
sS'shield_factor'
p1908
F0.6
sg1018
(dp1909
VLuftunterstuetzung
p1910
(dp1911
g1014
I40
sg1015
Vstandard
p1912
sg1017
I150
sg1018
(lp1913
(dp1914
g96
Venemy
p1915
sg98
Vid
p1916
sg100
Vchange
p1917
sg102
F0.6
sg103
I7
sg104
(dp1918
Vlife
p1919
I-17
sVshield
p1920
I-12
ssasg1025
I-1
ssVDrill Sergent
p1921
(dp1922
S'delay'
p1923
I0
sS'category'
p1924
Vstandard
p1925
sS'price'
p1926
I100
sS'actions'
p1927
(lp1928
(dp1929
S'target'
p1930
Vown
p1931
sS'level'
p1932
Vid
p1933
sS'type'
p1934
Vchange
p1935
sS'random'
p1936
F0.0
sS'num_units'
p1937
I0
sS'changes'
p1938
(dp1939
Vattack_min
p1940
I10
sVattack_max
p1941
I8
sVdelay_shoot
p1942
I-3
ssasS'num_uses'
p1943
I-1
ssVFallschirmspringer
p1944
(dp1945
g881
I20
sg882
Vstandard
p1946
sg884
I450
sg867
(lp1947
(dp1948
g72
Vnew
p1949
sg68
Vown
p1950
sg83
(lp1951
I0
aI0
aI2
asg70
Vgroups
p1952
sasg886
I-1
ssVBeam-Port bauen
p1953
(dp1954
g589
I0
sg590
Vequipment
p1955
sg592
I175
sg593
(lp1956
(dp1957
g542
Vnew
p1958
sg538
Vown
p1959
sS'parameters'
p1960
I5
sg540
Vbuildings
p1961
sasg599
I-1
ssVSpionageausbildung
p1962
(dp1963
S'delay'
p1964
I0
sS'category'
p1965
Vupgrade
p1966
sS'price'
p1967
I170
sS'actions'
p1968
(lp1969
(dp1970
S'target'
p1971
S'self'
p1972
sS'level'
p1973
S'id'
p1974
sS'type'
p1975
S'change'
p1976
sS'random'
p1977
I0
sS'num_units'
p1978
I0
sS'changes'
p1979
(dp1980
Velite
p1981
I1
sg1968
(dp1982
VWirtschafts-Spionage
p1983
(dp1984
g1964
I40
sg1965
Vupgrade
p1985
sg1967
I80
sg1968
(lp1986
(dp1987
g1971
g1972
sg1973
g1974
sg1975
g1976
sg1977
I0
sg1978
I0
sg1979
(dp1988
g1968
(dp1989
VDieb
p1990
(dp1991
g1964
I60
sg1965
Vequipment
p1992
sg1967
I200
sg1968
(lp1993
(dp1994
g1975
Vchange
p1995
sg1977
F0.5
sg1979
(dp1996
Vaccount
p1997
I-150
ssg1971
Venemy
p1998
sg1973
Vplayer
p1999
sa(dp2000
g1975
Vchange
p2001
sg1977
F0.7
sg1979
(dp2002
Vaccount
p2003
I80
ssg1971
Vown
p2004
sg1973
Vplayer
p2005
sasS'num_uses'
p2006
I-1
ssssasg2006
I-1
ssVID-Spionage
p2007
(dp2008
g1964
I40
sg1965
Vequipment
p2009
sg1967
I70
sg1968
(lp2010
sg2006
I-1
ssssasg2006
I1
sssS'shield'
p2011
I10
sssI9
(dp2012
S'elite_parameters'
p2013
(dp2014
S'ticks'
p2015
(dp2016
I0
(lp2017
ssS'damage'
p2018
(dp2019
I0
(lp2020
sssS'basic_parameters'
p2021
(dp2022
S'delay_walk'
p2023
I0
sS'life'
p2024
I100
sS'walk_dist'
p2025
I0
sS'name'
p2026
VFlak
p2027
sS'num_enemies'
p2028
I3
sS'attack_min'
p2029
I60
sS'delay_shoot'
p2030
I15
sS'id'
p2031
I9
sS'unit_type'
p2032
Vvehicle
p2033
sS'max_life'
p2034
I100
sg56
I0
sS'attack_max'
p2035
I80
sS'shoot_dist'
p2036
I5
sS'price'
p2037
I200
sS'elite'
p2038
I0
sS'shield_factor'
p2039
F0.6
sS'actions'
p2040
(dp2041
Vnix
p2042
(dp2043
S'delay'
p2044
I0
sS'category'
p2045
S'upgrade'
p2046
sg2037
I0
sg2040
(lp2047
sS'num_uses'
p2048
I-1
sssS'shield'
p2049
I0
sssI10
(dp2050
S'elite_parameters'
p2051
(dp2052
S'ticks'
p2053
(dp2054
I0
(lp2055
(dp2056
g930
g931
sg932
g933
sg934
g935
sg936
I0
sg937
I0
sg938
(dp2057
sasI400
(lp2058
(dp2059
g930
g931
sg932
g933
sg934
g935
sg936
I0
sg937
I0
sg938
(dp2060
Vdelay_walk
p2061
I-2
sVelite
p2062
I1
ssassS'damage'
p2063
(dp2064
I0
(lp2065
sssS'basic_parameters'
p2066
(dp2067
S'delay_walk'
p2068
I11
sS'life'
p2069
I40
sS'walk_dist'
p2070
I6
sS'name'
p2071
VMotorrad
p2072
sS'num_enemies'
p2073
I4
sS'attack_min'
p2074
I5
sS'delay_shoot'
p2075
I15
sS'id'
p2076
I10
sS'unit_type'
p2077
Vvehicle
p2078
sS'max_life'
p2079
I40
sg56
I0
sS'attack_max'
p2080
I10
sS'shoot_dist'
p2081
I5
sg1926
I40
sS'elite'
p2082
I0
sS'shield_factor'
p2083
F0.45
sg1927
(dp2084
VSchutzweste
p2085
(dp2086
g1923
I0
sg1924
Vupgrade
p2087
sg1926
I30
sg1927
(lp2088
(dp2089
g1930
S'self'
p2090
sg1932
g2076
sg1934
S'change'
p2091
sg1936
I0
sg1937
I0
sg1938
(dp2092
Vmax_shield
p2093
I8
sVshield
p2094
I8
ssasg1943
I1
ssVneue Reifen
p2095
(dp2096
g1923
I0
sg1924
Vupgrade
p2097
sg1926
I20
sg1927
(lp2098
(dp2099
g1930
g2090
sg1932
g2076
sg1934
g2091
sg1936
I0
sg1937
I0
sg1938
(dp2100
Vwalk_dist
p2101
I1
sVelite
p2102
I1
sg1927
(dp2103
Vleichteres Motorrad
p2104
(dp2105
g1923
I0
sg1924
Vupgrade
p2106
sg1926
I30
sg1927
(lp2107
(dp2108
g1930
g2090
sg1932
g2076
sg1934
g2091
sg1936
I0
sg1937
I0
sg1938
(dp2109
Vdelay_walk
p2110
I-1
sVwalk_dist
p2111
I1
sVelite
p2112
I1
ssasg1943
I1
ssssasg1943
I1
ssVDrive by lernen
p2113
(dp2114
g1923
I0
sg1924
Vupgrade
p2115
sg1926
I30
sg1927
(lp2116
(dp2117
g1930
g2090
sg1932
g2076
sg1934
g2091
sg1936
I0
sg1937
I0
sg1938
(dp2118
Vattack_min
p2119
I7
sVelite
p2120
I1
sVattack_max
p2121
I5
ssasg1943
I1
sssS'shield'
p2122
I0
sssI11
(dp2123
S'elite_parameters'
p2124
(dp2125
S'ticks'
p2126
(dp2127
I0
(lp2128
ssS'damage'
p2129
(dp2130
I0
(lp2131
sssS'basic_parameters'
p2132
(dp2133
S'delay_walk'
p2134
I18
sS'life'
p2135
I80
sS'walk_dist'
p2136
I5
sS'name'
p2137
VJavelin
p2138
sS'num_enemies'
p2139
I2
sS'attack_min'
p2140
I10
sS'delay_shoot'
p2141
I20
sg1200
I11
sS'unit_type'
p2142
Vsoldier
p2143
sS'max_life'
p2144
I80
sg56
I50
sS'attack_max'
p2145
I16
sS'shoot_dist'
p2146
I9
sg1193
I200
sS'elite'
p2147
I0
sS'shield_factor'
p2148
F2.5
sg1194
(dp2149
Vschneller ziehen
p2150
(dp2151
g272
I0
sg273
Vupgrade
p2152
sg275
I30
sg276
(lp2153
(dp2154
g279
g280
sg281
g282
sg283
g284
sg285
I0
sg286
I0
sg287
(dp2155
Vdelay_walk
p2156
I-3
sVelite
p2157
I1
ssasg298
I1
ssVschneller laden
p2158
(dp2159
S'delay'
p2160
I0
sS'category'
p2161
Vupgrade
p2162
sS'price'
p2163
I40
sS'actions'
p2164
(lp2165
(dp2166
S'target'
p2167
S'self'
p2168
sS'level'
p2169
S'id'
p2170
sS'type'
p2171
S'change'
p2172
sS'random'
p2173
I0
sS'num_units'
p2174
I0
sS'changes'
p2175
(dp2176
Velite
p2177
I1
sVdelay_shoot
p2178
I-4
ssasS'num_uses'
p2179
I1
ssVgroessere Sprengkraft
p2180
(dp2181
g2160
I0
sg2161
Vupgrade
p2182
sg2163
I30
sg2164
(lp2183
(dp2184
g2167
g2168
sg2169
g2170
sg2171
g2172
sg2173
I0
sg2174
I0
sg2175
(dp2185
Vnum_enemies
p2186
I2
sVattack_min
p2187
I2
sVelite
p2188
I1
sVattack_max
p2189
I3
sg2164
(dp2190
Vneue Sprengtechnologie
p2191
(dp2192
g2160
I0
sg2161
Vupgrade
p2193
sg2163
I40
sg2164
(lp2194
(dp2195
g2167
g2168
sg2169
g2170
sg2171
g2172
sg2173
I0
sg2174
I0
sg2175
(dp2196
Vshield_factor
p2197
F0.4
sVelite
p2198
I1
ssasg2179
I1
ssssasg2179
I1
sssS'shield'
p2199
I50
sssI12
(dp2200
S'elite_parameters'
p2201
(dp2202
S'ticks'
p2203
(dp2204
I0
(lp2205
ssS'damage'
p2206
(dp2207
I0
(lp2208
sssS'basic_parameters'
p2209
(dp2210
S'delay_walk'
p2211
I0
sS'life'
p2212
I80
sS'walk_dist'
p2213
I0
sS'name'
p2214
VMG-Nest mit Panzerabwehr
p2215
sS'shield_factor'
p2216
F2.5
sS'num_enemies'
p2217
I4
sS'attack_min'
p2218
I15
sS'delay_shoot'
p2219
I15
sS'unit_type'
p2220
Vsoldier
p2221
sS'max_life'
p2222
I80
sS'max_shield'
p2223
I35
sS'attack_max'
p2224
I25
sS'shoot_dist'
p2225
I7
sS'price'
p2226
I210
sS'elite'
p2227
I0
sS'id'
p2228
I12
sS'actions'
p2229
(dp2230
V
p2231
(dp2232
S'delay'
p2233
I0
sS'category'
p2234
S'upgrade'
p2235
sS'price'
p2236
I0
sS'actions'
p2237
(lp2238
sS'num_uses'
p2239
I-1
sssS'shield'
p2240
I35
ssssS'engine_parameters'
p2241
(dp2242
S'constant_per_tick'
p2243
F4.0
sS'all_sectors'
p2244
(dp2245
I1
(dp2246
S'victory'
p2247
I0
sS'weight'
p2248
F1.0
ssI2
(dp2249
g2247
I0
sg2248
F1.0
ssI3
(dp2250
g2247
I0
sg2248
F1.0
ssI4
(dp2251
g2247
I0
sg2248
F1.0
ssI5
(dp2252
g2247
I2
sg2248
F1.0
ssI6
(dp2253
g2247
I0
sg2248
F1.0
ssI7
(dp2254
g2247
I0
sg2248
F1.0
ssI8
(dp2255
g2247
I0
sg2248
F1.0
ssI9
(dp2256
g2247
I1
sg2248
F1.0
ssI10
(dp2257
g2247
I1
sg2248
F1.0
ssI11
(dp2258
g2247
I0
sg2248
F1.0
ssI12
(dp2259
g2247
I0
sg2248
F1.0
ssI13
(dp2260
g2247
I0
sg2248
F1.0
ssI14
(dp2261
g2247
I0
sg2248
F1.0
ssI15
(dp2262
g2247
I0
sg2248
F1.0
ssI16
(dp2263
g2247
I2
sg2248
F1.0
ssI17
(dp2264
g2247
I0
sg2248
F1.0
ssI18
(dp2265
g2247
I0
sg2248
F1.0
sssS'delay_damage'
p2266
F0.5
sS'start_account'
p2267
F200.0
sS'extra_shoot_dist'
p2268
F2.0
sS'per_sector_per_tick'
p2269
F1.0
sS'take_over_factor'
p2270
F1.3
sS'tick_duration'
p2271
F11.0
sS'protection_effect'
p2272
F0.4
sS'protection_in'
p2273
F18.0
sS'sector_takeover'
p2274
F100.0
sS'protection_out'
p2275
F10.0
sS'max_victory_diff'
p2276
F350.0
ssS'transport_parameters'
p2277
(dp2278
I0
(dp2279
g154
(dp2280
g156
(dp2281
I0
(lp2282
ssg159
(dp2283
I0
(lp2284
sssg162
(dp2285
S'delay_walk'
p2286
I15
sg164
I100
sS'walk_dist'
p2287
I10
sg167
I10
sg168
VTransporter
p2288
sS'transports'
p2289
Vsoldier
p2290
sg306
F0.4
sg172
I0
sg173
I25
sg174
I20
sg175
I10
sg176
I200
sg299
I100
sg56
I25
sg300
I8
sg177
(dp2291
VPanzerung
p2292
(dp2293
S'delay'
p2294
I0
sS'category'
p2295
Vupgrade
p2296
sS'price'
p2297
I50
sS'actions'
p2298
(lp2299
(dp2300
g704
g705
sg706
g707
sg708
g709
sg710
I0
sg711
I0
sg712
(dp2301
Vdelay_walk
p2302
I3
sVelite
p2303
I1
sVshield
p2304
I40
sg2298
(dp2305
VCasspir
p2306
(dp2307
g2294
I0
sg2295
Vupgrade
p2308
sg2297
I70
sg2298
(lp2309
(dp2310
g704
g705
sg706
g707
sg708
g709
sg710
I0
sg711
I0
sg712
(dp2311
Vdelay_walk
p2312
I-5
sVelite
p2313
I1
sVshield
p2314
I50
sVmax_shield
p2315
I40
ssasS'num_uses'
p2316
I1
sssVmax_shield
p2317
I30
ssasg2316
I1
ssVMG
p2318
(dp2319
g2294
I0
sg2295
Vupgrade
p2320
sg2297
I40
sg2298
(lp2321
(dp2322
g704
Vself
p2323
sg706
Vid
p2324
sg708
Vchange
p2325
sg710
F0.0
sg711
I0
sg712
(dp2326
Vattack_min
p2327
I20
sVelite
p2328
I1
sVattack_max
p2329
I40
sg2298
(dp2330
VKampfmaschine
p2331
(dp2332
g2294
I0
sg2295
Vupgrade
p2333
sg2297
I80
sg2298
(lp2334
(dp2335
g704
g705
sg706
g707
sg708
g709
sg710
I0
sg711
I0
sg712
(dp2336
Vshield_factor
p2337
F0.2
sVattack_min
p2338
I30
sVelite
p2339
I1
sVattack_max
p2340
I30
ssasg2316
I1
ssssasg2316
I1
ssVSpeed up (laden & ziehen)
p2341
(dp2342
g624
I0
sg625
Vupgrade
p2343
sg627
I30
sg628
(lp2344
(dp2345
g203
g631
sg207
g632
sg201
g633
sg634
I0
sg635
I0
sg636
(dp2346
Vdelay_walk
p2347
I-2
sVelite
p2348
I1
sVdelay_shoot
p2349
I-2
sg628
(dp2350
VSpeed up (nur ziehen)
p2351
(dp2352
g624
I0
sg625
Vupgrade
p2353
sg627
I40
sg628
(lp2354
(dp2355
g203
g631
sg207
g632
sg201
g633
sg634
I0
sg635
I0
sg636
(dp2356
Vdelay_walk
p2357
I-2
sVwalk_dist
p2358
I1
sVelite
p2359
I1
ssasg654
I1
ssssasg654
I1
ssVmehr Platz I
p2360
(dp2361
g2294
I0
sg2295
Vupgrade
p2362
sg2297
I30
sg2298
(lp2363
(dp2364
g704
g705
sg706
g707
sg708
g709
sg710
I0
sg711
I0
sg712
(dp2365
Velite
p2366
I1
sVcapacity
p2367
I5
sg2298
(dp2368
Vmehr Platz II
p2369
(dp2370
g2294
I0
sg2295
Vupgrade
p2371
sg2297
I40
sg2298
(lp2372
(dp2373
g704
g705
sg706
g707
sg708
g709
sg710
I0
sg711
I0
sg712
(dp2374
Velite
p2375
I1
sVcapacity
p2376
I8
ssasg2316
I1
ssssasg2316
I1
sssg304
I5
sg305
I0
sg303
I0
sg307
I4
sg308
I0
sssI1
(dp2377
g310
(dp2378
g312
(dp2379
I0
(lp2380
ssg315
(dp2381
I0
(lp2382
sssg318
(dp2383
S'delay_walk'
p2384
I15
sg320
I100
sS'walk_dist'
p2385
I10
sg323
I10
sg324
VHelikopter
p2386
sS'transports'
p2387
Vsoldier
p2388
sg403
F0.4
sg328
I0
sg329
I50
sg330
I20
sg331
I10
sg332
I200
sg333
I100
sg56
I50
sg405
I8
sg334
(dp2389
VBombe abwerfen
p2390
(dp2391
g338
I15
sg339
Vstandard
p2392
sg332
I80
sg334
(lp2393
(dp2394
g343
Venemy
p2395
sg345
Vid
p2396
sg347
Vchange
p2397
sg349
F0.3
sg350
I7
sg351
(dp2398
Vlife
p2399
I-6
sg334
(dp2400
ssasg354
I-1
ssVschneller fliegen
p2401
(dp2402
S'delay'
p2403
I0
sS'category'
p2404
Vupgrade
p2405
sS'price'
p2406
I30
sS'actions'
p2407
(lp2408
(dp2409
S'target'
p2410
S'self'
p2411
sS'level'
p2412
S'id'
p2413
sS'type'
p2414
S'change'
p2415
sS'random'
p2416
I0
sS'num_units'
p2417
I0
sS'changes'
p2418
(dp2419
Vdelay_walk
p2420
I-3
sg2407
(dp2421
Vsuper Speed
p2422
(dp2423
g2403
I0
sg2404
Vupgrade
p2424
sg2406
I50
sg2407
(lp2425
(dp2426
g2410
g2411
sg2412
g2413
sg2414
g2415
sg2416
I0
sg2417
I0
sg2418
(dp2427
Vdelay_walk
p2428
I-2
sVwalk_dist
p2429
I1
ssasS'num_uses'
p2430
I1
ssssasg2430
I1
sssg401
I6
sg402
I0
sg400
I1
sg404
I4
sg397
I0
sssI2
(dp2431
S'elite_parameters'
p2432
(dp2433
S'ticks'
p2434
(dp2435
I0
(lp2436
ssS'damage'
p2437
(dp2438
I0
(lp2439
sssS'basic_parameters'
p2440
(dp2441
S'delay_walk'
p2442
I18
sS'life'
p2443
I150
sS'walk_dist'
p2444
I9
sS'capacity'
p2445
I3
sS'name'
p2446
VFahrzeug Transporter
p2447
sS'elite'
p2448
I0
sS'shield_factor'
p2449
F0.4
sS'attack_min'
p2450
I0
sS'delay_shoot'
p2451
I15
sg429
I2
sg422
I300
sS'max_life'
p2452
I150
sg56
I20
sS'delay_out'
p2453
I15
sS'attack_max'
p2454
I0
sS'shoot_dist'
p2455
I5
sS'num_enemies'
p2456
I4
sS'transports'
p2457
Vvehicle
p2458
sS'delay_in'
p2459
I25
sg423
(dp2460
Vmehr Platz
p2461
(dp2462
g419
I0
sg420
Vupgrade
p2463
sg422
I50
sg423
(lp2464
(dp2465
g426
g427
sg428
g429
sg430
g431
sg432
I0
sg433
I0
sg434
(dp2466
Vcapacity
p2467
I2
ssasg439
I1
sssS'shield'
p2468
I20
ssssS'card_parameters'
p2469
(dp2470
I200
(lp2471
(dp2472
S'num_cards'
p2473
I10
sS'description'
p2474
VEine Gruppe kann in einen Helikopter verladen werden und deshalb 10 pro Runde ziehen.
p2475
sg2298
(lp2476
(dp2477
S'target'
p2478
S'self'
p2479
sS'level'
p2480
S'id'
p2481
sS'type'
p2482
S'change'
p2483
sS'random'
p2484
F0.0
sS'num_units'
p2485
I0
sS'changes'
p2486
(dp2487
sasS'title'
p2488
VHelitransport
p2489
sa(dp2490
S'title'
p2491
VGiftgas
p2492
sS'num_cards'
p2493
I7
sg1290
(lp2494
(dp2495
S'target'
p2496
S'enemy'
p2497
sS'level'
p2498
S'id'
p2499
sS'type'
p2500
S'change'
p2501
sS'random'
p2502
F0.3
sS'num_units'
p2503
S'all'
p2504
sS'changes'
p2505
(dp2506
Vlife
p2507
I-8
ssa(dp2508
g2496
Vown
p2509
sg2498
Vid
p2510
sg2500
Vchange
p2511
sg2502
F0.3
sg2503
Vall
p2512
sg2505
(dp2513
Vlife
p2514
I-2
ssasS'description'
p2515
VAlle Einheiten werden verwundet. Gegnerische staerker als eigene
p2516
sa(dp2517
S'description'
p2518
VDescription
p2519
sS'num_cards'
p2520
I12
sS'actions'
p2521
(lp2522
(dp2523
g2496
Vown
p2524
sg2498
Vid
p2525
sg2500
Vchange
p2526
sg2502
F0.2
sg2503
I6
sg2505
(dp2527
Vlife
p2528
I20
ssasS'title'
p2529
VFeldapotheke
p2530
sa(dp2531
S'num_cards'
p2532
I1
sS'description'
p2533
VDescription
p2534
sS'actions'
p2535
(lp2536
(dp2537
g2482
S'new'
p2538
sg2478
S'own'
p2539
sS'parameters'
p2540
I0
sg2480
S'buildings'
p2541
sa(dp2542
g2478
S'self'
p2543
sg2480
S'id'
p2544
sg2482
S'change'
p2545
sg2484
F0.0
sg2485
I0
sg2486
(dp2546
Vlife
p2547
I0
ssasS'title'
p2548
VUnnamed Card
p2549
sa(dp2550
S'description'
p2551
Veine eigene Gruppe kann geheilt werden
p2552
sS'num_cards'
p2553
I4
sS'actions'
p2554
(lp2555
(dp2556
S'target'
p2557
S'self'
p2558
sS'level'
p2559
S'id'
p2560
sS'type'
p2561
S'change'
p2562
sS'random'
p2563
I0
sS'num_units'
p2564
S''
p2565
sS'changes'
p2566
(dp2567
Vlife
p2568
I0
ssasS'title'
p2569
Vmittleres Heilen
p2570
sass.