(dp0
S'building_parameters'
p1
(dp2
I0
(dp3
S'elite_parameters'
p4
(dp5
S'ticks'
p6
(dp7
I0
(lp8
sI150
(lp9
(dp10
S'target'
p11
S'self'
p12
sS'level'
p13
S'id'
p14
sS'type'
p15
S'change'
p16
sS'random'
p17
I0
sS'num_units'
p18
I0
sS'changes'
p19
(dp20
S'actions'
p21
(dp22
VWerkstatt bauen
p23
(dp24
S'delay'
p25
I0
sS'category'
p26
Vshop
p27
sS'price'
p28
I350
sg21
(lp29
(dp30
g15
Vnew
p31
sg11
Vown
p32
sS'parameters'
p33
I3
sg13
Vbuildings
p34
sasS'num_uses'
p35
I-1
ssssassS'damage'
p36
(dp37
I0
(lp38
sssS'basic_parameters'
p39
(dp40
S'life'
p41
I800
sS'shop_transporter'
p42
(lp43
sS'capacity'
p44
I25
sS'name'
p45
VHauptquartier
p46
sS'shop_units'
p47
(lp48
I1
aI10
asS'attack_min'
p49
I0
sS'shield'
p50
I100
sS'delay_shoot'
p51
I15
sS'id'
p52
I0
sS'price'
p53
I1000
sS'delay_in'
p54
I20
sS'max_life'
p55
I800
sS'max_shield'
p56
I100
sS'actions'
p57
(dp58
VEinheiten Level II freischalten
p59
(dp60
S'delay'
p61
I0
sS'category'
p62
Vupgrade
p63
sS'price'
p64
I250
sS'actions'
p65
(lp66
(dp67
S'target'
p68
S'self'
p69
sS'level'
p70
S'id'
p71
sS'type'
p72
S'change'
p73
sS'random'
p74
I0
sS'num_units'
p75
I0
sS'changes'
p76
(dp77
Vshop_units
p78
(lp79
I6
aI8
asVshop_transporter
p80
(lp81
I1
asVelite
p82
I1
ssasS'num_uses'
p83
I1
sssS'attack_max'
p84
I0
sS'enter'
p85
Vsoldier
p86
sS'shoot_dist'
p87
I6
sS'elite'
p88
I3
sS'shield_factor'
p89
F0.4
sS'num_enemies'
p90
I4
sS'delay_out'
p91
I10
sssI1
(dp92
S'elite_parameters'
p93
(dp94
S'ticks'
p95
(dp96
I500
(lp97
ssS'damage'
p98
(dp99
I0
(lp100
sssS'basic_parameters'
p101
(dp102
S'life'
p103
I600
sS'shop_transporter'
p104
(lp105
sS'capacity'
p106
I15
sS'name'
p107
VKaserne
p108
sS'shield_factor'
p109
F0.4
sS'shop_units'
p110
(lp111
I0
asS'attack_min'
p112
I0
sS'delay_shoot'
p113
I15
sS'id'
p114
I1
sS'price'
p115
I600
sS'actions'
p116
(dp117
VVerteidigung
p118
(dp119
S'delay'
p120
I20
sS'category'
p121
Vupgrade
p122
sS'price'
p123
I100
sS'actions'
p124
(lp125
(dp126
S'target'
p127
S'self'
p128
sS'level'
p129
S'id'
p130
sS'type'
p131
S'change'
p132
sS'random'
p133
I0
sS'num_units'
p134
I0
sS'changes'
p135
(dp136
Vattack_min
p137
I20
sVelite
p138
I1
sVattack_max
p139
I40
ssasS'num_uses'
p140
I1
ssVEinheiten Level II freischalten
p141
(dp142
g61
I0
sg62
Vupgrade
p143
sg64
I300
sg65
(lp144
(dp145
g68
g69
sg70
g71
sg72
g73
sg74
I0
sg75
I0
sg76
(dp146
Vshop_units
p147
(lp148
I2
aI3
asVelite
p149
I1
sg65
(dp150
VEinheiten Level III freischalten
p151
(dp152
g61
I0
sg62
Vupgrade
p153
sg64
I300
sg65
(lp154
(dp155
g68
g69
sg70
g71
sg72
g73
sg74
I0
sg75
I0
sg76
(dp156
Vshop_units
p157
(lp158
I7
aI14
asVelite
p159
I2
ssasg83
I1
ssssasg83
I1
ssVJavelin +
p160
(dp161
S'delay'
p162
I0
sS'category'
p163
Vupgrade
p164
sS'price'
p165
I300
sS'actions'
p166
(lp167
(dp168
S'target'
p169
S'self'
p170
sS'level'
p171
S'id'
p172
sS'type'
p173
S'change'
p174
sS'random'
p175
I0
sS'num_units'
p176
I0
sS'changes'
p177
(dp178
Vshop_units
p179
(lp180
I11
asVelite
p181
I1
ssa(dp182
g173
Vnew
p183
sg169
Vown
p184
sS'parameters'
p185
(lp186
I11
asg171
Vgroups
p187
sasS'num_uses'
p188
I1
sssS'max_life'
p189
I600
sg56
I80
sS'delay_out'
p190
I10
sS'attack_max'
p191
I0
sS'enter'
p192
Vsoldier
p193
sS'shoot_dist'
p194
I6
sS'elite'
p195
I0
sS'delay_in'
p196
I20
sS'num_enemies'
p197
I4
sS'shield'
p198
I80
sssI2
(dp199
S'elite_parameters'
p200
(dp201
S'ticks'
p202
(dp203
I0
(lp204
ssS'damage'
p205
(dp206
I0
(lp207
sssS'basic_parameters'
p208
(dp209
S'life'
p210
I500
sS'shop_transporter'
p211
(lp212
sS'capacity'
p213
I10
sS'name'
p214
VLazarett
p215
sS'shield_factor'
p216
F0.4
sS'elite'
p217
I0
sS'shop_units'
p218
(lp219
sS'attack_min'
p220
I0
sS'delay_shoot'
p221
I15
sS'id'
p222
I2
sS'price'
p223
I500
sS'max_life'
p224
I500
sg56
I75
sS'actions'
p225
(dp226
V10x heilen
p227
(dp228
S'delay'
p229
I50
sS'category'
p230
Vstandard
p231
sg223
I400
sg225
(lp232
(dp233
S'target'
p234
Vown
p235
sS'level'
p236
Vid
p237
sS'type'
p238
Vchange
p239
sS'random'
p240
F0.0
sS'num_units'
p241
I0
sS'changes'
p242
(dp243
Vlife
p244
I50
ssasS'num_uses'
p245
I-1
ssV1x heilen
p246
(dp247
g229
I40
sg230
Vstandard
p248
sg223
I70
sg225
(lp249
(dp250
g234
Vown
p251
sg236
Vid
p252
sg238
Vchange
p253
sg240
F0.0
sg241
I1
sg242
(dp254
Vlife
p255
I50
ssasg245
I-1
ssVArztneistudium
p256
(dp257
S'delay'
p258
I0
sS'category'
p259
Vupgrade
p260
sS'price'
p261
I200
sS'actions'
p262
(lp263
(dp264
S'target'
p265
S'self'
p266
sS'level'
p267
S'id'
p268
sS'type'
p269
S'change'
p270
sS'random'
p271
I0
sS'num_units'
p272
I0
sS'changes'
p273
(dp274
Vshop_units
p275
(lp276
I6
assasS'num_uses'
p277
I1
ssV5x heilen
p278
(dp279
g229
I50
sg230
Vstandard
p280
sg223
I200
sg225
(lp281
(dp282
g234
Vown
p283
sg236
Vid
p284
sg238
Vchange
p285
sg240
F0.0
sg241
I5
sg242
(dp286
Vlife
p287
I50
ssasg245
I-1
sssS'attack_max'
p288
I0
sS'enter'
p289
Vsoldier
p290
sS'shoot_dist'
p291
I6
sS'delay_out'
p292
I10
sS'delay_in'
p293
I20
sS'num_enemies'
p294
I4
sS'shield'
p295
I75
sssI3
(dp296
g200
(dp297
g202
(dp298
I0
(lp299
ssg205
(dp300
I0
(lp301
sssg208
(dp302
g210
I500
sg211
(lp303
I0
asg213
I10
sg214
VWerkstatt
p304
sg216
F0.4
sg217
I0
sg218
(lp305
I4
aI7
asg220
I0
sg221
I15
sg222
I3
sg223
I350
sg224
I500
sg56
I80
sg225
(dp306
VFahrzeug Transporter
p307
(dp308
S'delay'
p309
I0
sS'category'
p310
Vupgrade
p311
sS'price'
p312
I150
sS'actions'
p313
(lp314
(dp315
S'target'
p316
S'self'
p317
sS'level'
p318
S'id'
p319
sS'type'
p320
S'change'
p321
sS'random'
p322
I0
sS'num_units'
p323
I0
sS'changes'
p324
(dp325
Vshop_transporter
p326
(lp327
I2
asVelite
p328
I1
ssasS'num_uses'
p329
I1
ssVArtillerie
p330
(dp331
S'delay'
p332
I0
sS'category'
p333
Vupgrade
p334
sS'price'
p335
I150
sS'actions'
p336
(lp337
(dp338
S'target'
p339
S'self'
p340
sS'level'
p341
S'id'
p342
sS'type'
p343
S'change'
p344
sS'random'
p345
I0
sS'num_units'
p346
I0
sS'changes'
p347
(dp348
Vshop_units
p349
(lp350
I5
asVelite
p351
I1
ssasS'num_uses'
p352
I1
ssVVerteidigung
p353
(dp354
S'delay'
p355
I0
sS'category'
p356
Vupgrade
p357
sS'price'
p358
I50
sS'actions'
p359
(lp360
(dp361
g265
g266
sg267
g268
sg269
g270
sg271
I0
sg272
I0
sg273
(dp362
Vattack_min
p363
I7
sVattack_max
p364
I20
ssasS'num_uses'
p365
I1
sssg288
I0
sg289
Vvehicle
p366
sg291
I6
sg292
I10
sg293
I20
sg294
I4
sg295
I80
sssI4
(dp367
g200
(dp368
g202
(dp369
I0
(lp370
ssg205
(dp371
I0
(lp372
sssg208
(dp373
g210
I600
sg211
(lp374
sg213
I15
sg214
VFlughafen
p375
sg216
F0.4
sg217
I0
sg218
(lp376
sg220
I0
sg221
I15
sg222
I4
sg223
I400
sg224
I600
sg56
I50
sg225
(dp377
VFlak & Verteidigung
p378
(dp379
g309
I0
sg310
Vupgrade
p380
sg312
I100
sg313
(lp381
(dp382
g316
g317
sg318
g319
sg320
g321
sg322
I0
sg323
I0
sg324
(dp383
Vshop_units
p384
(lp385
I9
asVattack_min
p386
I30
sVelite
p387
I1
sVattack_max
p388
I50
ssasg329
I1
ssVHelikopter Landeplattform
p389
(dp390
g229
I0
sg230
Vupgrade
p391
sg223
I400
sg225
(lp392
(dp393
g234
S'self'
p394
sg236
g222
sg238
S'change'
p395
sg240
I0
sg241
I0
sg242
(dp396
Vshop_transporter
p397
(lp398
I1
asVelite
p399
I1
sS'actions'
p400
(dp401
VFallschirmspringer
p402
(dp403
S'delay'
p404
I0
sS'category'
p405
S'upgrade'
p406
sS'price'
p407
I0
sS'actions'
p408
(lp409
sS'num_uses'
p410
I-1
ssssasg245
I1
sssg288
I0
sg289
Vvehicle
p411
sg291
I6
sg292
I10
sg293
I20
sg294
I4
sg295
I50
sssI5
(dp412
S'elite_parameters'
p413
(dp414
S'ticks'
p415
(dp416
I70
(lp417
(dp418
S'target'
p419
S'self'
p420
sS'level'
p421
S'id'
p422
sS'type'
p423
S'change'
p424
sS'random'
p425
I0
sS'num_units'
p426
I0
sS'changes'
p427
(dp428
Vcapacity
p429
I1
sVlife
p430
I20
sVelite
p431
I1
ssassS'damage'
p432
(dp433
I0
(lp434
sssS'basic_parameters'
p435
(dp436
S'life'
p437
I100
sS'shop_transporter'
p438
(lp439
sS'capacity'
p440
I5
sS'name'
p441
VBeam-Port
p442
sS'shop_units'
p443
(lp444
sS'attack_min'
p445
I0
sS'shield'
p446
I30
sS'delay_shoot'
p447
I0
sS'id'
p448
I5
sS'price'
p449
I175
sS'delay_in'
p450
I15
sS'max_life'
p451
I100
sg56
I30
sS'delay_out'
p452
I10
sS'enter'
p453
Vsoldier
p454
sS'shoot_dist'
p455
I0
sS'num_enemies'
p456
I0
sS'elite'
p457
I0
sS'shield_factor'
p458
F0.0
sS'actions'
p459
(dp460
VCapacitiy
p461
(dp462
S'delay'
p463
I0
sS'category'
p464
Vupgrade
p465
sS'price'
p466
I50
sS'actions'
p467
(lp468
(dp469
g419
g420
sg421
g422
sg423
g424
sg425
I0
sg426
I0
sg427
(dp470
Vcapacity
p471
I4
sVelite
p472
I1
ssasS'num_uses'
p473
I1
sssS'attack_max'
p474
I0
sssI6
(dp475
g413
(dp476
g415
(dp477
I0
(lp478
ssg432
(dp479
I0
(lp480
sssg435
(dp481
g437
I80
sg438
(lp482
sg440
I5
sg441
VMG-Nest
p483
sg443
(lp484
sg445
I20
sg446
I25
sg447
I15
sg448
I6
sg449
I70
sg450
I15
sg451
I80
sg56
I25
sg452
I10
sg453
Vsoldier
p485
sg455
I6
sg456
I4
sg457
I0
sg458
F0.5
sg459
(dp486
Vzweites Geschuetz
p487
(dp488
S'delay'
p489
I0
sS'category'
p490
Vupgrade
p491
sS'price'
p492
I40
sS'actions'
p493
(lp494
(dp495
S'target'
p496
S'self'
p497
sS'level'
p498
S'id'
p499
sS'type'
p500
S'change'
p501
sS'random'
p502
I0
sS'num_units'
p503
I0
sS'changes'
p504
(dp505
Vattack_min
p506
I5
sVelite
p507
I1
sVattack_max
p508
I15
ssasS'num_uses'
p509
I1
ssVPanzerabwehr
p510
(dp511
S'delay'
p512
I10
sS'category'
p513
Vupgrade
p514
sS'price'
p515
I150
sS'actions'
p516
(lp517
(dp518
S'target'
p519
S'self'
p520
sS'level'
p521
S'id'
p522
sS'type'
p523
S'change'
p524
sS'random'
p525
I0
sS'num_units'
p526
I0
sS'changes'
p527
(dp528
Vshield
p529
I10
sVshield_factor
p530
F2.0
sVattack_min
p531
I-5
sS'actions'
p532
(dp533
VMoerser
p534
(dp535
S'delay'
p536
I0
sS'category'
p537
Vupgrade
p538
sS'price'
p539
I0
sg532
(lp540
sS'num_uses'
p541
I0
sssVattack_max
p542
I-10
sVshoot_dist
p543
I1
sVelite
p544
I2
ssasS'num_uses'
p545
I1
ssVBetonguss
p546
(dp547
g512
I0
sg513
Vupgrade
p548
sg515
I50
sg516
(lp549
(dp550
g519
g520
sg521
g522
sg523
g524
sg525
I0
sg526
I0
sg527
(dp551
Vmax_shield
p552
I15
sVelite
p553
I1
sVshield
p554
I30
ssasg545
I1
ssVMoerser
p555
(dp556
S'delay'
p557
I10
sS'category'
p558
Vupgrade
p559
sS'price'
p560
I150
sS'actions'
p561
(lp562
(dp563
S'target'
p564
S'self'
p565
sS'level'
p566
S'id'
p567
sS'type'
p568
S'change'
p569
sS'random'
p570
I0
sS'num_units'
p571
I0
sS'changes'
p572
(dp573
Vnum_enemies
p574
I4
sVattack_min
p575
I10
sg532
(dp576
VPanzerabwehr
p577
(dp578
g536
I0
sg537
Vupgrade
p579
sg539
I0
sg532
(lp580
sg541
I0
sssVdelay_shoot
p581
I8
sVshoot_dist
p582
I3
sVelite
p583
I2
sVattack_max
p584
I55
ssasS'num_uses'
p585
I1
sssg474
I35
sssI7
(dp586
S'elite_parameters'
p587
(dp588
S'ticks'
p589
(dp590
I200
(lp591
(dp592
g72
Vchange
p593
sg74
F0.0
sg76
(dp594
Vvictory_points
p595
I180
ssg68
Vown
p596
sg70
Vplayer
p597
sasI50
(lp598
(dp599
g72
Vchange
p600
sg74
F0.0
sg76
(dp601
Vvictory_points
p602
I30
ssg68
Vown
p603
sg70
Vplayer
p604
sasI100
(lp605
(dp606
g72
Vchange
p607
sg74
F0.0
sg76
(dp608
Vvictory_points
p609
I50
ssg68
Vown
p610
sg70
Vplayer
p611
sasI150
(lp612
(dp613
g72
Vchange
p614
sg74
F0.0
sg76
(dp615
Vvictory_points
p616
I100
ssg68
Vown
p617
sg70
Vplayer
p618
sassS'damage'
p619
(dp620
I0
(lp621
sssS'basic_parameters'
p622
(dp623
S'life'
p624
I70
sS'shop_transporter'
p625
(lp626
I0
asS'capacity'
p627
I1
sS'name'
p628
VVictory-Fahne
p629
sS'shop_units'
p630
(lp631
I0
asS'attack_min'
p632
I0
sS'shield'
p633
I10
sS'delay_shoot'
p634
I15
sg71
I7
sg64
I150
sS'delay_in'
p635
I5
sS'max_life'
p636
I70
sS'max_shield'
p637
I0
sS'delay_out'
p638
I5
sS'enter'
p639
Vsoldier
p640
sS'shoot_dist'
p641
I5
sS'num_enemies'
p642
I4
sS'elite'
p643
I5
sS'shield_factor'
p644
F0.4
sg65
(dp645
S'Dummy (delete this)'
p646
(dp647
g61
I0
sg62
S'standard'
p648
sg64
I0
sg65
(lp649
sg83
I0
sssS'attack_max'
p650
I0
sssI8
(dp651
S'elite_parameters'
p652
(dp653
S'ticks'
p654
(dp655
I0
(lp656
ssS'damage'
p657
(dp658
I0
(lp659
sssS'basic_parameters'
p660
(dp661
S'life'
p662
I150
sS'shop_transporter'
p663
(lp664
sS'capacity'
p665
I1
sS'name'
p666
VDrohnen-Ladestation
p667
sS'shield_factor'
p668
F0.0
sS'shop_units'
p669
(lp670
I12
aI13
aI15
asS'attack_min'
p671
I0
sS'delay_shoot'
p672
I0
sS'id'
p673
I8
sS'price'
p674
I60
sS'max_life'
p675
I150
sS'num_enemies'
p676
I0
sS'max_shield'
p677
I0
sS'delay_out'
p678
I5
sS'attack_max'
p679
I0
sS'enter'
p680
Vvehicle
p681
sS'shoot_dist'
p682
I0
sS'elite'
p683
I0
sS'delay_in'
p684
I0
sS'actions'
p685
(dp686
VDrohne laden
p687
(dp688
S'delay'
p689
I10
sS'category'
p690
Vstandard
p691
sg674
I20
sg685
(lp692
(dp693
S'target'
p694
Vown
p695
sS'level'
p696
Vid
p697
sS'type'
p698
Vchange
p699
sS'random'
p700
F0.0
sS'num_units'
p701
I1
sS'changes'
p702
(dp703
Vlife
p704
I75
sS'time_dependent_actions'
p705
(dp706
I70
(lp707
(dp708
g694
S'self'
p709
sg696
g673
sg698
S'change'
p710
sg700
I0
sg701
I0
sg702
(dp711
Vlife
p712
I-6
ssasI40
(lp713
(dp714
g694
g709
sg696
g673
sg698
g710
sg700
I0
sg701
I0
sg702
(dp715
Vlife
p716
I-6
ssasI10
(lp717
(dp718
g694
g709
sg696
g673
sg698
g710
sg700
I0
sg701
I0
sg702
(dp719
Vlife
p720
I-6
ssasI50
(lp721
(dp722
g694
g709
sg696
g673
sg698
g710
sg700
I0
sg701
I0
sg702
(dp723
Vlife
p724
I-6
ssasI20
(lp725
(dp726
g694
g709
sg696
g673
sg698
g710
sg700
I0
sg701
I0
sg702
(dp727
Vlife
p728
I-6
ssasI60
(lp729
(dp730
g694
g709
sg696
g673
sg698
g710
sg700
I0
sg701
I0
sg702
(dp731
Vlife
p732
I-6
ssasI30
(lp733
(dp734
g694
g709
sg696
g673
sg698
g710
sg700
I0
sg701
I0
sg702
(dp735
Vlife
p736
I-6
ssasssasS'num_uses'
p737
I-1
sssS'shield'
p738
I15
ssssS'card_parameters'
p739
(dp740
I200
(lp741
(dp742
S'title'
p743
Vmittlerer Dieb
p744
sS'num_cards'
p745
I1
sS'actions'
p746
(lp747
(dp748
S'target'
p749
S'enemy'
p750
sS'level'
p751
S'player'
p752
sS'type'
p753
S'change'
p754
sS'reversed'
p755
I-1
sS'random'
p756
F0.25
sS'num_units'
p757
I0
sS'changes'
p758
(dp759
Vaccount
p760
I-100
ssS'blocked'
p761
S'False'
p762
sa(dp763
g749
S'own'
p764
sg751
S'player'
p765
sg753
g754
sg755
I-1
sg756
F0.25
sg757
I0
sg758
(dp766
V
p767
I0
sVaccount
p768
I80
ssg761
g762
sasS'description'
p769
Vstehle deinem Gegner Geld und erhalte welches
p770
sa(dp771
g743
Vneuer MG-Soldat
p772
sg745
I1
sg746
(lp773
(dp774
g753
S'new'
p775
sg749
S'own'
p776
sS'parameters'
p777
I2
sg751
S'groups'
p778
sasg769
Vdu erhaelst einen MG-Soldaten
p779
sa(dp780
g743
Vmittlerer Sprint
p781
sg745
I1
sg746
(lp782
(dp783
g749
S'own'
p784
sg751
S'id'
p785
sg753
g754
sg755
I40
sg756
F0.0
sg757
I1
sg758
(dp786
Vdelay_walk
p787
I-7
ssg761
g762
sasg769
Vziehe mit einer Einheit schneller
p788
sa(dp789
g743
V2x schneller schiessen
p790
sg745
I1
sg746
(lp791
(dp792
g749
S'own'
p793
sg751
S'id'
p794
sg753
g754
sg755
I40
sg756
F0.0
sg757
I2
sg758
(dp795
Vdelay_shoot
p796
I-7
ssg761
g762
sasg769
Vshoot_delay zweier Einheiten wird kuerzer
p797
sa(dp798
g743
VBlei-Panzer
p799
sg745
I1
sg746
(lp800
(dp801
g749
S'own'
p802
sg751
S'id'
p803
sg753
g754
sg755
I40
sg756
F0.0
sg757
I1
sg758
(dp804
g767
I0
sVdelay_walk
p805
I5
sVmax_shield
p806
I50
sVshield
p807
I50
ssg761
g762
sasg769
Vverbessere shield einer Einheit. Sie wird aber langsamer
p808
sa(dp809
g743
VKommantant
p810
sg745
I1
sg746
(lp811
(dp812
g753
g775
sg749
S'own'
p813
sg777
I8
sg751
S'groups'
p814
sasg769
Vdu bekommst einen Kommandanten
p815
sa(dp816
g743
VStarre
p817
sg745
I1
sg746
(lp818
(dp819
g749
S'enemy'
p820
sg751
S'id'
p821
sg753
g754
sg755
I50
sg756
F0.0
sg757
I3
sg758
(dp822
Vdelay_shoot
p823
I7
ssg761
g762
sasg769
Vverlangsame die Schiessfrequenz dreier Einheiten des Gegners
p824
sa(dp825
S'num_cards'
p826
I1
sS'description'
p827
Verhalte einige Victory-Points
p828
sS'actions'
p829
(lp830
(dp831
S'target'
p832
S'own'
p833
sS'level'
p834
S'player'
p835
sS'blocked'
p836
S'False'
p837
sS'changes'
p838
(dp839
g767
I0
sVvictory_points
p840
I50
ssS'reversed'
p841
I-1
sS'random'
p842
F0.25
sS'type'
p843
S'change'
p844
sS'num_units'
p845
I0
sasS'title'
p846
Veinige Victory-Points
p847
sasI300
(lp848
(dp849
g743
VPanzer
p850
sg745
I1
sg746
(lp851
(dp852
g753
g775
sg749
S'own'
p853
sg777
I4
sg751
S'groups'
p854
sasg769
Vdu erhaelst einen Panzer
p855
sa(dp856
g743
Vstarker Dieb
p857
sg745
I1
sg746
(lp858
(dp859
g749
S'own'
p860
sg751
S'player'
p861
sg753
g754
sg755
I-1
sg756
F0.25
sg757
I0
sg758
(dp862
Vaccount
p863
I250
ssg761
g762
sa(dp864
g749
S'enemy'
p865
sg751
S'player'
p866
sg753
g754
sg755
I-1
sg756
F0.25
sg757
I0
sg758
(dp867
Vaccount
p868
I-250
ssg761
g762
sasg769
Vstehle Geld des Gegners und erhalte welches
p869
sa(dp870
g743
VTitan Panzerung
p871
sg745
I1
sg746
(lp872
(dp873
g749
S'own'
p874
sg751
S'id'
p875
sg753
g754
sg755
I55
sg756
F0.2
sg757
I2
sg758
(dp876
g767
I0
sVmax_shield
p877
I65
sVshield
p878
I65
ssg761
g762
sasg769
Vverstaerke den Schild zweier Einheiten
p879
sa(dp880
g743
Vstarkes heilen
p881
sg745
I1
sg746
(lp882
(dp883
g749
S'own'
p884
sg751
S'id'
p885
sg753
g754
sg755
I-1
sg756
F0.0
sg757
I5
sg758
(dp886
Vlife
p887
I70
ssg761
g762
sasg769
Vheile 5 Einheiten um 70
p888
sa(dp889
g743
VFunkloch
p890
sg745
I1
sg746
(lp891
(dp892
g749
S'enemy'
p893
sg751
S'id'
p894
sg753
g754
sg755
I-1
sg756
F0.0
sg757
I7
sg758
(dp895
Vdelay
p896
I25
ssg761
g762
sasg769
Vunterbrich die Kommunikation deines Gegners, 7 Einheiten koennen sich nicht mehr bewegen!
p897
sa(dp898
g826
I1
sg827
Vstehle Victory-Points und erhalte welche
p899
sg829
(lp900
(dp901
g832
S'own'
p902
sg834
S'player'
p903
sg836
g837
sg838
(dp904
Vvictory_points
p905
I70
ssg841
I-1
sg842
F0.25
sg843
g844
sg845
I0
sa(dp906
g832
S'enemy'
p907
sg834
S'player'
p908
sg836
g837
sg838
(dp909
Vvictory_points
p910
I-70
ssg841
I-1
sg842
F0.25
sg843
g844
sg845
I0
sasg846
VVictory-Point Dieb
p911
sassS'engine_parameters'
p912
(dp913
S'max_victory_diff'
p914
F350.0
sS'start_account'
p915
F10000.0
sS'all_sectors'
p916
(dp917
I1
(dp918
S'victory'
p919
I1
sS'weight'
p920
F1.0
ssI2
(dp921
g919
I0
sg920
F1.0
ssI3
(dp922
g919
I0
sg920
F1.0
ssI4
(dp923
g919
I0
sg920
F1.0
ssI5
(dp924
g919
I0
sg920
F1.0
ssI6
(dp925
g919
I0
sg920
F1.0
ssI7
(dp926
g919
I0
sg920
F1.0
ssI8
(dp927
g919
I1
sg920
F1.0
ssI9
(dp928
g919
I0
sg920
F1.0
ssI10
(dp929
g919
I0
sg920
F1.0
ssI11
(dp930
g919
I0
sg920
F1.0
ssI12
(dp931
g919
I0
sg920
F1.0
ssI13
(dp932
g919
I1
sg920
F1.0
ssI14
(dp933
g919
I0
sg920
F1.0
sssS'delay_damage'
p934
F0.5
sS'extra_shoot_dist'
p935
F2.0
sS'per_sector_per_tick'
p936
F1.0
sS'protection_in'
p937
F18.0
sS'tick_duration'
p938
F11.0
sS'protection_effect'
p939
F0.4
sS'take_over_factor'
p940
F1.3
sS'sector_takeover'
p941
F100.0
sS'protection_out'
p942
F10.0
sS'constant_per_tick'
p943
F4.0
ssS'transport_parameters'
p944
(dp945
I0
(dp946
g93
(dp947
g95
(dp948
I0
(lp949
ssg98
(dp950
I0
(lp951
sssg101
(dp952
S'delay_walk'
p953
I15
sg103
I100
sS'walk_dist'
p954
I10
sg106
I10
sg107
VTransporter
p955
sg195
I0
sg109
F0.4
sg112
I0
sg113
I20
sg114
I0
sg115
I110
sg189
I100
sg56
I25
sg190
I5
sg191
I0
sg194
I5
sg116
(dp956
VPanzerung
p957
(dp958
S'delay'
p959
I0
sS'category'
p960
Vupgrade
p961
sS'price'
p962
I50
sS'actions'
p963
(lp964
(dp965
S'target'
p966
S'self'
p967
sS'level'
p968
S'id'
p969
sS'type'
p970
S'change'
p971
sS'random'
p972
I0
sS'num_units'
p973
I0
sS'changes'
p974
(dp975
Vdelay_walk
p976
I3
sVelite
p977
I1
sVshield
p978
I40
sg963
(dp979
VCasspir
p980
(dp981
g959
I0
sg960
Vupgrade
p982
sg962
I70
sg963
(lp983
(dp984
g966
g967
sg968
g969
sg970
g971
sg972
I0
sg973
I0
sg974
(dp985
Vdelay_walk
p986
I-5
sVelite
p987
I1
sVshield
p988
I50
sVmax_shield
p989
I40
ssasS'num_uses'
p990
I1
sssVmax_shield
p991
I30
ssasg990
I1
ssVMG
p992
(dp993
g959
I0
sg960
Vupgrade
p994
sg962
I40
sg963
(lp995
(dp996
g966
Vself
p997
sg968
Vid
p998
sg970
Vchange
p999
sg972
F0.0
sg973
I0
sg974
(dp1000
Vattack_min
p1001
I20
sVelite
p1002
I1
sVattack_max
p1003
I40
sg963
(dp1004
VKampfmaschine
p1005
(dp1006
g959
I0
sg960
Vupgrade
p1007
sg962
I80
sg963
(lp1008
(dp1009
g966
g967
sg968
g969
sg970
g971
sg972
I0
sg973
I0
sg974
(dp1010
Vshield_factor
p1011
F0.2
sVattack_min
p1012
I30
sVelite
p1013
I1
sVattack_max
p1014
I30
ssasg990
I1
ssssasg990
I1
ssVSpeed up (laden & ziehen)
p1015
(dp1016
g512
I0
sg513
Vupgrade
p1017
sg515
I30
sg516
(lp1018
(dp1019
g519
g520
sg521
g522
sg523
g524
sg525
I0
sg526
I0
sg527
(dp1020
Vdelay_walk
p1021
I-2
sVelite
p1022
I1
sg516
(dp1023
VSpeed up (nur ziehen)
p1024
(dp1025
g512
I0
sg513
Vupgrade
p1026
sg515
I40
sg516
(lp1027
(dp1028
g519
g520
sg521
g522
sg523
g524
sg525
I0
sg526
I0
sg527
(dp1029
Vdelay_walk
p1030
I-2
sVwalk_dist
p1031
I1
sVelite
p1032
I1
ssasg545
I1
sssVdelay_shoot
p1033
I-2
ssasg545
I1
ssVmehr Platz I
p1034
(dp1035
g959
I0
sg960
Vupgrade
p1036
sg962
I30
sg963
(lp1037
(dp1038
g966
g967
sg968
g969
sg970
g971
sg972
I0
sg973
I0
sg974
(dp1039
Vcapacity
p1040
I5
sVelite
p1041
I1
sg963
(dp1042
Vmehr Platz II
p1043
(dp1044
g959
I0
sg960
Vupgrade
p1045
sg962
I40
sg963
(lp1046
(dp1047
g966
g967
sg968
g969
sg970
g971
sg972
I0
sg973
I0
sg974
(dp1048
Vcapacity
p1049
I8
sVelite
p1050
I1
ssasg990
I1
ssssasg990
I1
sssS'transports'
p1051
Vsoldier
p1052
sg196
I7
sg197
I4
sg198
I25
sssI1
(dp1053
g200
(dp1054
g202
(dp1055
I0
(lp1056
ssg205
(dp1057
I0
(lp1058
sssg208
(dp1059
S'delay_walk'
p1060
I15
sg210
I100
sS'walk_dist'
p1061
I10
sg213
I10
sg214
VHelikopter
p1062
sg217
I3
sg216
F0.4
sg220
I0
sg221
I20
sg222
I1
sg223
I200
sg224
I100
sg56
I50
sg292
I5
sg288
I0
sg291
I6
sg225
(dp1063
VLaderaum vergroessern
p1064
(dp1065
S'delay'
p1066
I0
sS'category'
p1067
Vupgrade
p1068
sS'price'
p1069
I30
sS'actions'
p1070
(lp1071
(dp1072
S'target'
p1073
S'self'
p1074
sS'level'
p1075
S'id'
p1076
sS'type'
p1077
S'change'
p1078
sS'random'
p1079
I0
sS'num_units'
p1080
I0
sS'changes'
p1081
(dp1082
Vcapacity
p1083
I6
sVelite
p1084
I1
ssasS'num_uses'
p1085
I1
ssVschneller fliegen
p1086
(dp1087
S'delay'
p1088
I0
sS'category'
p1089
Vupgrade
p1090
sS'price'
p1091
I30
sS'actions'
p1092
(lp1093
(dp1094
S'target'
p1095
S'self'
p1096
sS'level'
p1097
S'id'
p1098
sS'type'
p1099
S'change'
p1100
sS'random'
p1101
I0
sS'num_units'
p1102
I0
sS'changes'
p1103
(dp1104
Vdelay_walk
p1105
I-3
sVelite
p1106
I1
sg1092
(dp1107
Vsuper Speed
p1108
(dp1109
g1088
I0
sg1089
Vupgrade
p1110
sg1091
I50
sg1092
(lp1111
(dp1112
g1095
g1096
sg1097
g1098
sg1099
g1100
sg1101
I0
sg1102
I0
sg1103
(dp1113
Vdelay_walk
p1114
I-2
sVwalk_dist
p1115
I1
sVelite
p1116
I1
ssasS'num_uses'
p1117
I1
ssssasg1117
I1
ssVKampfhubschrauber
p1118
(dp1119
g1066
I0
sg1067
Vupgrade
p1120
sg1069
I70
sg1070
(lp1121
(dp1122
g1073
g1074
sg1075
g1076
sg1077
g1078
sg1079
I0
sg1080
I0
sg1081
(dp1123
Vattack_min
p1124
I20
sVattack_max
p1125
I30
sg1070
(dp1126
VBombe abwerfen
p1127
(dp1128
g1066
I15
sg1067
Vstandard
p1129
sg1069
I80
sg1070
(lp1130
(dp1131
g1073
Venemy
p1132
sg1075
Vgroups
p1133
sg1077
Vchange
p1134
sg1079
F0.3
sg1080
I7
sg1081
(dp1135
Vlife
p1136
I-7
ssasg1085
I-1
ssssasg1085
I1
sssS'transports'
p1137
Vsoldier
p1138
sg293
I8
sg294
I4
sg295
I50
sssI2
(dp1139
S'elite_parameters'
p1140
(dp1141
S'ticks'
p1142
(dp1143
I0
(lp1144
ssS'damage'
p1145
(dp1146
I0
(lp1147
sssS'basic_parameters'
p1148
(dp1149
S'delay_walk'
p1150
I18
sS'life'
p1151
I150
sS'walk_dist'
p1152
I9
sS'capacity'
p1153
I3
sS'name'
p1154
VFahrzeug Transporter
p1155
sS'transports'
p1156
Vvehicle
p1157
sS'shield_factor'
p1158
F0.4
sS'attack_min'
p1159
I0
sS'shield'
p1160
I20
sS'delay_shoot'
p1161
I15
sS'delay_in'
p1162
I25
sg312
I300
sS'max_life'
p1163
I150
sg56
I20
sS'delay_out'
p1164
I15
sg313
(dp1165
Vmehr Platz
p1166
(dp1167
g309
I0
sg310
Vupgrade
p1168
sg312
I50
sg313
(lp1169
(dp1170
g316
g317
sg318
g319
sg320
g321
sg322
I0
sg323
I0
sg324
(dp1171
Vcapacity
p1172
I2
ssasg329
I1
sssS'shoot_dist'
p1173
I5
sS'elite'
p1174
I0
sg319
I2
sS'num_enemies'
p1175
I4
sS'attack_max'
p1176
I0
ssssS'unit_parameters'
p1177
(dp1178
I0
(dp1179
S'elite_parameters'
p1180
(dp1181
S'ticks'
p1182
(dp1183
I250
(lp1184
(dp1185
g966
g967
sg968
g969
sg970
g971
sg972
I0
sg973
I0
sg974
(dp1186
Vlife
p1187
I10
sVelite
p1188
I1
sVshield
p1189
I15
ssasI100
(lp1190
(dp1191
g966
g967
sg968
g969
sg970
g971
sg972
I0
sg973
I0
sg974
(dp1192
Vlife
p1193
I10
sVelite
p1194
I1
sVshield
p1195
I15
ssassS'damage'
p1196
(dp1197
I1000
(lp1198
(dp1199
S'target'
p1200
S'self'
p1201
sS'level'
p1202
S'id'
p1203
sS'type'
p1204
S'change'
p1205
sS'random'
p1206
I0
sS'num_units'
p1207
I0
sS'changes'
p1208
(dp1209
Vshoot_dist
p1210
I2
sVmax_life
p1211
I8
sVelite
p1212
I1
sVattack_max
p1213
I11
ssasI500
(lp1214
(dp1215
g966
g967
sg968
g969
sg970
g971
sg972
I0
sg973
I0
sg974
(dp1216
Velite
p1217
I1
sVattack_max
p1218
I8
ssasI750
(lp1219
(dp1220
g1200
g1201
sg1202
g1203
sg1204
g1205
sg1206
I0
sg1207
I0
sg1208
(dp1221
Vattack_min
p1222
I8
sVelite
p1223
I1
sVattack_max
p1224
I10
ssasssS'basic_parameters'
p1225
(dp1226
S'delay_walk'
p1227
I15
sS'life'
p1228
I50
sS'walk_dist'
p1229
I5
sS'name'
p1230
VSoldat
p1231
sS'shield_factor'
p1232
F0.45
sS'num_enemies'
p1233
I4
sS'attack_min'
p1234
I10
sS'delay_shoot'
p1235
I15
sS'unit_type'
p1236
Vsoldier
p1237
sS'max_life'
p1238
I50
sg56
I0
sS'attack_max'
p1239
I20
sS'shoot_dist'
p1240
I5
sS'price'
p1241
I70
sS'elite'
p1242
I0
sS'id'
p1243
I0
sS'actions'
p1244
(dp1245
VSchutzweste
p1246
(dp1247
g229
I0
sg230
Vupgrade
p1248
sg223
I30
sg225
(lp1249
(dp1250
g234
g394
sg236
g222
sg238
g395
sg240
I0
sg241
I0
sg242
(dp1251
Vmax_shield
p1252
I10
sVshield
p1253
I10
sg225
(dp1254
ssasg245
I1
ssVneue Schuhe
p1255
(dp1256
S'delay'
p1257
I0
sS'category'
p1258
Vupgrade
p1259
sg115
I20
sg116
(lp1260
(dp1261
S'target'
p1262
Vself
p1263
sS'level'
p1264
Vid
p1265
sS'type'
p1266
Vchange
p1267
sS'random'
p1268
F0.0
sS'num_units'
p1269
F1.0
sS'changes'
p1270
(dp1271
Vdelay_walk
p1272
I-2
sVwalk_dist
p1273
I1
sVelite
p1274
I1
sg116
(dp1275
V*Sprint
p1276
(dp1277
S'delay'
p1278
I0
sS'category'
p1279
Vstandard
p1280
sS'price'
p1281
I15
sS'actions'
p1282
(lp1283
(dp1284
S'target'
p1285
Vself
p1286
sS'level'
p1287
Vid
p1288
sS'changes'
p1289
(dp1290
Vwalk_dist
p1291
I5
sS'time_dependent_actions'
p1292
(dp1293
ssg755
I10
sS'random'
p1294
F0.0
sS'num_units'
p1295
I0
sS'type'
p1296
Vchange
p1297
sg761
VTrue
p1298
sasS'num_uses'
p1299
I-1
ssssasS'num_uses'
p1300
I1
ssVneue Munition
p1301
(dp1302
S'delay'
p1303
I0
sS'category'
p1304
Vupgrade
p1305
sS'price'
p1306
I20
sS'actions'
p1307
(lp1308
(dp1309
S'target'
p1310
S'self'
p1311
sS'level'
p1312
S'id'
p1313
sS'type'
p1314
S'change'
p1315
sS'random'
p1316
I0
sS'num_units'
p1317
I0
sS'changes'
p1318
(dp1319
Vattack_min
p1320
I5
sVelite
p1321
I2
sVattack_max
p1322
I5
sS'actions'
p1323
(dp1324
VStunner-HG
p1325
(dp1326
S'delay'
p1327
I0
sS'category'
p1328
Vstandard
p1329
sS'price'
p1330
I25
sg1323
(lp1331
(dp1332
S'target'
p1333
Venemy
p1334
sS'level'
p1335
Vid
p1336
sS'changes'
p1337
(dp1338
Vdelay
p1339
I23
sS'time_dependent_actions'
p1340
(dp1341
ssg755
I-1
sS'random'
p1342
F0.0
sS'num_units'
p1343
I1
sS'type'
p1344
Vchange
p1345
sg761
g762
sasS'num_uses'
p1346
I-1
ssssasS'num_uses'
p1347
I1
sssS'shield'
p1348
I0
sssI1
(dp1349
g1180
(dp1350
g1182
(dp1351
I120
(lp1352
(dp1353
S'target'
p1354
S'self'
p1355
sS'level'
p1356
S'id'
p1357
sS'type'
p1358
S'change'
p1359
sS'random'
p1360
I0
sS'num_units'
p1361
I0
sS'changes'
p1362
(dp1363
Vdelay_walk
p1364
I-2
sVlife
p1365
I20
sVwalk_dist
p1366
I1
sVelite
p1367
I1
ssasI250
(lp1368
(dp1369
g1354
g1355
sg1356
g1357
sg1358
g1359
sg1360
I0
sg1361
I0
sg1362
(dp1370
Velite
p1371
I1
sVlife
p1372
I15
sVmax_life
p1373
I10
sVmax_shield
p1374
I8
sVshield
p1375
I13
ssasI350
(lp1376
(dp1377
g1262
S'self'
p1378
sg1264
g114
sg1266
S'change'
p1379
sg1268
I0
sg1269
I0
sg1270
(dp1380
Vmax_shield
p1381
I10
sVwalk_dist
p1382
I1
sVelite
p1383
I1
sVshield
p1384
I10
ssassg1196
(dp1385
I0
(lp1386
sssg1225
(dp1387
g1227
I15
sg1228
I40
sg1229
I5
sg1230
VIngenieur
p1388
sg1232
F0.4
sg1233
I1
sg1234
I3
sg1235
I15
sg1236
Vsoldier
p1389
sg1238
I40
sg56
I0
sg1239
I5
sg1240
I2
sg1241
I100
sg1242
I0
sg1243
I1
sg1244
(dp1390
VSchild-Mech
p1391
(dp1392
g557
I8
sg558
Vupgrade
p1393
sg560
I80
sg561
(lp1394
(dp1395
g564
Vown
p1396
sg566
Vid
p1397
sg568
Vchange
p1398
sg570
F0.1
sg571
I1
sg572
(dp1399
Vshield
p1400
I10
ssa(dp1401
g564
g565
sg566
g567
sg568
g569
sg570
I0
sg571
I0
sg572
(dp1402
g561
(dp1403
Vreparieren 3x10
p1404
(dp1405
g557
I7
sg558
Vstandard
p1406
sg560
I50
sg561
(lp1407
(dp1408
g564
Vown
p1409
sg566
Vid
p1410
sg568
Vchange
p1411
sg570
F0.2
sg571
I3
sg572
(dp1412
Vshield
p1413
I10
ssasg585
I-1
ssVTeile ersetzen 6x10
p1414
(dp1415
g557
I7
sg558
Vstandard
p1416
sg560
I90
sg561
(lp1417
(dp1418
g564
Vown
p1419
sg566
Vid
p1420
sg568
Vchange
p1421
sg570
F0.1
sg571
I6
sg572
(dp1422
Vshield
p1423
I10
ssasg585
I-1
ssssasg585
I1
ssVBruecke bauen
p1424
(dp1425
S'delay'
p1426
I40
sS'category'
p1427
Vshop
p1428
sS'price'
p1429
I100
sS'actions'
p1430
(lp1431
(dp1432
S'target'
p1433
S'self'
p1434
sS'level'
p1435
S'id'
p1436
sS'type'
p1437
S'change'
p1438
sS'random'
p1439
I0
sS'num_units'
p1440
I0
sS'changes'
p1441
(dp1442
Vlife
p1443
I0
ssasS'num_uses'
p1444
I-1
ssVMG-Nest
p1445
(dp1446
S'delay'
p1447
I30
sS'category'
p1448
Vshop
p1449
sS'price'
p1450
I70
sS'actions'
p1451
(lp1452
(dp1453
S'type'
p1454
Vnew
p1455
sS'target'
p1456
Vown
p1457
sS'parameters'
p1458
I6
sS'level'
p1459
Vbuildings
p1460
sasS'num_uses'
p1461
I-1
ssVleichtere Ausruestung
p1462
(dp1463
g557
I0
sg558
Vupgrade
p1464
sg560
I30
sg561
(lp1465
(dp1466
g564
g565
sg566
g567
sg568
g569
sg570
I0
sg571
I0
sg572
(dp1467
Vdelay_walk
p1468
I-2
sVwalk_dist
p1469
I1
sVelite
p1470
I1
ssasg585
I1
ssVWerkstatt
p1471
(dp1472
g258
I60
sg259
Vshop
p1473
sg261
I350
sg262
(lp1474
(dp1475
g269
Vnew
p1476
sg265
Vown
p1477
sS'parameters'
p1478
I3
sg267
Vbuildings
p1479
sasg277
I-1
ssVFlugplatz
p1480
(dp1481
g355
I50
sg356
Vshop
p1482
sg358
I300
sg359
(lp1483
(dp1484
S'type'
p1485
Vnew
p1486
sS'target'
p1487
Vown
p1488
sS'parameters'
p1489
I4
sS'level'
p1490
Vbuildings
p1491
sasg365
I-1
ssVLazarett
p1492
(dp1493
g355
I50
sg356
Vshop
p1494
sg358
I250
sg359
(lp1495
(dp1496
g1485
Vnew
p1497
sg1487
Vown
p1498
sg1489
I2
sg1490
Vbuildings
p1499
sasg365
I-1
ssVKaserne
p1500
(dp1501
g1257
I60
sg1258
Vshop
p1502
sg115
I300
sg116
(lp1503
(dp1504
g1266
Vnew
p1505
sg1262
Vown
p1506
sS'parameters'
p1507
I1
sg1264
Vbuildings
p1508
sasg1300
I-1
ssVKampfingenieur
p1509
(dp1510
S'delay'
p1511
I0
sS'category'
p1512
Vupgrade
p1513
sS'price'
p1514
I70
sS'actions'
p1515
(lp1516
(dp1517
g127
g128
sg129
g130
sg131
g132
sg133
I0
sg134
I0
sg135
(dp1518
Vshield
p1519
I8
sVattack_min
p1520
I10
sg1515
(dp1521
V2 Granaten
p1522
(dp1523
g1511
I0
sg1512
Vequipment
p1524
sg1514
I70
sg1515
(lp1525
(dp1526
g127
Vself
p1527
sg129
Vid
p1528
sg131
Vchange
p1529
sg133
F0.4
sg134
I3
sg135
(dp1530
g1515
(dp1531
VGranate
p1532
(dp1533
g1511
I10
sg1512
Vstandard
p1534
sg1514
I0
sg1515
(lp1535
(dp1536
g127
Venemy
p1537
sg129
Vid
p1538
sg131
Vchange
p1539
sg133
F0.4
sg134
I3
sg135
(dp1540
Vlife
p1541
I-15
ssasS'num_uses'
p1542
I2
ssssasg1542
I-1
sssVmax_shield
p1543
I8
sVattack_max
p1544
I15
sVelite
p1545
I1
ssasg1542
I1
ssVDrohne-Ladestation bauen
p1546
(dp1547
g689
I0
sg690
S'upgrade'
p1548
sg674
I0
sg685
(lp1549
(dp1550
g698
Vnew
p1551
sg694
Vown
p1552
sS'parameters'
p1553
I8
sg696
Vbuildings
p1554
sasg737
I-1
sssg1348
I0
sssI2
(dp1555
g1180
(dp1556
g1182
(dp1557
I130
(lp1558
(dp1559
g1354
g1355
sg1356
g1357
sg1358
g1359
sg1360
I0
sg1361
I0
sg1362
(dp1560
Vdelay_walk
p1561
I-2
sVlife
p1562
I15
sVelite
p1563
I1
sVshield
p1564
I8
ssasI250
(lp1565
(dp1566
g1354
g1355
sg1356
g1357
sg1358
g1359
sg1360
I0
sg1361
I0
sg1362
(dp1567
Vlife
p1568
I15
sVmax_life
p1569
I10
sVelite
p1570
I1
sVshield
p1571
I10
sVdelay_shoot
p1572
I-2
ssassg1196
(dp1573
I500
(lp1574
(dp1575
S'target'
p1576
S'self'
p1577
sS'level'
p1578
S'id'
p1579
sS'type'
p1580
S'change'
p1581
sS'random'
p1582
I0
sS'num_units'
p1583
I0
sS'changes'
p1584
(dp1585
Vshield_factor
p1586
F0.1
sVattack_min
p1587
I10
sVelite
p1588
I1
sS'actions'
p1589
(dp1590
VSchusstraining
p1591
(dp1592
S'delay'
p1593
I0
sS'category'
p1594
Vupgrade
p1595
sS'price'
p1596
I40
sg1589
(lp1597
(dp1598
g169
g170
sg171
g172
sg173
g174
sg175
I0
sg176
I0
sg177
(dp1599
Vshoot_dist
p1600
I1
sVelite
p1601
I1
sVdelay_shoot
p1602
I-4
ssasS'num_uses'
p1603
I1
ssssasssg1225
(dp1604
g1227
I18
sg1228
I80
sg1229
I5
sg1230
VMG-Soldat
p1605
sg1232
F0.55
sg1233
I10
sg1234
I15
sg1235
I20
sg1236
Vsoldier
p1606
sg1238
I80
sg56
I20
sg1239
I65
sg1240
I6
sg1241
I175
sg1242
I0
sg1243
I2
sg1244
(dp1607
Vbessere Munition
p1608
(dp1609
g1511
I0
sg1512
Vupgrade
p1610
sg1514
I30
sg1515
(lp1611
(dp1612
g127
g128
sg129
g130
sg131
g132
sg133
I0
sg134
I0
sg135
(dp1613
Vattack_min
p1614
I10
sVattack_max
p1615
I5
sg1515
(dp1616
V*Feind zerschlagen
p1617
(dp1618
g1303
I0
sg1304
Vstandard
p1619
sg1306
I35
sg1307
(lp1620
(dp1621
g1310
Vself
p1622
sg1312
Vid
p1623
sg1318
(dp1624
Vdelay_walk
p1625
I20
sVattack_min
p1626
I20
sVattack_max
p1627
I20
sS'time_dependent_actions'
p1628
(dp1629
ssg755
I30
sg1316
F0.0
sg1317
I0
sg1314
Vchange
p1630
sg761
VTrue
p1631
sasg1347
I-1
ssssasg1542
I1
ssVKampfausbildung
p1632
(dp1633
S'delay'
p1634
I0
sS'category'
p1635
Vupgrade
p1636
sS'price'
p1637
I40
sS'actions'
p1638
(lp1639
(dp1640
S'target'
p1641
S'self'
p1642
sS'level'
p1643
S'id'
p1644
sS'type'
p1645
S'change'
p1646
sS'random'
p1647
I0
sS'num_units'
p1648
I0
sS'changes'
p1649
(dp1650
Vshoot_dist
p1651
I1
sVelite
p1652
I1
sVdelay_shoot
p1653
I-5
sg1307
(dp1654
V*Zweibein montieren
p1655
(dp1656
g1303
I0
sg1304
Vupgrade
p1657
sg1306
I30
sg1307
(lp1658
(dp1659
g1310
Vself
p1660
sg1312
Vid
p1661
sg1318
(dp1662
Vshoot_dist
p1663
I2
sg1628
(dp1664
ssg755
I45
sg1316
F0.0
sg1317
I0
sg1314
Vchange
p1665
sg761
VTrue
p1666
sasg1347
I-1
ssssasS'num_uses'
p1667
I1
sssg1348
I20
sssI3
(dp1668
g1180
(dp1669
g1182
(dp1670
I130
(lp1671
(dp1672
g1354
g1355
sg1356
g1357
sg1358
g1359
sg1360
I0
sg1361
I0
sg1362
(dp1673
Velite
p1674
I1
sVattack_min
p1675
I5
sVmax_shield
p1676
I8
sVshield
p1677
I8
ssasI250
(lp1678
(dp1679
g1354
g1355
sg1356
g1357
sg1358
g1359
sg1360
I0
sg1361
I0
sg1362
(dp1680
Vshield_factor
p1681
F0.1
sVattack_min
p1682
I8
sVelite
p1683
I1
sVattack_max
p1684
I14
ssassg1196
(dp1685
I0
(lp1686
sI250
(lp1687
(dp1688
g265
g266
sg267
g268
sg269
g270
sg271
I0
sg272
I0
sg273
(dp1689
Vattack_min
p1690
I8
sVelite
p1691
I1
sVattack_max
p1692
I8
sg262
(dp1693
Vschneller laden
p1694
(dp1695
g258
I0
sg259
Vupgrade
p1696
sg261
I30
sg262
(lp1697
(dp1698
g265
g266
sg267
g268
sg269
g270
sg271
I0
sg272
I0
sg273
(dp1699
Vdelay_shoot
p1700
I-4
ssasg277
I1
ssssasssg1225
(dp1701
g1227
I15
sg1228
I50
sg1229
I5
sg1230
VSniper
p1702
sg1232
F0.6
sg1233
I1
sg1234
I40
sg1235
I20
sg1236
Vsoldier
p1703
sg1238
I50
sg56
I0
sg1239
I60
sg1240
I10
sg1241
I200
sg1242
I0
sg1243
I3
sg1244
(dp1704
VSchutzweste
p1705
(dp1706
S'delay'
p1707
I0
sS'category'
p1708
Vupgrade
p1709
sS'price'
p1710
I30
sS'actions'
p1711
(lp1712
(dp1713
S'target'
p1714
S'self'
p1715
sS'level'
p1716
S'id'
p1717
sS'type'
p1718
S'change'
p1719
sS'random'
p1720
I0
sS'num_units'
p1721
I0
sS'changes'
p1722
(dp1723
Vmax_shield
p1724
I10
sVshield
p1725
I10
sS'actions'
p1726
(dp1727
VVerschanzen
p1728
(dp1729
S'delay'
p1730
I0
sS'category'
p1731
Vupgrade
p1732
sS'price'
p1733
I20
sg1726
(lp1734
(dp1735
S'target'
p1736
S'self'
p1737
sS'level'
p1738
S'id'
p1739
sS'type'
p1740
S'change'
p1741
sS'random'
p1742
I0
sS'num_units'
p1743
I0
sS'changes'
p1744
(dp1745
Vmax_shield
p1746
I15
sVshield
p1747
I15
sS'time_dependent_actions'
p1748
(dp1749
I30
(lp1750
(dp1751
g1736
g1737
sg1738
g1739
sg1740
g1741
sg1742
I0
sg1743
I0
sg1744
(dp1752
Vmax_shield
p1753
I-15
sVshield
p1754
I-15
ssasssasS'num_uses'
p1755
I-1
ssssasS'num_uses'
p1756
I1
ssVSpeed I (ziehen und laden)
p1757
(dp1758
g1707
I0
sg1708
Vupgrade
p1759
sg1710
I30
sg1711
(lp1760
(dp1761
g1714
g1715
sg1716
g1717
sg1718
g1719
sg1720
I0
sg1721
I0
sg1722
(dp1762
Vwalk_dist
p1763
I1
sVelite
p1764
I1
sVdelay_shoot
p1765
I-2
ssasg1756
I1
ssVhoehere Schussweite
p1766
(dp1767
S'delay'
p1768
I0
sS'category'
p1769
Vupgrade
p1770
sS'price'
p1771
I40
sS'actions'
p1772
(lp1773
(dp1774
S'target'
p1775
S'self'
p1776
sS'level'
p1777
S'id'
p1778
sS'type'
p1779
S'change'
p1780
sS'random'
p1781
I0
sS'num_units'
p1782
I0
sS'changes'
p1783
(dp1784
Vshoot_dist
p1785
I1
sVelite
p1786
I1
sg1772
(dp1787
VDistanzexperte
p1788
(dp1789
g1768
I0
sg1769
Vupgrade
p1790
sg1771
I50
sg1772
(lp1791
(dp1792
g1775
g1776
sg1777
g1778
sg1779
g1780
sg1781
I0
sg1782
I0
sg1783
(dp1793
Vshoot_dist
p1794
I1
sVattack_min
p1795
I8
sVelite
p1796
I1
sg1772
(dp1797
ssasS'num_uses'
p1798
I1
ssssasg1798
I1
ssVPraezision
p1799
(dp1800
S'delay'
p1801
I0
sS'category'
p1802
Vupgrade
p1803
sS'price'
p1804
I30
sg400
(lp1805
(dp1806
S'target'
p1807
S'self'
p1808
sS'level'
p1809
S'id'
p1810
sS'type'
p1811
S'change'
p1812
sS'random'
p1813
I0
sS'num_units'
p1814
I0
sS'changes'
p1815
(dp1816
Vattack_min
p1817
I15
sVelite
p1818
I1
sVattack_max
p1819
I8
sg262
(dp1820
Vbessere Munition
p1821
(dp1822
g258
I0
sg259
Vupgrade
p1823
sg261
I40
sg262
(lp1824
(dp1825
g265
g266
sg267
g268
sg269
g270
sg271
I0
sg272
I0
sg273
(dp1826
Vshield_factor
p1827
F0.05
sVattack_min
p1828
I15
sVelite
p1829
I1
sVattack_max
p1830
I10
sg262
(dp1831
VSchildzerstoerer
p1832
(dp1833
g258
I0
sg259
Vupgrade
p1834
sg261
I30
sg262
(lp1835
(dp1836
g265
g266
sg267
g268
sg269
g270
sg271
I0
sg272
I0
sg273
(dp1837
Vshield_factor
p1838
F0.2
sVelite
p1839
I1
sVattack_max
p1840
I8
sg166
(dp1841
VDoppelschuss
p1842
(dp1843
g162
I0
sg163
Vupgrade
p1844
sg165
I0
sg166
(lp1845
sg188
I0
ssssasg277
I1
ssssasg277
I1
ssVDoppelschuss
p1846
(dp1847
g1768
I0
sg1769
Vupgrade
p1848
sg1771
I60
sg1772
(lp1849
(dp1850
g1775
g1776
sg1777
g1778
sg1779
g1780
sg1781
I0
sg1782
I0
sg1783
(dp1851
Vnum_enemies
p1852
I1
sVattack_min
p1853
I8
sVelite
p1854
I1
sVattack_max
p1855
I15
sg166
(dp1856
VSchildzerstoerer
p1857
(dp1858
g162
I0
sg163
Vupgrade
p1859
sg165
I0
sg166
(lp1860
sg188
I0
ssssasg1798
I1
ssssasS'num_uses'
p1861
I1
sssg1348
I0
sssI4
(dp1862
g1180
(dp1863
g1182
(dp1864
I0
(lp1865
sI120
(lp1866
(dp1867
g1354
g1355
sg1356
g1357
sg1358
g1359
sg1360
I0
sg1361
I0
sg1362
(dp1868
Vdelay_walk
p1869
I-2
sVelite
p1870
I1
sVshield
p1871
I15
sVdelay_shoot
p1872
I-3
ssasI250
(lp1873
(dp1874
g1354
g1355
sg1356
g1357
sg1358
g1359
sg1360
I0
sg1361
I0
sg1362
(dp1875
Vdelay_walk
p1876
I-3
sVelite
p1877
I1
sVshield
p1878
I30
sVmax_shield
p1879
I15
ssassg1196
(dp1880
I500
(lp1881
(dp1882
g1714
g1715
sg1716
g1717
sg1718
g1719
sg1720
I0
sg1721
I0
sg1722
(dp1883
Vshield_factor
p1884
F0.07
sVattack_min
p1885
I10
sVelite
p1886
I1
sVattack_max
p1887
I5
ssasssg1225
(dp1888
g1227
I18
sg1228
I100
sg1229
I5
sg1230
VPanzer
p1889
sg1232
F0.6
sg1233
I8
sg1234
I40
sg1235
I18
sg1236
Vvehicle
p1890
sg1238
I100
sg56
I115
sg1239
I105
sg1240
I7
sg1241
I400
sg1242
I0
sg1243
I4
sg1244
(dp1891
VShottpanzerung
p1892
(dp1893
g512
I0
sg513
Vupgrade
p1894
sg515
I70
sg516
(lp1895
(dp1896
g519
g520
sg521
g522
sg523
g524
sg525
I0
sg526
I0
sg527
(dp1897
Vdelay_walk
p1898
I3
sVelite
p1899
I1
sVshield
p1900
I50
sg516
(dp1901
VVerbundpanzerung
p1902
(dp1903
g512
I0
sg513
Vupgrade
p1904
sg515
I40
sg516
(lp1905
(dp1906
g519
g520
sg521
g522
sg523
g524
sg525
I0
sg526
I0
sg527
(dp1907
Vdelay_walk
p1908
I-3
sVlife
p1909
I10
sVelite
p1910
I1
sVshield
p1911
I25
sVmax_shield
p1912
I15
ssasg545
I1
sssVmax_shield
p1913
I30
ssasg545
I1
ssVHartkernmunition
p1914
(dp1915
S'delay'
p1916
I0
sS'category'
p1917
Vupgrade
p1918
sS'price'
p1919
I30
sS'actions'
p1920
(lp1921
(dp1922
S'target'
p1923
Vself
p1924
sS'level'
p1925
Vid
p1926
sS'type'
p1927
Vchange
p1928
sS'random'
p1929
F0.0
sS'num_units'
p1930
I0
sS'changes'
p1931
(dp1932
Vshield_factor
p1933
F0.15
sVelite
p1934
I1
sVattack_max
p1935
I8
sS'actions'
p1936
(dp1937
VUrangeschoss
p1938
(dp1939
S'delay'
p1940
I0
sS'category'
p1941
Vupgrade
p1942
sS'price'
p1943
I80
sg1936
(lp1944
(dp1945
S'target'
p1946
Vself
p1947
sS'level'
p1948
Vid
p1949
sS'type'
p1950
Vchange
p1951
sS'random'
p1952
F0.0
sS'num_units'
p1953
I0
sS'changes'
p1954
(dp1955
Vshield_factor
p1956
F0.2
sVattack_min
p1957
I15
sVelite
p1958
I1
sVattack_max
p1959
I15
ssasS'num_uses'
p1960
I1
ssssasS'num_uses'
p1961
I1
ssVSpeed I
p1962
(dp1963
g355
I0
sg356
Vupgrade
p1964
sg358
I20
sg359
(lp1965
(dp1966
g1923
S'self'
p1967
sg1925
S'id'
p1968
sg1927
S'change'
p1969
sg1929
I0
sg1930
I0
sg1931
(dp1970
Vdelay_walk
p1971
I-2
sg1920
(dp1972
VSpeed II
p1973
(dp1974
g1916
I0
sg1917
Vupgrade
p1975
sg1919
I40
sg1920
(lp1976
(dp1977
g1923
g1967
sg1925
g1968
sg1927
g1969
sg1929
I0
sg1930
I0
sg1931
(dp1978
Vdelay_walk
p1979
I-2
sVwalk_dist
p1980
I1
sVelite
p1981
I1
ssasg1961
I1
ssssasg365
I1
sssg1348
I115
sssI5
(dp1982
g1180
(dp1983
g1182
(dp1984
I120
(lp1985
(dp1986
S'target'
p1987
S'self'
p1988
sS'level'
p1989
S'id'
p1990
sS'type'
p1991
S'change'
p1992
sS'random'
p1993
I0
sS'num_units'
p1994
I0
sS'changes'
p1995
(dp1996
Vmax_life
p1997
I10
sVelite
p1998
I1
ssassg1196
(dp1999
I0
(lp2000
sssg1225
(dp2001
g1227
I15
sg1228
I100
sg1229
I5
sg1230
VArtillerie
p2002
sg1232
F0.5
sg1233
I10
sg1234
I0
sg1235
I35
sg1236
Vvehicle
p2003
sg1238
I100
sg56
I70
sg1239
I0
sg1240
I10
sg1241
I550
sg1242
I0
sg1243
I5
sg1244
(dp2004
Vgroessere Schussweite I
p2005
(dp2006
g1916
I0
sg1917
Vupgrade
p2007
sg1919
I40
sg1920
(lp2008
(dp2009
g1923
g1967
sg1925
g1968
sg1927
g1969
sg1929
I0
sg1930
I0
sg1931
(dp2010
Vshoot_dist
p2011
I1
sVelite
p2012
I1
sg336
(dp2013
Vgroessere Schussweite II
p2014
(dp2015
g332
I0
sg333
Vupgrade
p2016
sg335
I50
sg336
(lp2017
(dp2018
S'target'
p2019
S'self'
p2020
sS'level'
p2021
S'id'
p2022
sS'type'
p2023
S'change'
p2024
sS'random'
p2025
I0
sS'num_units'
p2026
I0
sS'changes'
p2027
(dp2028
Vshoot_dist
p2029
I1
sVelite
p2030
I1
ssasg352
I1
ssVbesseres Geschoss
p2031
(dp2032
g332
I0
sg333
Vupgrade
p2033
sg335
I40
sg336
(lp2034
(dp2035
g2019
g2020
sg2021
g2022
sg2023
g2024
sg2025
I0
sg2026
I0
sg2027
(dp2036
Vnum_enemies
p2037
I5
sVattack_min
p2038
I15
sVelite
p2039
I1
sVshield_factor
p2040
F0.1
ssasg352
I1
ssssasg1961
I1
ssVAufbauen
p2041
(dp2042
S'delay'
p2043
I25
sS'category'
p2044
Vstandard
p2045
sS'price'
p2046
I0
sS'actions'
p2047
(lp2048
(dp2049
S'target'
p2050
S'self'
p2051
sS'level'
p2052
S'id'
p2053
sS'type'
p2054
S'change'
p2055
sS'random'
p2056
I0
sS'num_units'
p2057
I0
sS'changes'
p2058
(dp2059
Vattack_min
p2060
I30
sVwalk_dist
p2061
I-5
sVattack_max
p2062
I180
sg2047
(dp2063
VTransport
p2064
(dp2065
S'delay'
p2066
I30
sS'category'
p2067
Vequipment
p2068
sS'price'
p2069
I0
sS'actions'
p2070
(lp2071
(dp2072
S'target'
p2073
S'self'
p2074
sS'level'
p2075
S'id'
p2076
sS'type'
p2077
S'change'
p2078
sS'random'
p2079
I0
sS'num_units'
p2080
I0
sS'changes'
p2081
(dp2082
Vattack_min
p2083
I-30
sVwalk_dist
p2084
I5
sVattack_max
p2085
I-180
sg2070
(dp2086
VAufbau
p2087
(dp2088
g2066
I25
sg2067
Vstandard
p2089
sg2069
I0
sg2070
(lp2090
(dp2091
g2073
g2074
sg2075
g2076
sg2077
g2078
sg2079
I0
sg2080
I0
sg2081
(dp2092
Vattack_min
p2093
I30
sVattack_max
p2094
I180
sVwalk_dist
p2095
I-5
ssasS'num_uses'
p2096
I1
ssssasg2096
I-1
ssssasS'num_uses'
p2097
I1
ssVSpeed I
p2098
(dp2099
g355
I0
sg356
Vupgrade
p2100
sg358
I80
sg359
(lp2101
(dp2102
g2019
g2020
sg2021
g2022
sg2023
g2024
sg2025
I0
sg2026
I0
sg2027
(dp2103
Vdelay_walk
p2104
I-4
sVelite
p2105
I1
sg336
(dp2106
VSpeed II
p2107
(dp2108
g332
I0
sg333
Vupgrade
p2109
sg335
I50
sg336
(lp2110
(dp2111
g2019
g2020
sg2021
g2022
sg2023
g2024
sg2025
I0
sg2026
I0
sg2027
(dp2112
Vdelay_walk
p2113
I-2
sVelite
p2114
I1
sVdelay_shoot
p2115
I-7
ssasg352
I1
sssVdelay_shoot
p2116
I-6
ssasg365
I1
sssg1348
I70
sssI6
(dp2117
S'elite_parameters'
p2118
(dp2119
S'ticks'
p2120
(dp2121
I120
(lp2122
(dp2123
g1354
g1355
sg1356
g1357
sg1358
g1359
sg1360
I0
sg1361
I0
sg1362
(dp2124
Vlife
p2125
I100
sVmax_life
p2126
I8
sVelite
p2127
I1
ssasI250
(lp2128
(dp2129
g1354
g1355
sg1356
g1357
sg1358
g1359
sg1360
I0
sg1361
I0
sg1362
(dp2130
Velite
p2131
I1
sVlife
p2132
I100
sVmax_life
p2133
I10
sVmax_shield
p2134
I8
sVshield
p2135
I15
ssassS'damage'
p2136
(dp2137
I0
(lp2138
sssS'basic_parameters'
p2139
(dp2140
S'delay_walk'
p2141
I13
sS'life'
p2142
I50
sS'walk_dist'
p2143
I6
sS'name'
p2144
VArzt
p2145
sS'shield_factor'
p2146
F0.3
sS'num_enemies'
p2147
I2
sS'attack_min'
p2148
I20
sS'delay_shoot'
p2149
I15
sS'unit_type'
p2150
Vsoldier
p2151
sS'max_life'
p2152
I50
sg56
I10
sS'attack_max'
p2153
I30
sS'shoot_dist'
p2154
I1
sg1596
I120
sS'elite'
p2155
I0
sg1579
I6
sg1589
(dp2156
VSchmerzmittel
p2157
(dp2158
g258
I3
sg259
Vshop
p2159
sg261
I25
sg262
(lp2160
(dp2161
g564
Vself
p2162
sg566
Vid
p2163
sg568
Vchange
p2164
sg570
F0.15
sg571
I0
sg572
(dp2165
Vlife
p2166
I30
ssasg277
I-1
ssVOperation 120
p2167
(dp2168
g557
I8
sg558
Vstandard
p2169
sg560
I100
sg561
(lp2170
(dp2171
g564
Vown
p2172
sg566
Vid
p2173
sg568
Vchange
p2174
sg570
F0.2
sg571
I12
sg572
(dp2175
Vlife
p2176
I10
ssasg585
I-1
ssVneue Schuhe
p2177
(dp2178
g258
I0
sg259
Vupgrade
p2179
sg261
I20
sg262
(lp2180
(dp2181
g265
g266
sg267
g268
sg269
g270
sg271
I0
sg272
I0
sg273
(dp2182
Vwalk_dist
p2183
I1
sVelite
p2184
I1
sVwalk_delay
p2185
I-3
sg262
(dp2186
VSprint
p2187
(dp2188
S'delay'
p2189
I0
sS'category'
p2190
Vstandard
p2191
sS'price'
p2192
I15
sS'actions'
p2193
(lp2194
(dp2195
S'target'
p2196
Vself
p2197
sS'level'
p2198
Vid
p2199
sS'changes'
p2200
(dp2201
Vwalk_dist
p2202
I5
sS'time_dependent_actions'
p2203
(dp2204
ssg755
I10
sS'random'
p2205
F0.0
sS'num_units'
p2206
I0
sS'type'
p2207
Vchange
p2208
sg761
VTrue
p2209
sasS'num_uses'
p2210
I-1
ssssasg277
I1
ssVVerband mitgeben
p2211
(dp2212
g2189
I0
sg2190
Vupgrade
p2213
sg2192
I70
sg2193
(lp2214
(dp2215
g2196
Vown
p2216
sg2198
Vid
p2217
sg2207
Vchange
p2218
sg2205
F0.0
sg2206
I1
sg2200
(dp2219
g2193
(dp2220
VWunde heilen
p2221
(dp2222
g2189
I3
sg2190
Vstandard
p2223
sg2192
I30
sg2193
(lp2224
(dp2225
g2196
S'self'
p2226
sg2198
S'id'
p2227
sg2207
S'change'
p2228
sg2205
I0
sg2206
I0
sg2200
(dp2229
Vlife
p2230
I15
ssasg2210
I-1
ssssasg2210
I-1
ssVVerband 50
p2231
(dp2232
g557
I5
sg558
Vstandard
p2233
sg560
I50
sg561
(lp2234
(dp2235
g564
Vown
p2236
sg566
Vid
p2237
sg568
Vchange
p2238
sg570
F0.2
sg571
I5
sg572
(dp2239
Vlife
p2240
I10
ssasg585
I-1
sssS'shield'
p2241
I10
sssI7
(dp2242
S'elite_parameters'
p2243
(dp2244
S'ticks'
p2245
(dp2246
I0
(lp2247
ssS'damage'
p2248
(dp2249
I0
(lp2250
sssS'basic_parameters'
p2251
(dp2252
S'delay_walk'
p2253
I16
sS'life'
p2254
I60
sS'walk_dist'
p2255
I7
sS'name'
p2256
VCyborg
p2257
sS'shield_factor'
p2258
F0.65
sS'num_enemies'
p2259
I5
sS'attack_min'
p2260
I20
sS'delay_shoot'
p2261
I15
sS'unit_type'
p2262
Vsoldier
p2263
sS'max_life'
p2264
I60
sg56
I30
sS'attack_max'
p2265
I35
sS'shoot_dist'
p2266
I7
sg1710
I130
sS'elite'
p2267
I0
sg1717
I7
sg1711
(dp2268
VBleimantel
p2269
(dp2270
S'delay'
p2271
I0
sS'category'
p2272
Vupgrade
p2273
sS'price'
p2274
I25
sS'actions'
p2275
(lp2276
(dp2277
S'target'
p2278
S'self'
p2279
sS'level'
p2280
S'id'
p2281
sS'type'
p2282
S'change'
p2283
sS'random'
p2284
I0
sS'num_units'
p2285
I0
sS'changes'
p2286
(dp2287
Vdelay_walk
p2288
I4
sVelite
p2289
I1
sVshield
p2290
I10
sg2275
(dp2291
VPlasma-Shield*
p2292
(dp2293
S'delay'
p2294
I0
sS'category'
p2295
Vstandard
p2296
sS'price'
p2297
I45
sS'actions'
p2298
(lp2299
(dp2300
S'target'
p2301
Vself
p2302
sS'level'
p2303
Vid
p2304
sS'changes'
p2305
(dp2306
Vmax_shield
p2307
I30
sVshield
p2308
I30
sS'time_dependent_actions'
p2309
(dp2310
ssg755
I35
sS'random'
p2311
F0.0
sS'num_units'
p2312
I0
sS'type'
p2313
Vchange
p2314
sg761
VTrue
p2315
sasS'num_uses'
p2316
I-1
ssVTitanmantel
p2317
(dp2318
g2271
I0
sg2272
Vupgrade
p2319
sg2274
I35
sg2275
(lp2320
(dp2321
g2278
g2279
sg2280
g2281
sg2282
g2283
sg2284
I0
sg2285
I0
sg2286
(dp2322
Vdelay_walk
p2323
I-4
sVelite
p2324
I1
sVshield
p2325
I15
sVmax_shield
p2326
I10
ssasS'num_uses'
p2327
I1
sssVmax_shield
p2328
I10
ssasg2327
I1
ssVLaser Zielvorrichtung
p2329
(dp2330
g2271
I0
sg2272
Vupgrade
p2331
sg2274
I50
sg2275
(lp2332
(dp2333
g2278
g2279
sg2280
g2281
sg2282
g2283
sg2284
I0
sg2285
I0
sg2286
(dp2334
Vshoot_dist
p2335
I1
sVattack_min
p2336
I5
sVelite
p2337
I1
sVdelay_shoot
p2338
I-2
ssasg2327
I1
ssVJet-Pack*
p2339
(dp2340
g2271
I0
sg2272
Vstandard
p2341
sg2274
I30
sg2275
(lp2342
(dp2343
g2301
Vself
p2344
sg2303
Vid
p2345
sg2305
(dp2346
Vdelay_walk
p2347
I4
sVwalk_dist
p2348
I5
sg2309
(dp2349
ssg755
I10
sg2311
F0.0
sg2312
I0
sg2313
Vchange
p2350
sg761
VTrue
p2351
sasg2327
I-1
ssVneue Munition
p2352
(dp2353
g2271
I0
sg2272
Vupgrade
p2354
sg2274
I25
sg2275
(lp2355
(dp2356
g2278
g2279
sg2280
g2281
sg2282
g2283
sg2284
I0
sg2285
I0
sg2286
(dp2357
Vattack_min
p2358
I5
sVelite
p2359
I1
sVattack_max
p2360
I8
sg2275
(dp2361
ssasg2327
I1
ssVGelenke oelen
p2362
(dp2363
S'delay'
p2364
I0
sS'category'
p2365
Vupgrade
p2366
sS'price'
p2367
I30
sS'actions'
p2368
(lp2369
(dp2370
g2278
g2279
sg2280
g2281
sg2282
g2283
sg2284
I0
sg2285
I0
sg2286
(dp2371
Vdelay_walk
p2372
I-2
sVwalk_dist
p2373
I1
sVelite
p2374
I1
sg2275
(dp2375
ssasS'num_uses'
p2376
I1
sssS'shield'
p2377
I30
sssI8
(dp2378
S'elite_parameters'
p2379
(dp2380
S'ticks'
p2381
(dp2382
I0
(lp2383
sI220
(lp2384
(dp2385
S'target'
p2386
S'self'
p2387
sS'level'
p2388
S'id'
p2389
sS'type'
p2390
S'change'
p2391
sS'random'
p2392
I0
sS'num_units'
p2393
I0
sS'changes'
p2394
(dp2395
Vmax_shield
p2396
I5
sVlife
p2397
I100
sVmax_life
p2398
I10
sVelite
p2399
I1
sVshield
p2400
I20
ssasI110
(lp2401
(dp2402
g2386
g2387
sg2388
g2389
sg2390
g2391
sg2392
I0
sg2393
I0
sg2394
(dp2403
Vmax_shield
p2404
I5
sVlife
p2405
I20
sVelite
p2406
I1
sVshield
p2407
I10
ssassS'damage'
p2408
(dp2409
I0
(lp2410
sI500
(lp2411
sssS'basic_parameters'
p2412
(dp2413
S'delay_walk'
p2414
I15
sS'life'
p2415
I70
sS'walk_dist'
p2416
I5
sS'name'
p2417
VKommandant
p2418
sS'shield_factor'
p2419
F0.6
sS'num_enemies'
p2420
I4
sS'attack_min'
p2421
I20
sS'delay_shoot'
p2422
I15
sS'unit_type'
p2423
Vsoldier
p2424
sS'max_life'
p2425
I70
sg56
I10
sS'attack_max'
p2426
I30
sS'shoot_dist'
p2427
I6
sg1450
I250
sS'elite'
p2428
I4
sS'id'
p2429
I8
sg1451
(dp2430
VDrill Sergent
p2431
(dp2432
S'delay'
p2433
I0
sS'category'
p2434
Vstandard
p2435
sS'price'
p2436
I100
sS'actions'
p2437
(lp2438
(dp2439
S'target'
p2440
Vown
p2441
sS'level'
p2442
Vid
p2443
sS'changes'
p2444
(dp2445
Vattack_min
p2446
I10
sVattack_max
p2447
I8
sVdelay_shoot
p2448
I-3
ssg755
I50
sS'random'
p2449
F0.0
sS'num_units'
p2450
I3
sS'type'
p2451
Vchange
p2452
sg761
VFalse
p2453
sasS'num_uses'
p2454
I-1
ssVBeam-Port bauen
p2455
(dp2456
g463
I0
sg464
Vshop
p2457
sg466
I100
sg467
(lp2458
(dp2459
g423
Vnew
p2460
sg419
Vown
p2461
sS'parameters'
p2462
I5
sg421
Vbuildings
p2463
sasg473
I-1
ssVVictory-Fahne aufstellen
p2464
(dp2465
g61
I20
sg62
Vshop
p2466
sg64
I150
sg65
(lp2467
(dp2468
g72
Vnew
p2469
sg68
Vown
p2470
sS'parameters'
p2471
I7
sg70
Vbuildings
p2472
sasg83
I4
ssVFallschirmspringer
p2473
(dp2474
S'delay'
p2475
I20
sS'category'
p2476
Vstandard
p2477
sS'price'
p2478
I450
sS'actions'
p2479
(lp2480
(dp2481
S'type'
p2482
Vnew
p2483
sS'target'
p2484
Vown
p2485
sS'parameters'
p2486
(lp2487
I0
aI0
aI2
asS'level'
p2488
Vgroups
p2489
sasS'num_uses'
p2490
I-1
ssVLuftunterstuetzung
p2491
(dp2492
g1447
I40
sg1448
Vstandard
p2493
sg1450
I150
sg1451
(lp2494
(dp2495
g1456
Venemy
p2496
sg1459
Vid
p2497
sg1454
Vchange
p2498
sS'random'
p2499
F0.6
sS'num_units'
p2500
I7
sS'changes'
p2501
(dp2502
Vlife
p2503
I-17
sVshield
p2504
I-12
ssasg1461
I-1
ssVDrohnen-Ladestation bauen
p2505
(dp2506
S'delay'
p2507
I30
sS'category'
p2508
Vshop
p2509
sS'price'
p2510
I100
sg829
(lp2511
(dp2512
g832
Vown
p2513
sS'parameters'
p2514
I8
sg834
Vbuildings
p2515
sg841
I-1
sg843
Vnew
p2516
sg836
g837
sasS'num_uses'
p2517
I-1
ssVIdentitaet einer Gruppe aufdecken
p2518
(dp2519
S'delay'
p2520
I0
sS'category'
p2521
Vstandard
p2522
sS'price'
p2523
I40
sS'actions'
p2524
(lp2525
sS'num_uses'
p2526
I-1
sssS'shield'
p2527
I10
sssI9
(dp2528
S'elite_parameters'
p2529
(dp2530
S'ticks'
p2531
(dp2532
I0
(lp2533
ssS'damage'
p2534
(dp2535
I0
(lp2536
sssS'basic_parameters'
p2537
(dp2538
S'delay_walk'
p2539
I0
sS'life'
p2540
I100
sS'walk_dist'
p2541
I0
sS'name'
p2542
VFlak
p2543
sS'shield_factor'
p2544
F0.6
sS'num_enemies'
p2545
I3
sS'attack_min'
p2546
I60
sS'delay_shoot'
p2547
I15
sS'unit_type'
p2548
Vvehicle
p2549
sS'max_life'
p2550
I100
sg56
I0
sS'attack_max'
p2551
I80
sS'shoot_dist'
p2552
I5
sS'price'
p2553
I200
sS'elite'
p2554
I0
sS'id'
p2555
I9
sS'actions'
p2556
(dp2557
Vnix
p2558
(dp2559
S'delay'
p2560
I0
sS'category'
p2561
S'upgrade'
p2562
sg2553
I0
sg2556
(lp2563
sS'num_uses'
p2564
I-1
sssS'shield'
p2565
I0
sssI10
(dp2566
S'elite_parameters'
p2567
(dp2568
S'ticks'
p2569
(dp2570
I150
(lp2571
(dp2572
g1354
g1355
sg1356
g1357
sg1358
g1359
sg1360
I0
sg1361
I0
sg1362
(dp2573
Vdelay_walk
p2574
I-2
sVelite
p2575
I1
ssassS'damage'
p2576
(dp2577
I0
(lp2578
sssS'basic_parameters'
p2579
(dp2580
S'delay_walk'
p2581
I11
sS'life'
p2582
I40
sS'walk_dist'
p2583
I6
sS'name'
p2584
VMotorrad
p2585
sS'shield_factor'
p2586
F0.45
sS'num_enemies'
p2587
I4
sS'attack_min'
p2588
I5
sS'delay_shoot'
p2589
I15
sS'unit_type'
p2590
Vvehicle
p2591
sS'max_life'
p2592
I40
sg56
I0
sS'attack_max'
p2593
I10
sS'shoot_dist'
p2594
I5
sg2436
I40
sS'elite'
p2595
I0
sS'id'
p2596
I10
sg2437
(dp2597
VSchutzweste
p2598
(dp2599
g2433
I0
sg2434
Vupgrade
p2600
sg2436
I30
sg2437
(lp2601
(dp2602
g2440
S'self'
p2603
sg2442
g2596
sg2451
S'change'
p2604
sg2449
I0
sg2450
I0
sg2444
(dp2605
Vmax_shield
p2606
I8
sVshield
p2607
I8
ssasg2454
I1
ssVneue Reifen
p2608
(dp2609
g2433
I0
sg2434
Vupgrade
p2610
sg2436
I20
sg2437
(lp2611
(dp2612
g2440
g2603
sg2442
g2596
sg2451
g2604
sg2449
I0
sg2450
I0
sg2444
(dp2613
Vwalk_dist
p2614
I1
sVelite
p2615
I1
sg2437
(dp2616
Vleichteres Motorrad
p2617
(dp2618
g2433
I0
sg2434
Vupgrade
p2619
sg2436
I30
sg2437
(lp2620
(dp2621
g2440
g2603
sg2442
g2596
sg2451
g2604
sg2449
I0
sg2450
I0
sg2444
(dp2622
Vdelay_walk
p2623
I-1
sVwalk_dist
p2624
I1
sVelite
p2625
I1
ssasg2454
I1
ssssasg2454
I1
ssVDrive by lernen
p2626
(dp2627
g2433
I0
sg2434
Vupgrade
p2628
sg2436
I30
sg2437
(lp2629
(dp2630
g2440
g2603
sg2442
g2596
sg2451
g2604
sg2449
I0
sg2450
I0
sg2444
(dp2631
Vattack_min
p2632
I7
sVelite
p2633
I1
sVattack_max
p2634
I5
ssasg2454
I1
sssS'shield'
p2635
I0
sssI11
(dp2636
S'elite_parameters'
p2637
(dp2638
S'ticks'
p2639
(dp2640
I0
(lp2641
ssS'damage'
p2642
(dp2643
I0
(lp2644
sssS'basic_parameters'
p2645
(dp2646
S'delay_walk'
p2647
I18
sS'life'
p2648
I80
sS'walk_dist'
p2649
I5
sS'name'
p2650
VJavelin
p2651
sS'shield_factor'
p2652
F2.6
sS'num_enemies'
p2653
I2
sS'attack_min'
p2654
I9
sS'delay_shoot'
p2655
I20
sS'unit_type'
p2656
Vsoldier
p2657
sS'max_life'
p2658
I80
sg56
I50
sS'attack_max'
p2659
I15
sS'shoot_dist'
p2660
I9
sg1637
I200
sS'elite'
p2661
I0
sg1644
I11
sg1638
(dp2662
Vschneller ziehen
p2663
(dp2664
g162
I0
sg163
Vupgrade
p2665
sg165
I30
sg166
(lp2666
(dp2667
g169
g170
sg171
g172
sg173
g174
sg175
I0
sg176
I0
sg177
(dp2668
Vdelay_walk
p2669
I-3
sVelite
p2670
I1
ssasg188
I1
ssVschneller laden
p2671
(dp2672
S'delay'
p2673
I0
sS'category'
p2674
Vupgrade
p2675
sS'price'
p2676
I40
sS'actions'
p2677
(lp2678
(dp2679
S'target'
p2680
S'self'
p2681
sS'level'
p2682
S'id'
p2683
sS'type'
p2684
S'change'
p2685
sS'random'
p2686
I0
sS'num_units'
p2687
I0
sS'changes'
p2688
(dp2689
Velite
p2690
I1
sVdelay_shoot
p2691
I-4
ssasS'num_uses'
p2692
I1
ssVgroessere Sprengkraft
p2693
(dp2694
g2673
I0
sg2674
Vupgrade
p2695
sg2676
I30
sg2677
(lp2696
(dp2697
g2680
g2681
sg2682
g2683
sg2684
g2685
sg2686
I0
sg2687
I0
sg2688
(dp2698
Vnum_enemies
p2699
I2
sVattack_min
p2700
I2
sVelite
p2701
I1
sVattack_max
p2702
I3
sg2677
(dp2703
Vneue Sprengtechnologie
p2704
(dp2705
g2673
I0
sg2674
Vupgrade
p2706
sg2676
I40
sg2677
(lp2707
(dp2708
g2680
g2681
sg2682
g2683
sg2684
g2685
sg2686
I0
sg2687
I0
sg2688
(dp2709
Vshield_factor
p2710
F0.4
sVelite
p2711
I1
ssasg2692
I1
ssssasg2692
I1
sssS'shield'
p2712
I50
sssI12
(dp2713
S'elite_parameters'
p2714
(dp2715
S'ticks'
p2716
(dp2717
I0
(lp2718
sI80
(lp2719
(dp2720
g1333
Vself
p2721
sg1335
Vid
p2722
sg1344
Vchange
p2723
sg1342
F0.0
sg1343
I0
sg1337
(dp2724
Vlife
p2725
I-40
ssassS'damage'
p2726
(dp2727
I0
(lp2728
sssS'basic_parameters'
p2729
(dp2730
S'delay_walk'
p2731
I10
sS'life'
p2732
I40
sS'walk_dist'
p2733
I7
sS'name'
p2734
VSpreng-Drohne
p2735
sS'num_enemies'
p2736
I0
sS'attack_min'
p2737
I0
sS'delay_shoot'
p2738
I0
sS'id'
p2739
I12
sS'unit_type'
p2740
Vvehicle
p2741
sS'max_life'
p2742
I40
sS'max_shield'
p2743
I0
sS'attack_max'
p2744
I0
sS'shoot_dist'
p2745
I0
sg1330
I50
sS'elite'
p2746
I0
sS'shield_factor'
p2747
F0.0
sg1323
(dp2748
VSprengen
p2749
(dp2750
g1327
I0
sg1328
Vstandard
p2751
sg1330
I0
sg1323
(lp2752
(dp2753
g1333
Venemy
p2754
sg1335
Vid
p2755
sg1344
Vchange
p2756
sg1342
F0.3
sg1343
I1
sg1337
(dp2757
Vlife
p2758
I-85
ssa(dp2759
g749
S'self'
p2760
sg751
S'id'
p2761
sg753
g754
sg755
I-1
sg756
I0
sg757
I0
sg758
(dp2762
Vlife
p2763
I-40
ssg761
g762
sasg1346
I1
sssS'shield'
p2764
I0
sssI13
(dp2765
g2714
(dp2766
g2716
(dp2767
I0
(lp2768
ssg2726
(dp2769
I0
(lp2770
sssg2729
(dp2771
g2731
I12
sg2732
I40
sg2733
I7
sg2734
VLebens-Drohne
p2772
sg2736
I0
sg2737
I0
sg2738
I0
sg2739
I13
sg2740
Vvehicle
p2773
sg2742
I400
sg2743
I0
sg2744
I0
sg2745
I0
sg1330
I30
sg2746
I0
sg2747
F0.0
sg1323
(dp2774
VDrohne zerstoeren
p2775
(dp2776
S'delay'
p2777
I0
sS'category'
p2778
S'upgrade'
p2779
sS'price'
p2780
I0
sg746
(lp2781
(dp2782
g749
g2760
sg751
g2761
sg753
g754
sg755
I-1
sg756
I0
sg757
I0
sg758
(dp2783
Vlife
p2784
I-30
ssg761
g762
sasS'num_uses'
p2785
I-1
ssVSektor einnehmen
p2786
(dp2787
g1327
I0
sg1328
Vstandard
p2788
sg1330
I40
sg1323
(lp2789
(dp2790
g1333
Vself
p2791
sg1335
Vid
p2792
sg1337
(dp2793
Vlife
p2794
I360
sg1340
(dp2795
ssg755
I23
sg1342
F0.0
sg1343
I0
sg1344
Vchange
p2796
sg761
VTrue
p2797
sasg1346
I5
sssg2764
I10
sssI14
(dp2798
S'elite_parameters'
p2799
(dp2800
S'ticks'
p2801
(dp2802
I0
(lp2803
ssS'damage'
p2804
(dp2805
I0
(lp2806
sI170
(lp2807
(dp2808
g2301
S'self'
p2809
sg2303
S'id'
p2810
sg2313
S'change'
p2811
sg2311
I0
sg2312
I0
sg2305
(dp2812
Velite
p2813
I1
sg2298
(dp2814
VBrandshuriken
p2815
(dp2816
g2294
I7
sg2295
Vstandard
p2817
sg2297
I12
sg2298
(lp2818
(dp2819
g2301
Venemy
p2820
sg2303
Vgroups
p2821
sg2313
Vchange
p2822
sg2311
F0.3
sg2312
I1
sg2305
(dp2823
Vlife
p2824
I-6
sVshield
p2825
I-6
ssasg2316
I-1
ssssasssS'basic_parameters'
p2826
(dp2827
S'delay_walk'
p2828
I15
sS'life'
p2829
I60
sS'walk_dist'
p2830
I6
sS'name'
p2831
VSamurai
p2832
sS'shield_factor'
p2833
F0.3
sS'num_enemies'
p2834
I1
sS'attack_min'
p2835
I40
sS'delay_shoot'
p2836
I12
sS'unit_type'
p2837
Vsoldier
p2838
sS'max_life'
p2839
I60
sS'max_shield'
p2840
I8
sS'attack_max'
p2841
I60
sS'shoot_dist'
p2842
I2
sg2297
I110
sS'elite'
p2843
I3
sg2810
I14
sg2298
(dp2844
VTeleportieren vorbereiten
p2845
(dp2846
g2777
I20
sg2778
Vstandard
p2847
sg2780
I25
sg746
(lp2848
(dp2849
g749
g2760
sg751
g2761
sg753
g754
sg755
I-1
sg756
I0
sg757
I0
sg758
(dp2850
g746
(dp2851
VTeleportieren
p2852
(dp2853
g2777
I0
sg2778
Vstandard
p2854
sg2780
I0
sg746
(lp2855
(dp2856
g749
Vself
p2857
sg751
Vid
p2858
sg753
Vchange
p2859
sg755
I4
sg756
F0.0
sg757
I0
sg758
(dp2860
Vdelay_walk
p2861
I-11
sVwalk_dist
p2862
I10
ssg761
VTrue
p2863
sasg2785
I1
ssssg761
g762
sasg2785
I-1
ssVShuriken
p2864
(dp2865
g2294
I4
sg2295
Vstandard
p2866
sg2297
I8
sg2298
(lp2867
(dp2868
g2301
Venemy
p2869
sg2303
Vid
p2870
sg2313
Vchange
p2871
sg2311
F0.2
sg2312
I1
sg2305
(dp2872
Vlife
p2873
I-6
ssasg2316
I-1
ssVDrachenschwert
p2874
(dp2875
g2294
I0
sg2295
Vupgrade
p2876
sg2297
I40
sg2298
(lp2877
(dp2878
g2301
g2809
sg2303
g2810
sg2313
g2811
sg2311
I0
sg2312
I0
sg2305
(dp2879
Vattack_min
p2880
I15
sVelite
p2881
I2
sVattack_max
p2882
I10
ssasg2316
I1
ssVZauberkunst
p2883
(dp2884
g2294
I0
sg2295
Vupgrade
p2885
sg2297
I40
sg2298
(lp2886
(dp2887
g2301
g2809
sg2303
g2810
sg2313
g2811
sg2311
I0
sg2312
I0
sg2305
(dp2888
Vlife
p2889
I8
sVelite
p2890
I2
sg2298
(dp2891
VZeitlupe fuer Gegner
p2892
(dp2893
g2294
I7
sg2295
Vstandard
p2894
sg2297
I35
sg2298
(lp2895
(dp2896
g2301
Venemy
p2897
sg2303
Vid
p2898
sg2305
(dp2899
Vdelay_walk
p2900
I20
sg2309
(dp2901
sVdelay_shoot
p2902
I20
ssg755
I33
sg2311
F0.0
sg2312
I1
sg2313
Vchange
p2903
sg761
VFalse
p2904
sasg2316
I-1
ssVheilen
p2905
(dp2906
g2294
I15
sg2295
Vstandard
p2907
sg2297
I25
sg2298
(lp2908
(dp2909
g2301
g2809
sg2303
g2810
sg2313
g2811
sg2311
I0
sg2312
I0
sg2305
(dp2910
Vlife
p2911
I18
ssasg2316
I-1
ssssasg2316
I1
sssS'shield'
p2912
I8
sssI15
(dp2913
S'elite_parameters'
p2914
(dp2915
S'ticks'
p2916
(dp2917
I0
(lp2918
ssS'damage'
p2919
(dp2920
I0
(lp2921
sssS'basic_parameters'
p2922
(dp2923
S'delay_walk'
p2924
I18
sS'life'
p2925
I40
sS'walk_dist'
p2926
I6
sS'name'
p2927
Vbewaffnete Drohne
p2928
sS'num_enemies'
p2929
I4
sS'attack_min'
p2930
I20
sS'delay_shoot'
p2931
I18
sg2761
I15
sS'unit_type'
p2932
Vvehicle
p2933
sS'max_life'
p2934
I40
sS'max_shield'
p2935
I0
sS'attack_max'
p2936
I45
sS'shoot_dist'
p2937
I6
sg2780
I60
sS'elite'
p2938
I0
sS'shield_factor'
p2939
F0.35
sg746
(dp2940
VNotfall Batterie
p2941
(dp2942
g2777
I0
sg2778
Vstandard
p2943
sg2780
I20
sg746
(lp2944
(dp2945
g749
Vself
p2946
sg751
Vid
p2947
sg753
Vchange
p2948
sg755
I-1
sg756
F0.0
sg757
I0
sg758
(dp2949
Vlife
p2950
I40
ssg761
VFalse
p2951
sasg2785
I3
sssS'shield'
p2952
I0
ssss.